 lwip_image

 Timestamp is 56bade2d (Wed Feb 10 07:52:29 2016)

 Preferred load address is 0000000180000000

 Start         Length     Name                   Class
 0001:00000000 000001dbH .text                   CODE
 0001:000001e0 00000017H .text$di                CODE
 0001:00000200 0002e1ecH .text$mn                CODE
 0001:0002e3f0 00000012H .text$mn$00             CODE
 0001:0002e410 00001fb0H .text$x                 CODE
 0001:000303c0 000000d1H .text$yd                CODE
 0002:00000000 000002e0H .idata$5                DATA
 0002:000002e0 00000010H .00cfg                  DATA
 0002:000002f0 00000008H .CRT$XCA                DATA
 0002:000002f8 00000010H .CRT$XCU                DATA
 0002:00000308 00000008H .CRT$XCZ                DATA
 0002:00000310 00000008H .CRT$XIA                DATA
 0002:00000318 00000020H .CRT$XIC                DATA
 0002:00000338 00000008H .CRT$XIZ                DATA
 0002:00000340 00000008H .CRT$XLA                DATA
 0002:00000348 00000008H .CRT$XLZ                DATA
 0002:00000350 00000008H .CRT$XPA                DATA
 0002:00000358 00000010H .CRT$XPX                DATA
 0002:00000368 00000008H .CRT$XPXA               DATA
 0002:00000370 00000008H .CRT$XPZ                DATA
 0002:00000378 00000008H .CRT$XTA                DATA
 0002:00000380 00000008H .CRT$XTZ                DATA
 0002:00000388 00000000H .gfids$x                DATA
 0002:00000390 0001a704H .rdata                  DATA
 0002:0001aa98 00000028H .rdata$T                DATA
 0002:0001aac0 00000404H .rdata$r                DATA
 0002:0001aec8 00000010H .rdata$zETW0            DATA
 0002:0001aed8 00000077H .rdata$zETW1            DATA
 0002:0001af4f 0000002cH .rdata$zETW2            DATA
 0002:0001af7b 00000001H .rdata$zETW9            DATA
 0002:0001af7c 000004fcH .rdata$zzzdbg           DATA
 0002:0001b478 00000008H .rtc$IAA                DATA
 0002:0001b480 00000008H .rtc$IZZ                DATA
 0002:0001b488 00000008H .rtc$TAA                DATA
 0002:0001b490 00000008H .rtc$TZZ                DATA
 0002:0001b4a0 00003b48H .xdata                  DATA
 0002:0001efe8 000003ccH .xdata$x                DATA
 0002:0001f3b4 00000020H .didat$2                DATA
 0002:0001f3d4 00000020H .didat$3                DATA
 0002:0001f3f8 000001c0H .didat$4                DATA
 0002:0001f5b8 00000e30H .didat$6                DATA
 0002:000203e8 000001c0H .didat$7                DATA
 0002:000205b0 00000058H .edata                  DATA
 0002:00020608 0000003cH .idata$2                DATA
 0002:00020644 00000014H .idata$3                DATA
 0002:00020658 000002e0H .idata$4                DATA
 0002:00020938 0000069eH .idata$6                DATA
 0003:00000000 00000ae0H .data                   DATA
 0003:00000ae0 00000251H .data$r                 DATA
 0003:00000d38 000001c0H .didat$5                DATA
 0003:00000f00 00001354H .bss                    DATA
 0004:00000000 0000243cH .pdata                  DATA
 0005:00000000 00000001H .tls                    DATA
 0005:00000004 00000004H .tls$                   DATA
 0005:00000008 00000001H .tls$ZZZ                DATA
 0006:00000000 00000058H .rsrc$01                DATA
 0006:00000060 00000180H .rsrc$02                DATA

  Address         Publics by Value              Rva+Base               Lib:Object

 0000:00000000       __guard_fids_count         0000000000000000     <absolute>
 0000:00000000       ___safe_se_handler_count   0000000000000000     <absolute>
 0000:00000000       ___safe_se_handler_table   0000000000000000     <absolute>
 0000:00000000       __guard_fids_table         0000000000000000     <absolute>
 0000:00000100       __guard_flags              0000000000000100     <absolute>
 0000:00000000       __ImageBase                0000000180000000     <linker-defined>
 0001:00000000       ?TraceLoggingRegister@__vcrt_trace_logging_provider@@YAJPEBU_TlgProvider_t@1@PEBU_GUID@@P6AX1KE_K2PEAU_EVENT_FILTER_DESCRIPTOR@@PEAX@Z4@Z 0000000180001000 f i libvcruntime:telemetry.obj
 0001:0000007c       ?_TlgEnableCallback@__vcrt_trace_logging_provider@@YAXPEBU_GUID@@KE_K1PEAU_EVENT_FILTER_DESCRIPTOR@@PEAX@Z 000000018000107c f i libvcruntime:telemetry.obj
 0001:00000140       ?_TlgWrite@__vcrt_trace_logging_provider@@YAJPEBU_TlgProvider_t@1@PEFBXPEBU_GUID@@2IPEAU_EVENT_DATA_DESCRIPTOR@@@Z 0000000180001140 f i libvcruntime:telemetry.obj
 0001:00000200       ?InitAll@@YAXV?$Local@VObject@v8@@@v8@@@Z 0000000180001200 f   init.obj
 0001:00000220       ??1?$CImg@I@cimg_library@@QEAA@XZ 0000000180001220 f i resize_worker.obj
 0001:00000220       ??1?$CImg@D@cimg_library@@QEAA@XZ 0000000180001220 f i init.obj
 0001:00000220       ??1?$CImg@K@cimg_library@@QEAA@XZ 0000000180001220 f i resize_worker.obj
 0001:00000220       ??1?$CImg@M@cimg_library@@QEAA@XZ 0000000180001220 f i resize_worker.obj
 0001:00000220       ??1?$CImg@E@cimg_library@@QEAA@XZ 0000000180001220 f i image.obj
 0001:00000230       __local_stdio_printf_options 0000000180001230 f i image.obj
 0001:00000240       fprintf                    0000000180001240 f i image.obj
 0001:00000290       ??0exception@stdext@@QEAA@AEBV01@@Z 0000000180001290 f i image.obj
 0001:000002b0       ??1exception@stdext@@UEAA@XZ 00000001800012b0 f i image.obj
 0001:000002c0       ?what@exception@stdext@@UEBAPEBDXZ 00000001800012c0 f i image.obj
 0001:000002e0       __except_validate_context_record 00000001800012e0 f i libvcruntime:jbcxrval.obj
 0001:000002e0       _guard_check_icall_nop     00000001800012e0 f i LIBCMT:guard_support.obj
 0001:000002e0       ?_Doraise@exception@stdext@@MEBAXXZ 00000001800012e0 f i image.obj
 0001:000002f0       ??_Gexception@stdext@@UEAAPEAXI@Z 00000001800012f0 f i image.obj
 0001:000002f0       ??_Eexception@stdext@@UEAAPEAXI@Z 00000001800012f0 f i * CIL library *:* CIL module *
 0001:00000320       ??1ObjectWrap@node@@UEAA@XZ 0000000180001320 f i image.obj
 0001:000003a0       ?Wrap@ObjectWrap@node@@IEAAXV?$Local@VObject@v8@@@v8@@@Z 00000001800013a0 f i image.obj
 0001:00000470       ?Ref@ObjectWrap@node@@MEAAXXZ 0000000180001470 f i image.obj
 0001:000004b0       ?Unref@ObjectWrap@node@@MEAAXXZ 00000001800014b0 f i image.obj
 0001:00000560       ?WeakCallback@ObjectWrap@node@@CAXAEBV?$WeakCallbackData@VObject@v8@@VObjectWrap@node@@@v8@@@Z 0000000180001560 f i image.obj
 0001:00000680       ??_GObjectWrap@node@@UEAAPEAXI@Z 0000000180001680 f i image.obj
 0001:00000680       ??_EObjectWrap@node@@UEAAPEAXI@Z 0000000180001680 f i * CIL library *:* CIL module *
 0001:00000770       ?New@?$Factory@VFunctionTemplate@v8@@@imp@Nan@@SA?AV?$Local@VFunctionTemplate@v8@@@v8@@P6AXAEBV?$FunctionCallbackInfo@VValue@v8@@@3@@ZV?$Local@VValue@v8@@@5@V?$Local@VSignature@v8@@@5@@Z 0000000180001770 f i image.obj
 0001:00000900       ??1HandleScope@Nan@@QEAA@XZ 0000000180001900 f i image.obj
 0001:00000900       ??1EscapableHandleScope@Nan@@QEAA@XZ 0000000180001900 f i image.obj
 0001:00000910       ??0Callback@Nan@@QEAA@AEBV?$Local@VFunction@v8@@@v8@@@Z 0000000180001910 f i image.obj
 0001:00000a30       ??1?$Persistent@VObject@v8@@V?$NonCopyablePersistentTraits@VObject@v8@@@2@@Nan@@QEAA@XZ 0000000180001a30 f i image.obj
 0001:00000a50       ?AsyncExecute@Nan@@YAXPEAUuv_work_s@@@Z 0000000180001a50 f i image.obj
 0001:00000a60       ?AsyncExecuteComplete@Nan@@YAXPEAUuv_work_s@@@Z 0000000180001a60 f i image.obj
 0001:00000aa0       ?_snprintf@cimg@cimg_library@@YAHQEAD_KQEBDZZ 0000000180001aa0 f i image.obj
 0001:00000b00       ?_vsnprintf@cimg@cimg_library@@YAHQEAD_KQEBDPEAD@Z 0000000180001b00 f i image.obj
 0001:00000bd0       ??0CImgException@cimg_library@@QEAA@AEBU01@@Z 0000000180001bd0 f i image.obj
 0001:00000c40       ??1CImgArgumentException@cimg_library@@UEAA@XZ 0000000180001c40 f i image.obj
 0001:00000c40       ??1CImgIOException@cimg_library@@UEAA@XZ 0000000180001c40 f i image.obj
 0001:00000c40       ??1CImgException@cimg_library@@UEAA@XZ 0000000180001c40 f i image.obj
 0001:00000c40       ??1CImgInstanceException@cimg_library@@UEAA@XZ 0000000180001c40 f i image.obj
 0001:00000c70       ?what@CImgException@cimg_library@@UEBAPEBDXZ 0000000180001c70 f i image.obj
 0001:00000c80       ??_GCImgException@cimg_library@@UEAAPEAXI@Z 0000000180001c80 f i image.obj
 0001:00000c80       ??_ECImgInstanceException@cimg_library@@UEAAPEAXI@Z 0000000180001c80 f i * CIL library *:* CIL module *
 0001:00000c80       ??_GCImgArgumentException@cimg_library@@UEAAPEAXI@Z 0000000180001c80 f i image.obj
 0001:00000c80       ??_ECImgArgumentException@cimg_library@@UEAAPEAXI@Z 0000000180001c80 f i * CIL library *:* CIL module *
 0001:00000c80       ??_ECImgException@cimg_library@@UEAAPEAXI@Z 0000000180001c80 f i * CIL library *:* CIL module *
 0001:00000c80       ??_GCImgIOException@cimg_library@@UEAAPEAXI@Z 0000000180001c80 f i image.obj
 0001:00000c80       ??_GCImgInstanceException@cimg_library@@UEAAPEAXI@Z 0000000180001c80 f i image.obj
 0001:00000c80       ??_ECImgIOException@cimg_library@@UEAAPEAXI@Z 0000000180001c80 f i * CIL library *:* CIL module *
 0001:00000cd0       ??0CImgArgumentException@cimg_library@@QEAA@QEBDZZ 0000000180001cd0 f i image.obj
 0001:00000dd0       ??0CImgInstanceException@cimg_library@@QEAA@QEBDZZ 0000000180001dd0 f i image.obj
 0001:00000ed0       ??0CImgIOException@cimg_library@@QEAA@QEBDZZ 0000000180001ed0 f i image.obj
 0001:00000fd0       ?Mutex_attr@cimg@cimg_library@@YAAEAUMutex_info@12@XZ 0000000180001fd0 f i image.obj
 0001:00001080       ?output@cimg@cimg_library@@YAPEAU_iobuf@@PEAU3@@Z 0000000180002080 f i image.obj
 0001:00001110       ?warn@cimg@cimg_library@@YAXQEBDZZ 0000000180002110 f i image.obj
 0001:000011b0       ?filenamerand@cimg@cimg_library@@YAPEBDXZ 00000001800021b0 f i image.obj
 0001:00001300       ?winformat_string@cimg@cimg_library@@YAXQEAD@Z 0000000180002300 f i image.obj
 0001:00001370       ??0CImgArgumentException@cimg_library@@QEAA@AEBU01@@Z 0000000180002370 f i image.obj
 0001:00001370       ??0CImgIOException@cimg_library@@QEAA@AEBU01@@Z 0000000180002370 f i image.obj
 0001:00001370       ??0CImgInstanceException@cimg_library@@QEAA@AEBU01@@Z 0000000180002370 f i image.obj
 0001:000013f0       ?fclose@cimg@cimg_library@@YAHPEAU_iobuf@@@Z 00000001800023f0 f i image.obj
 0001:00001460       ?info@cimg@cimg_library@@YAXXZ 0000000180002460 f i image.obj
 0001:00001870       ?temporary_path@cimg@cimg_library@@YAPEBDQEBD_N@Z 0000000180002870 f i image.obj
 0001:00001dc0       ?programfiles_path@cimg@cimg_library@@YAPEBDQEBD_N@Z 0000000180002dc0 f i image.obj
 0001:00001ef0       ?imagemagick_path@cimg@cimg_library@@YAPEBDQEBD_N@Z 0000000180002ef0 f i image.obj
 0001:00002980       ?graphicsmagick_path@cimg@cimg_library@@YAPEBDQEBD_N@Z 0000000180003980 f i image.obj
 0001:00003410       ?medcon_path@cimg@cimg_library@@YAPEBDQEBD_N@Z 0000000180004410 f i image.obj
 0001:00003600       ?strbuffersize@cimg@cimg_library@@YAPEBDK@Z 0000000180004600 f i image.obj
 0001:00003740       ?Init@LwipImage@@SAXV?$Local@VObject@v8@@@v8@@@Z 0000000180004740 f   image.obj
 0001:00004680       ??0LwipImage@@QEAA@PEAE_K1@Z 0000000180005680 f   image.obj
 0001:00004710       ??_ELwipImage@@UEAAPEAXI@Z 0000000180005710 f i * CIL library *:* CIL module *
 0001:00004710       ??_GLwipImage@@UEAAPEAXI@Z 0000000180005710 f i image.obj
 0001:00004790       ?New@LwipImage@@SAXAEBV?$FunctionCallbackInfo@VValue@v8@@@Nan@@@Z 0000000180005790 f   image.obj
 0001:00004900       ?width@LwipImage@@SAXAEBV?$FunctionCallbackInfo@VValue@v8@@@Nan@@@Z 0000000180005900 f   image.obj
 0001:00004990       ?height@LwipImage@@SAXAEBV?$FunctionCallbackInfo@VValue@v8@@@Nan@@@Z 0000000180005990 f   image.obj
 0001:00004a30       ?getPixel@LwipImage@@SAXAEBV?$FunctionCallbackInfo@VValue@v8@@@Nan@@@Z 0000000180005a30 f   image.obj
 0001:00004d40       ?buffer@LwipImage@@SAXAEBV?$FunctionCallbackInfo@VValue@v8@@@Nan@@@Z 0000000180005d40 f   image.obj
 0001:00004e20       ?resize@LwipImage@@SAXAEBV?$FunctionCallbackInfo@VValue@v8@@@Nan@@@Z 0000000180005e20 f   image.obj
 0001:00004fa0       ?rotate@LwipImage@@SAXAEBV?$FunctionCallbackInfo@VValue@v8@@@Nan@@@Z 0000000180005fa0 f   image.obj
 0001:000051a0       ?blur@LwipImage@@SAXAEBV?$FunctionCallbackInfo@VValue@v8@@@Nan@@@Z 00000001800061a0 f   image.obj
 0001:000052d0       ?crop@LwipImage@@SAXAEBV?$FunctionCallbackInfo@VValue@v8@@@Nan@@@Z 00000001800062d0 f   image.obj
 0001:00005520       ?mirror@LwipImage@@SAXAEBV?$FunctionCallbackInfo@VValue@v8@@@Nan@@@Z 0000000180006520 f   image.obj
 0001:00005670       ?pad@LwipImage@@SAXAEBV?$FunctionCallbackInfo@VValue@v8@@@Nan@@@Z 0000000180006670 f   image.obj
 0001:00005980       ?sharpen@LwipImage@@SAXAEBV?$FunctionCallbackInfo@VValue@v8@@@Nan@@@Z 0000000180006980 f   image.obj
 0001:00005ab0       ?hslaAdj@LwipImage@@SAXAEBV?$FunctionCallbackInfo@VValue@v8@@@Nan@@@Z 0000000180006ab0 f   image.obj
 0001:00005cb0       ?opacify@LwipImage@@SAXAEBV?$FunctionCallbackInfo@VValue@v8@@@Nan@@@Z 0000000180006cb0 f   image.obj
 0001:00005da0       ?paste@LwipImage@@SAXAEBV?$FunctionCallbackInfo@VValue@v8@@@Nan@@@Z 0000000180006da0 f   image.obj
 0001:00006000       ?setPixel@LwipImage@@SAXAEBV?$FunctionCallbackInfo@VValue@v8@@@Nan@@@Z 0000000180007000 f   image.obj
 0001:00006280       ??0?$CImg@E@cimg_library@@QEAA@QEBEIIII_N@Z 0000000180007280 f i image.obj
 0001:00006320       ?assign@?$CImg@D@cimg_library@@QEAAAEAU12@IIII@Z 0000000180007320 f i image.obj
 0001:00006440       ??0?$CImg@D@cimg_library@@QEAA@IIII@Z 0000000180007440 f i image.obj
 0001:000064b0       ??0?$CImg@E@cimg_library@@QEAA@AEBU01@@Z 00000001800074b0 f i image.obj
 0001:00006560       ??0?$CImg@E@cimg_library@@QEAA@IIII@Z 0000000180007560 f i image.obj
 0001:000065e0       ??$Unwrap@VLwipImage@@@ObjectWrap@node@@SAPEAVLwipImage@@V?$Local@VObject@v8@@@v8@@@Z 00000001800075e0 f i image.obj
 0001:00006660       ?Call_@Callback@Nan@@AEBA?AV?$Local@VValue@v8@@@v8@@PEAVIsolate@4@V?$Local@VObject@v8@@@4@HQEAV34@@Z 0000000180007660 f i resize_worker.obj
 0001:00006730       ??0AsyncWorker@Nan@@QEAA@PEAVCallback@1@@Z 0000000180007730 f i resize_worker.obj
 0001:00006800       ??1AsyncWorker@Nan@@UEAA@XZ 0000000180007800 f i resize_worker.obj
 0001:000068c0       ?WorkComplete@AsyncWorker@Nan@@UEAAXXZ 00000001800078c0 f i resize_worker.obj
 0001:00006960       ?Destroy@AsyncWorker@Nan@@UEAAXXZ 0000000180007960 f i resize_worker.obj
 0001:00006980       ?HandleOKCallback@AsyncWorker@Nan@@MEAAXXZ 0000000180007980 f i resize_worker.obj
 0001:000069e0       ?HandleErrorCallback@AsyncWorker@Nan@@MEAAXXZ 00000001800079e0 f i resize_worker.obj
 0001:00006ac0       ?SetErrorMessage@AsyncWorker@Nan@@IEAAXPEBD@Z 0000000180007ac0 f i resize_worker.obj
 0001:00006b30       ??_GAsyncWorker@Nan@@UEAAPEAXI@Z 0000000180007b30 f i resize_worker.obj
 0001:00006b30       ??_EAsyncWorker@Nan@@UEAAPEAXI@Z 0000000180007b30 f i * CIL library *:* CIL module *
 0001:00006b70       ??_EResizeWorker@@UEAAPEAXI@Z 0000000180007b70 f i * CIL library *:* CIL module *
 0001:00006b70       ??_GResizeWorker@@UEAAPEAXI@Z 0000000180007b70 f i resize_worker.obj
 0001:00006bb0       ?Execute@ResizeWorker@@UEAAXXZ 0000000180007bb0 f   resize_worker.obj
 0001:00006c10       ?HandleOKCallback@SetPixelWorker@@UEAAXXZ 0000000180007c10 f   setpixel_worker.obj
 0001:00006c10       ?HandleOKCallback@MirrorWorker@@UEAAXXZ 0000000180007c10 f   mirror_worker.obj
 0001:00006c10       ?HandleOKCallback@ResizeWorker@@UEAAXXZ 0000000180007c10 f   resize_worker.obj
 0001:00006c10       ?HandleOKCallback@OpacifyWorker@@UEAAXXZ 0000000180007c10 f   opacify_worker.obj
 0001:00006c10       ?HandleOKCallback@RotateWorker@@UEAAXXZ 0000000180007c10 f   rotate_worker.obj
 0001:00006c10       ?HandleOKCallback@BlurWorker@@UEAAXXZ 0000000180007c10 f   blur_worker.obj
 0001:00006c10       ?HandleOKCallback@HSLAWorker@@UEAAXXZ 0000000180007c10 f   hsla_worker.obj
 0001:00006c10       ?HandleOKCallback@SharpenWorker@@UEAAXXZ 0000000180007c10 f   sharpen_worker.obj
 0001:00006c10       ?HandleOKCallback@CropWorker@@UEAAXXZ 0000000180007c10 f   crop_worker.obj
 0001:00006c10       ?HandleOKCallback@PasteWorker@@UEAAXXZ 0000000180007c10 f   paste_worker.obj
 0001:00006c10       ?HandleOKCallback@PadWorker@@UEAAXXZ 0000000180007c10 f   pad_worker.obj
 0001:00006cb0       ?resize@?$CImg@E@cimg_library@@QEAAAEAU12@HHHHHIMMMM@Z 0000000180007cb0 f i resize_worker.obj
 0001:00006f20       ??0?$CImg@K@cimg_library@@QEAA@IIII@Z 0000000180007f20 f i resize_worker.obj
 0001:00006fa0       ?get_resize@?$CImg@E@cimg_library@@QEBA?AU12@HHHHHIMMMM@Z 0000000180007fa0 f i resize_worker.obj
 0001:0000ce80       ?move_to@?$CImg@E@cimg_library@@QEAAAEAU12@AEAU12@@Z 000000018000de80 f i resize_worker.obj
 0001:0000cf40       ?assign@?$CImg@E@cimg_library@@QEAAAEAU12@XZ 000000018000df40 f i resize_worker.obj
 0001:0000cf80       ??0?$CImg@I@cimg_library@@QEAA@IIII@Z 000000018000df80 f i resize_worker.obj
 0001:0000d000       ?draw_image@?$CImg@E@cimg_library@@QEAAAEAU12@HHHHAEBU12@M@Z 000000018000e000 f i resize_worker.obj
 0001:0000d6e0       ?get_crop@?$CImg@E@cimg_library@@QEBA?AU12@HHHHHHHH_N@Z 000000018000e6e0 f i resize_worker.obj
 0001:0000d930       ?_cimg_lanczos@?$CImg@E@cimg_library@@SAMM@Z 000000018000e930 f i resize_worker.obj
 0001:0000d9d0       ??H?$CImg@E@cimg_library@@QEBA?AU01@XZ 000000018000e9d0 f i resize_worker.obj
 0001:0000da00       ?assign@?$CImg@E@cimg_library@@QEAAAEAU12@IIII@Z 000000018000ea00 f i resize_worker.obj
 0001:0000db30       ??0?$CImg@E@cimg_library@@QEAA@IIIIAEBE@Z 000000018000eb30 f i resize_worker.obj
 0001:0000dbf0       ??0?$CImg@M@cimg_library@@QEAA@IIIIAEBM@Z 000000018000ebf0 f i resize_worker.obj
 0001:0000dc90       ??0?$CImg@M@cimg_library@@QEAA@IIII@Z 000000018000ec90 f i resize_worker.obj
 0001:0000dd20       ??0?$CImg@E@cimg_library@@QEAA@AEBU01@_N@Z 000000018000ed20 f i resize_worker.obj
 0001:0000ddc0       ?fill@?$CImg@M@cimg_library@@QEAAAEAU12@AEBM@Z 000000018000edc0 f i resize_worker.obj
 0001:0000dec0       ?assign@?$CImg@E@cimg_library@@QEAAAEAU12@QEBEIIII_N@Z 000000018000eec0 f i resize_worker.obj
 0001:0000e010       ?assign@?$CImg@E@cimg_library@@QEAAAEAU12@QEBEIIII@Z 000000018000f010 f i resize_worker.obj
 0001:0000e180       ??$assign@M@?$CImg@E@cimg_library@@QEAAAEAU01@QEBMIIII@Z 000000018000f180 f i resize_worker.obj
 0001:0000e2a0       ??_ERotateWorker@@UEAAPEAXI@Z 000000018000f2a0 f i * CIL library *:* CIL module *
 0001:0000e2a0       ??_GRotateWorker@@UEAAPEAXI@Z 000000018000f2a0 f i rotate_worker.obj
 0001:0000e2e0       ?Execute@RotateWorker@@UEAAXXZ 000000018000f2e0 f   rotate_worker.obj
 0001:0000e680       ?fillC@?$CImg@E@cimg_library@@QEAAAEAU12@IIIHZZ 000000018000f680 f i rotate_worker.obj
 0001:0000e720       ?get_rotate@?$CImg@E@cimg_library@@QEBA?AU12@MII@Z 000000018000f720 f i rotate_worker.obj
 0001:0000ea60       ?_linear_atXY@?$CImg@E@cimg_library@@QEBAMMMHH@Z 000000018000fa60 f i rotate_worker.obj
 0001:0000eb90       ??_GBlurWorker@@UEAAPEAXI@Z 000000018000fb90 f i blur_worker.obj
 0001:0000eb90       ??_EBlurWorker@@UEAAPEAXI@Z 000000018000fb90 f i * CIL library *:* CIL module *
 0001:0000ebd0       ?Execute@BlurWorker@@UEAAXXZ 000000018000fbd0 f   blur_worker.obj
 0001:0000ec20       ?vanvliet@?$CImg@E@cimg_library@@QEAAAEAU12@MID_N@Z 000000018000fc20 f i blur_worker.obj
 0001:0000f010       ?_cimg_recursive_apply@?$CImg@E@cimg_library@@SAXPEAEQEBNHKI_N@Z 0000000180010010 f i blur_worker.obj
 0001:0000f400       ??_ECropWorker@@UEAAPEAXI@Z 0000000180010400 f i * CIL library *:* CIL module *
 0001:0000f400       ??_GCropWorker@@UEAAPEAXI@Z 0000000180010400 f i crop_worker.obj
 0001:0000f440       ?Execute@CropWorker@@UEAAXXZ 0000000180010440 f   crop_worker.obj
 0001:0000f490       ?crop@?$CImg@E@cimg_library@@QEAAAEAU12@HHHHHHHH_N@Z 0000000180010490 f i crop_worker.obj
 0001:0000f520       ??_GMirrorWorker@@UEAAPEAXI@Z 0000000180010520 f i mirror_worker.obj
 0001:0000f520       ??_EMirrorWorker@@UEAAPEAXI@Z 0000000180010520 f i * CIL library *:* CIL module *
 0001:0000f560       ?Execute@MirrorWorker@@UEAAXXZ 0000000180010560 f   mirror_worker.obj
 0001:0000f710       ??1?$basic_string@DU?$char_traits@D@std@@V?$allocator@D@2@@std@@QEAA@XZ 0000000180010710 f i mirror_worker.obj
 0001:0000f7a0       ?mirror@?$CImg@E@cimg_library@@QEAAAEAU12@D@Z 00000001800107a0 f i mirror_worker.obj
 0001:0000fb50       ?assign@?$basic_string@DU?$char_traits@D@std@@V?$allocator@D@2@@std@@QEAAAEAV12@PEBD_K@Z 0000000180010b50 f i mirror_worker.obj
 0001:0000fc80       ?assign@?$basic_string@DU?$char_traits@D@std@@V?$allocator@D@2@@std@@QEAAAEAV12@AEBV12@_K1@Z 0000000180010c80 f i mirror_worker.obj
 0001:0000fd70       ?append@?$basic_string@DU?$char_traits@D@std@@V?$allocator@D@2@@std@@QEAAAEAV12@PEBD_K@Z 0000000180010d70 f i mirror_worker.obj
 0001:0000fec0       ?append@?$basic_string@DU?$char_traits@D@std@@V?$allocator@D@2@@std@@QEAAAEAV12@AEBV12@_K1@Z 0000000180010ec0 f i mirror_worker.obj
 0001:0000fff0       ?_Grow@?$basic_string@DU?$char_traits@D@std@@V?$allocator@D@2@@std@@QEAA_N_K_N@Z 0000000180010ff0 f i mirror_worker.obj
 0001:00010060       ?erase@?$basic_string@DU?$char_traits@D@std@@V?$allocator@D@2@@std@@QEAAAEAV12@_K0@Z 0000000180011060 f i mirror_worker.obj
 0001:00010110       ?_Copy@?$basic_string@DU?$char_traits@D@std@@V?$allocator@D@2@@std@@QEAAX_K0@Z 0000000180011110 f i mirror_worker.obj
 0001:00010240       ?allocate@?$_Wrap_alloc@V?$allocator@D@std@@@std@@QEAAPEAD_K@Z 0000000180011240 f i mirror_worker.obj
 0001:000102b0       ??_EPadWorker@@UEAAPEAXI@Z 00000001800112b0 f i * CIL library *:* CIL module *
 0001:000102b0       ??_GPadWorker@@UEAAPEAXI@Z 00000001800112b0 f i pad_worker.obj
 0001:000102f0       ?Execute@PadWorker@@UEAAXXZ 00000001800112f0 f   pad_worker.obj
 0001:00010690       ??_GSharpenWorker@@UEAAPEAXI@Z 0000000180011690 f i sharpen_worker.obj
 0001:00010690       ??_ESharpenWorker@@UEAAPEAXI@Z 0000000180011690 f i * CIL library *:* CIL module *
 0001:000106d0       ?Execute@SharpenWorker@@UEAAXXZ 00000001800116d0 f   sharpen_worker.obj
 0001:00010700       ?sharpen@?$CImg@E@cimg_library@@QEAAAEAU12@M_NMMM@Z 0000000180011700 f i sharpen_worker.obj
 0001:00010f00       ?max@?$CImg@M@cimg_library@@QEAAAEAMXZ 0000000180011f00 f i sharpen_worker.obj
 0001:00011060       ??$?YE@?$CImg@M@cimg_library@@QEAAAEAU01@AEBU?$CImg@E@1@@Z 0000000180012060 f i sharpen_worker.obj
 0001:00011300       ??_GHSLAWorker@@UEAAPEAXI@Z 0000000180012300 f i hsla_worker.obj
 0001:00011300       ??_EHSLAWorker@@UEAAPEAXI@Z 0000000180012300 f i * CIL library *:* CIL module *
 0001:00011340       ?Execute@HSLAWorker@@UEAAXXZ 0000000180012340 f   hsla_worker.obj
 0001:00011670       ?rgb_to_hsl@@YAXEEEPEAM00@Z 0000000180012670 f   hsla_worker.obj
 0001:000117f0       ?hsl_to_rgb@@YAXMMMPEAE00@Z 00000001800127f0 f   hsla_worker.obj
 0001:00011a50       ??_EOpacifyWorker@@UEAAPEAXI@Z 0000000180012a50 f i * CIL library *:* CIL module *
 0001:00011a50       ??_GOpacifyWorker@@UEAAPEAXI@Z 0000000180012a50 f i opacify_worker.obj
 0001:00011a90       ?Execute@OpacifyWorker@@UEAAXXZ 0000000180012a90 f   opacify_worker.obj
 0001:00011b80       ??0PasteWorker@@QEAA@_K0AEAV?$Local@VObject@v8@@@v8@@00PEAU?$CImg@E@cimg_library@@PEAVCallback@Nan@@@Z 0000000180012b80 f   paste_worker.obj
 0001:00011cd0       ??_EPasteWorker@@UEAAPEAXI@Z 0000000180012cd0 f i * CIL library *:* CIL module *
 0001:00011cd0       ??_GPasteWorker@@UEAAPEAXI@Z 0000000180012cd0 f i paste_worker.obj
 0001:00011d10       ?Execute@PasteWorker@@UEAAXXZ 0000000180012d10 f   paste_worker.obj
 0001:00012040       ??_GSetPixelWorker@@UEAAPEAXI@Z 0000000180013040 f i setpixel_worker.obj
 0001:00012040       ??_ESetPixelWorker@@UEAAPEAXI@Z 0000000180013040 f i * CIL library *:* CIL module *
 0001:00012080       ?Execute@SetPixelWorker@@UEAAXXZ 0000000180013080 f   setpixel_worker.obj
 0001:0001212c       __imp_load_node_module_register 000000018001312c f   node:node.exe
 0001:00012138       __tailMerge_node_exe       0000000180013138 f i node:node.exe
 0001:000121b1       __imp_load_uv_queue_work   00000001800131b1 f   node:node.exe
 0001:000121bd       __imp_load_?Value@External@v8@@QEBAPEAXXZ 00000001800131bd f   node:node.exe
 0001:000121c9       __imp_load_?New@External@v8@@SA?AV?$Local@VExternal@v8@@@2@PEAVIsolate@2@PEAX@Z 00000001800131c9 f   node:node.exe
 0001:000121d5       __imp_load_?Value@Integer@v8@@QEBA_JXZ 00000001800131d5 f   node:node.exe
 0001:000121e1       __imp_load_?New@Integer@v8@@SA?AV?$Local@VInteger@v8@@@2@PEAVIsolate@2@H@Z 00000001800131e1 f   node:node.exe
 0001:000121ed       __imp_load_?New@Signature@v8@@SA?AV?$Local@VSignature@v8@@@2@PEAVIsolate@2@V?$Local@VFunctionTemplate@v8@@@2@@Z 00000001800131ed f   node:node.exe
 0001:000121f9       __imp_load_?GetCurrentContext@Isolate@v8@@QEAA?AV?$Local@VContext@v8@@@2@XZ 00000001800131f9 f   node:node.exe
 0001:00012205       __imp_load_?GetCurrent@Isolate@v8@@SAPEAV12@XZ 0000000180013205 f   node:node.exe
 0001:00012211       __imp_load_?CreateHandle@HandleScope@v8@@KAPEAPEAVObject@internal@2@PEAVIsolate@42@PEAV342@@Z 0000000180013211 f   node:node.exe
 0001:0001221d       __imp_load_?CreateHandle@HandleScope@v8@@CAPEAPEAVObject@internal@2@PEAVHeapObject@42@PEAV342@@Z 000000018001321d f   node:node.exe
 0001:00012229       __imp_load_??1HandleScope@v8@@QEAA@XZ 0000000180013229 f   node:node.exe
 0001:00012235       __imp_load_??0HandleScope@v8@@QEAA@PEAVIsolate@1@@Z 0000000180013235 f   node:node.exe
 0001:00012241       __imp_load_?Set@Template@v8@@QEAAXV?$Local@VName@v8@@@2@V?$Local@VData@v8@@@2@W4PropertyAttribute@2@@Z 0000000180013241 f   node:node.exe
 0001:0001224d       __imp_load_?New@Array@v8@@SA?AV?$Local@VArray@v8@@@2@PEAVIsolate@2@H@Z 000000018001324d f   node:node.exe
 0001:00012259       __imp_load_?SetClassName@FunctionTemplate@v8@@QEAAXV?$Local@VString@v8@@@2@@Z 0000000180013259 f   node:node.exe
 0001:00012265       __imp_load_?PrototypeTemplate@FunctionTemplate@v8@@QEAA?AV?$Local@VObjectTemplate@v8@@@2@XZ 0000000180013265 f   node:node.exe
 0001:00012271       __imp_load_?InstanceTemplate@FunctionTemplate@v8@@QEAA?AV?$Local@VObjectTemplate@v8@@@2@XZ 0000000180013271 f   node:node.exe
 0001:0001227d       __imp_load_?GetFunction@FunctionTemplate@v8@@QEAA?AV?$Local@VFunction@v8@@@2@XZ 000000018001327d f   node:node.exe
 0001:00012289       __imp_load_?GetFunction@FunctionTemplate@v8@@QEAA?AV?$MaybeLocal@VFunction@v8@@@2@V?$Local@VContext@v8@@@2@@Z 0000000180013289 f   node:node.exe
 0001:00012295       __imp_load_?New@FunctionTemplate@v8@@SA?AV?$Local@VFunctionTemplate@v8@@@2@PEAVIsolate@2@P6AXAEBV?$FunctionCallbackInfo@VValue@v8@@@2@@ZV?$Local@VValue@v8@@@2@V?$Local@VSignature@v8@@@2@H@Z 0000000180013295 f   node:node.exe
 0001:000122a1       __imp_load_?ToLocalEmpty@V8@v8@@CAXXZ 00000001800132a1 f   node:node.exe
 0001:000122ad       __imp_load_?ClearWeak@V8@v8@@CAPEAXPEAPEAVObject@internal@2@@Z 00000001800132ad f   node:node.exe
 0001:000122b9       __imp_load_?MakeWeak@V8@v8@@CAXPEAPEAVObject@internal@2@PEAXP6AXAEBV?$WeakCallbackData@VValue@v8@@X@2@@Z@Z 00000001800132b9 f   node:node.exe
 0001:000122c5       __imp_load_?DisposeGlobal@V8@v8@@CAXPEAPEAVObject@internal@2@@Z 00000001800132c5 f   node:node.exe
 0001:000122d1       __imp_load_?GlobalizeReference@V8@v8@@CAPEAPEAVObject@internal@2@PEAVIsolate@42@PEAPEAV342@@Z 00000001800132d1 f   node:node.exe
 0001:000122dd       __imp_load_?NumberValue@Value@v8@@QEBANXZ 00000001800132dd f   node:node.exe
 0001:000122e9       __imp_load_?BooleanValue@Value@v8@@QEBA_NXZ 00000001800132e9 f   node:node.exe
 0001:000122f5       __imp_load_?ToInt32@Value@v8@@QEBA?AV?$MaybeLocal@VInt32@v8@@@2@V?$Local@VContext@v8@@@2@@Z 00000001800132f5 f   node:node.exe
 0001:00012301       __imp_load_?Escape@EscapableHandleScope@v8@@AEAAPEAPEAVObject@internal@2@PEAPEAV342@@Z 0000000180013301 f   node:node.exe
 0001:0001230d       __imp_load_??0EscapableHandleScope@v8@@QEAA@PEAVIsolate@1@@Z 000000018001330d f   node:node.exe
 0001:00012319       __imp_load_?NewFromUtf8@String@v8@@SA?AV?$MaybeLocal@VString@v8@@@2@PEAVIsolate@2@PEBDW4NewStringType@2@H@Z 0000000180013319 f   node:node.exe
 0001:00012325       __imp_load_?New@Number@v8@@SA?AV?$Local@VNumber@v8@@@2@PEAVIsolate@2@N@Z 0000000180013325 f   node:node.exe
 0001:00012331       __imp_load_?Value@Number@v8@@QEBANXZ 0000000180013331 f   node:node.exe
 0001:0001233d       __imp_load_?SlowGetAlignedPointerFromInternalField@Object@v8@@AEAAPEAXH@Z 000000018001333d f   node:node.exe
 0001:00012349       __imp_load_?SlowGetInternalField@Object@v8@@AEAA?AV?$Local@VValue@v8@@@2@H@Z 0000000180013349 f   node:node.exe
 0001:00012355       __imp_load_?New@Object@v8@@SA?AV?$Local@VObject@v8@@@2@PEAVIsolate@2@@Z 0000000180013355 f   node:node.exe
 0001:00012361       __imp_load_?SetAlignedPointerInInternalField@Object@v8@@QEAAXHPEAX@Z 0000000180013361 f   node:node.exe
 0001:0001236d       __imp_load_?SetInternalField@Object@v8@@QEAAXHV?$Local@VValue@v8@@@2@@Z 000000018001336d f   node:node.exe
 0001:00012379       __imp_load_?InternalFieldCount@Object@v8@@QEAAHXZ 0000000180013379 f   node:node.exe
 0001:00012385       __imp_load_?Set@Object@v8@@QEAA_NV?$Local@VValue@v8@@@2@0@Z 0000000180013385 f   node:node.exe
 0001:00012391       __imp_load_?Set@Object@v8@@QEAA_NIV?$Local@VValue@v8@@@2@@Z 0000000180013391 f   node:node.exe
 0001:0001239d       __imp_load_?Set@Object@v8@@QEAA?AV?$Maybe@_N@2@V?$Local@VContext@v8@@@2@IV?$Local@VValue@v8@@@2@@Z 000000018001339d f   node:node.exe
 0001:000123a9       __imp_load_?SetName@Function@v8@@QEAAXV?$Local@VString@v8@@@2@@Z 00000001800133a9 f   node:node.exe
 0001:000123b5       __imp_load_?SetInternalFieldCount@ObjectTemplate@v8@@QEAAXH@Z 00000001800133b5 f   node:node.exe
 0001:000123c1       __imp_load_?NewInstance@ObjectTemplate@v8@@QEAA?AV?$MaybeLocal@VObject@v8@@@2@V?$Local@VContext@v8@@@2@@Z 00000001800133c1 f   node:node.exe
 0001:000123cd       __imp_load_?New@ObjectTemplate@v8@@SA?AV?$Local@VObjectTemplate@v8@@@2@PEAVIsolate@2@V?$Local@VFunctionTemplate@v8@@@2@@Z 00000001800133cd f   node:node.exe
 0001:000123d9       __imp_load_?Data@Buffer@node@@YAPEADV?$Local@VObject@v8@@@v8@@@Z 00000001800133d9 f   node:node.exe
 0001:000123e5       __imp_load_?Copy@Buffer@node@@YA?AV?$MaybeLocal@VObject@v8@@@v8@@PEAVIsolate@4@PEBD_K@Z 00000001800133e5 f   node:node.exe
 0001:000123f1       __imp_load_uv_default_loop 00000001800133f1 f   node:node.exe
 0001:000123fd       __imp_load_??1EscapableHandleScope@v8@@QEAA@XZ 00000001800133fd f   node:node.exe
 0001:00012409       __imp_load_?Global@Context@v8@@QEAA?AV?$Local@VObject@v8@@@2@XZ 0000000180013409 f   node:node.exe
 0001:00012415       __imp_load_?Error@Exception@v8@@SA?AV?$Local@VValue@v8@@@2@V?$Local@VString@v8@@@2@@Z 0000000180013415 f   node:node.exe
 0001:00012421       __imp_load_?Get@Object@v8@@QEAA?AV?$Local@VValue@v8@@@2@I@Z 0000000180013421 f   node:node.exe
 0001:0001242d       __imp_load_?MakeCallback@node@@YA?AV?$Local@VValue@v8@@@v8@@PEAVIsolate@3@V?$Local@VObject@v8@@@3@V?$Local@VFunction@v8@@@3@HPEAV23@@Z 000000018001342d f   node:node.exe
 0001:0001243c       ??0bad_alloc@std@@QEAA@AEBV01@@Z 000000018001343c f i libcpmt:xthrow.obj
 0001:0001247c       ??0bad_alloc@std@@QEAA@XZ  000000018001347c f i libcpmt:xthrow.obj
 0001:0001249c       ??0exception@std@@QEAA@AEBV01@@Z 000000018001349c f i libcpmt:xthrow.obj
 0001:000124d4       ??0length_error@std@@QEAA@AEBV01@@Z 00000001800134d4 f i libcpmt:xthrow.obj
 0001:00012514       ??0length_error@std@@QEAA@PEBD@Z 0000000180013514 f i libcpmt:xthrow.obj
 0001:00012560       ??0logic_error@std@@QEAA@AEBV01@@Z 0000000180013560 f i libcpmt:xthrow.obj
 0001:000125a0       ??0out_of_range@std@@QEAA@AEBV01@@Z 00000001800135a0 f i libcpmt:xthrow.obj
 0001:000125e0       ??0out_of_range@std@@QEAA@PEBD@Z 00000001800135e0 f i libcpmt:xthrow.obj
 0001:0001262c       ??1bad_exception@std@@UEAA@XZ 000000018001362c f i libvcruntime:frame.obj
 0001:0001262c       ??1out_of_range@std@@UEAA@XZ 000000018001362c f i libcpmt:xthrow.obj
 0001:0001262c       ??1bad_alloc@std@@UEAA@XZ  000000018001362c f i libcpmt:xthrow.obj
 0001:0001262c       ??1bad_array_new_length@std@@UEAA@XZ 000000018001362c f i LIBCMT:throw_bad_alloc.obj
 0001:0001262c       ??1length_error@std@@UEAA@XZ 000000018001362c f i libcpmt:xthrow.obj
 0001:00012640       ?__scrt_throw_std_bad_alloc@@YAXXZ 0000000180013640 f   LIBCMT:throw_bad_alloc.obj
 0001:00012640       ?_Xbad_alloc@std@@YAXXZ    0000000180013640 f   libcpmt:xthrow.obj
 0001:00012660       ?_Xlength_error@std@@YAXPEBD@Z 0000000180013660 f   libcpmt:xthrow.obj
 0001:00012684       ?_Xout_of_range@std@@YAXPEBD@Z 0000000180013684 f   libcpmt:xthrow.obj
 0001:000126a8       ?what@exception@std@@UEBAPEBDXZ 00000001800136a8 f i libcpmt:xthrow.obj
 0001:000126d0       __security_check_cookie    00000001800136d0 f   LIBCMT:_amdsecgs_.obj
 0001:000126f4       ??3@YAXPEAX_K@Z            00000001800136f4 f   LIBCMT:delete_scalar_size.obj
 0001:000126f4       ??_V@YAXPEAX@Z             00000001800136f4 f   LIBCMT:delete_array.obj
 0001:00012844       _Init_thread_footer        0000000180013844 f   LIBCMT:thread_safe_statics.obj
 0001:000128a4       _Init_thread_header        00000001800138a4 f   LIBCMT:thread_safe_statics.obj
 0001:0001290c       _Init_thread_notify        000000018001390c f   LIBCMT:thread_safe_statics.obj
 0001:00012968       _Init_thread_wait          0000000180013968 f   LIBCMT:thread_safe_statics.obj
 0001:00012a00       ??2@YAPEAX_K@Z             0000000180013a00 f   LIBCMT:new_scalar.obj
 0001:00012a3c       __scrt_acquire_startup_lock 0000000180013a3c f   LIBCMT:utility.obj
 0001:00012a78       __scrt_dllmain_after_initialize_c 0000000180013a78 f   LIBCMT:utility.obj
 0001:00012a98       __scrt_dllmain_before_initialize_c 0000000180013a98 f   LIBCMT:utility.obj
 0001:00012ab0       __scrt_dllmain_crt_thread_attach 0000000180013ab0 f   LIBCMT:utility.obj
 0001:00012ad8       __scrt_dllmain_crt_thread_detach 0000000180013ad8 f   LIBCMT:utility.obj
 0001:00012af0       __scrt_dllmain_exception_filter 0000000180013af0 f   LIBCMT:utility.obj
 0001:00012b54       __scrt_dllmain_uninitialize_c 0000000180013b54 f   LIBCMT:utility.obj
 0001:00012b84       __scrt_dllmain_uninitialize_critical 0000000180013b84 f   LIBCMT:utility.obj
 0001:00012b98       __scrt_initialize_crt      0000000180013b98 f   LIBCMT:utility.obj
 0001:00012be4       __scrt_initialize_onexit_tables 0000000180013be4 f   LIBCMT:utility.obj
 0001:00012cb0       __scrt_is_nonwritable_in_current_image 0000000180013cb0 f   LIBCMT:utility.obj
 0001:00012d4c       __scrt_release_startup_lock 0000000180013d4c f   LIBCMT:utility.obj
 0001:00012d70       __scrt_uninitialize_crt    0000000180013d70 f   LIBCMT:utility.obj
 0001:00012d9c       _onexit                    0000000180013d9c f   LIBCMT:utility.obj
 0001:00012dec       atexit                     0000000180013dec f   LIBCMT:utility.obj
 0001:00012e04       ??_U@YAPEAX_K@Z            0000000180013e04 f   LIBCMT:new_array.obj
 0001:00012e0c       ??_Gtype_info@@UEAAPEAXI@Z 0000000180013e0c f i LIBCMT:std_type_info_static.obj
 0001:00012e0c       ??_Etype_info@@UEAAPEAXI@Z 0000000180013e0c f i LIBCMT:std_type_info_static.obj
 0001:00012e38       ??3@YAXPEAX@Z              0000000180013e38 f   LIBCMT:delete_scalar.obj
 0001:0001319c       _DllMainCRTStartup         000000018001419c f   LIBCMT:dll_dllmain.obj
 0001:000131dc       __raise_securityfailure    00000001800141dc f   LIBCMT:gs_report.obj
 0001:00013210       __report_gsfailure         0000000180014210 f   LIBCMT:gs_report.obj
 0001:00013358       _guard_check_icall         0000000180014358 f i LIBCMT:checkcfg.obj
 0001:00013360       __crt_debugger_hook        0000000180014360 f   LIBCMT:utility_desktop.obj
 0001:00013368       __scrt_fastfail            0000000180014368 f   LIBCMT:utility_desktop.obj
 0001:000134b0       ??0bad_array_new_length@std@@QEAA@AEBV01@@Z 00000001800144b0 f i LIBCMT:throw_bad_alloc.obj
 0001:000134f0       ??0bad_array_new_length@std@@QEAA@XZ 00000001800144f0 f i LIBCMT:throw_bad_alloc.obj
 0001:00013510       ?__scrt_throw_std_bad_array_new_length@@YAXXZ 0000000180014510 f   LIBCMT:throw_bad_alloc.obj
 0001:00013530       __isa_available_init       0000000180014530 f   LIBCMT:_cpu_disp_.obj
 0001:000136f4       __scrt_is_ucrt_dll_in_use  00000001800146f4 f   LIBCMT:ucrt_detection.obj
 0001:00013700       __security_init_cookie     0000000180014700 f   LIBCMT:gs_support.obj
 0001:000137ac       DllMain                    00000001800147ac f   LIBCMT:dll_dllmain_stub.obj
 0001:000137b4       ?__scrt_initialize_type_info@@YAXXZ 00000001800147b4 f   LIBCMT:tncleanup.obj
 0001:000137c4       ?__scrt_uninitialize_type_info@@YAXXZ 00000001800147c4 f   LIBCMT:tncleanup.obj
 0001:000137d0       __local_stdio_scanf_options 00000001800147d0 f i LIBCMT:default_local_stdio_options.obj
 0001:000137d8       __scrt_initialize_default_local_stdio_options 00000001800147d8 f   LIBCMT:default_local_stdio_options.obj
 0001:000137f4       __scrt_get_dyn_tls_init_callback 00000001800147f4 f   LIBCMT:dyn_tls_init.obj
 0001:000137fc       _RTC_Initialize            00000001800147fc f   LIBCMT:_initsect_.obj
 0001:00013848       _RTC_Terminate             0000000180014848 f   LIBCMT:_initsect_.obj
 0001:000138a0       __DestructExceptionObject  00000001800148a0 f   libvcruntime:frame.obj
 0001:00013928       ??0bad_exception@std@@QEAA@AEBV01@@Z 0000000180014928 f i libvcruntime:frame.obj
 0001:00013968       ??0bad_exception@std@@QEAA@XZ 0000000180014968 f i libvcruntime:frame.obj
 0001:00013988       ??_Eexception@std@@UEAAPEAXI@Z 0000000180014988 f i libcpmt:xthrow.obj
 0001:00013988       ??_Gbad_alloc@std@@UEAAPEAXI@Z 0000000180014988 f i libcpmt:xthrow.obj
 0001:00013988       ??_Ebad_alloc@std@@UEAAPEAXI@Z 0000000180014988 f i libcpmt:xthrow.obj
 0001:00013988       ??_Gexception@std@@UEAAPEAXI@Z 0000000180014988 f i libcpmt:xthrow.obj
 0001:00013988       ??_Gbad_array_new_length@std@@UEAAPEAXI@Z 0000000180014988 f i LIBCMT:throw_bad_alloc.obj
 0001:00013988       ??_Ebad_array_new_length@std@@UEAAPEAXI@Z 0000000180014988 f i LIBCMT:throw_bad_alloc.obj
 0001:00013988       ??_Ebad_exception@std@@UEAAPEAXI@Z 0000000180014988 f i libvcruntime:frame.obj
 0001:00013988       ??_Elength_error@std@@UEAAPEAXI@Z 0000000180014988 f i libcpmt:xthrow.obj
 0001:00013988       ??_Eout_of_range@std@@UEAAPEAXI@Z 0000000180014988 f i libcpmt:xthrow.obj
 0001:00013988       ??_Glogic_error@std@@UEAAPEAXI@Z 0000000180014988 f i libcpmt:xthrow.obj
 0001:00013988       ??_Gout_of_range@std@@UEAAPEAXI@Z 0000000180014988 f i libcpmt:xthrow.obj
 0001:00013988       ??_Elogic_error@std@@UEAAPEAXI@Z 0000000180014988 f i libcpmt:xthrow.obj
 0001:00013988       ??_Glength_error@std@@UEAAPEAXI@Z 0000000180014988 f i libcpmt:xthrow.obj
 0001:00013988       ??_Gbad_exception@std@@UEAAPEAXI@Z 0000000180014988 f i libvcruntime:frame.obj
 0001:000142f4       ?_CallMemberFunction0@@YAXPEAXP6AX0@Z@Z 00000001800152f4 f i libvcruntime:frame.obj
 0001:000142f8       ?_CallMemberFunction1@@YAXPEAXP6AX0@Z0@Z 00000001800152f8 f i libvcruntime:frame.obj
 0001:00014304       ?_CallMemberFunction2@@YAXPEAXP6AX0@Z0H@Z 0000000180015304 f i libvcruntime:frame.obj
 0001:00014314       __AdjustPointer            0000000180015314 f   libvcruntime:frame.obj
 0001:00014338       __BuildCatchObject         0000000180015338 f   libvcruntime:frame.obj
 0001:00014400       __BuildCatchObjectHelper   0000000180015400 f   libvcruntime:frame.obj
 0001:000145e4       __CxxCallCatchBlock        00000001800155e4 f   libvcruntime:frame.obj
 0001:000147d0       __FrameUnwindFilter        00000001800157d0 f   libvcruntime:frame.obj
 0001:0001481c       __FrameUnwindToState       000000018001581c f   libvcruntime:frame.obj
 0001:000149b0       __InternalCxxFrameHandler  00000001800159b0 f   libvcruntime:frame.obj
 0001:00014c08       __TypeMatch                0000000180015c08 f   libvcruntime:frame.obj
 0001:00014d48       __std_terminate            0000000180015d48 f   libvcruntime:frame.obj
 0001:00014d70       memmove                    0000000180015d70 f   libvcruntime:memcpy.obj
 0001:00014d70       memcpy                     0000000180015d70 f   libvcruntime:memcpy.obj
 0001:000151a8       _purecall                  00000001800161a8 f   libvcruntime:purevirt.obj
 0001:000151e4       __std_exception_copy       00000001800161e4 f   libvcruntime:std_exception.obj
 0001:00015274       __std_exception_destroy    0000000180016274 f   libvcruntime:std_exception.obj
 0001:0001529c       _CxxThrowException         000000018001629c f   libvcruntime:throw.obj
 0001:00015374       __C_specific_handler       0000000180016374 f   libvcruntime:_chandler_.obj
 0001:0001572c       __vcrt_EventRegister       000000018001672c f   libvcruntime:winapi_downlevel.obj
 0001:000157b0       __vcrt_EventSetInformation 00000001800167b0 f   libvcruntime:winapi_downlevel.obj
 0001:00015834       __vcrt_EventUnregister     0000000180016834 f   libvcruntime:winapi_downlevel.obj
 0001:00015888       __vcrt_EventWriteTransfer  0000000180016888 f   libvcruntime:winapi_downlevel.obj
 0001:00015920       __vcrt_FlsAlloc            0000000180016920 f   libvcruntime:winapi_downlevel.obj
 0001:00015974       __vcrt_FlsFree             0000000180016974 f   libvcruntime:winapi_downlevel.obj
 0001:000159c8       __vcrt_FlsGetValue         00000001800169c8 f   libvcruntime:winapi_downlevel.obj
 0001:00015a1c       __vcrt_FlsSetValue         0000000180016a1c f   libvcruntime:winapi_downlevel.obj
 0001:00015a84       __vcrt_InitializeCriticalSectionEx 0000000180016a84 f   libvcruntime:winapi_downlevel.obj
 0001:00015afc       __vcrt_initialize_winapi_thunks 0000000180016afc f   libvcruntime:winapi_downlevel.obj
 0001:00015b34       __vcrt_uninitialize_winapi_thunks 0000000180016b34 f   libvcruntime:winapi_downlevel.obj
 0001:00015b74       __vcrt_initialize          0000000180016b74 f   libvcruntime:initialization.obj
 0001:00015bac       __vcrt_thread_attach       0000000180016bac f   libvcruntime:initialization.obj
 0001:00015bc0       __vcrt_thread_detach       0000000180016bc0 f   libvcruntime:initialization.obj
 0001:00015bd4       __vcrt_uninitialize        0000000180016bd4 f   libvcruntime:initialization.obj
 0001:00015c00       __vcrt_uninitialize_critical 0000000180016c00 f   libvcruntime:initialization.obj
 0001:00015c14       __telemetry_main_invoke_trigger 0000000180016c14 f   libvcruntime:telemetry.obj
 0001:00015d2c       __telemetry_main_return_trigger 0000000180016d2c f   libvcruntime:telemetry.obj
 0001:00015e44       __vcrt_initialize_telemetry_provider 0000000180016e44 f   libvcruntime:telemetry.obj
 0001:00015e58       __vcrt_uninitialize_telemetry_provider 0000000180016e58 f   libvcruntime:telemetry.obj
 0001:00015e90       memset                     0000000180016e90 f   libvcruntime:memset.obj
 0001:00016030       __std_type_info_compare    0000000180017030 f   libvcruntime:std_type_info.obj
 0001:00016058       __std_type_info_destroy_list 0000000180017058 f   libvcruntime:std_type_info.obj
 0001:00016084       __vcrt_freefls             0000000180017084 f   libvcruntime:per_thread_data.obj
 0001:000160a4       __vcrt_freeptd             00000001800170a4 f   libvcruntime:per_thread_data.obj
 0001:000160f4       __vcrt_getptd              00000001800170f4 f   libvcruntime:per_thread_data.obj
 0001:00016110       __vcrt_getptd_noexit       0000000180017110 f   libvcruntime:per_thread_data.obj
 0001:000161b8       __vcrt_initialize_ptd      00000001800171b8 f   libvcruntime:per_thread_data.obj
 0001:000161f8       __vcrt_uninitialize_ptd    00000001800171f8 f   libvcruntime:per_thread_data.obj
 0001:0001621c       ?__GetCurrentState@@YAHPEA_KPEAU_xDISPATCHER_CONTEXT@@PEBU_s_FuncInfo@@@Z 000000018001721c f   libvcruntime:ehstate.obj
 0001:00016244       ?__GetUnwindTryBlock@@YAHPEA_KPEAU_xDISPATCHER_CONTEXT@@PEBU_s_FuncInfo@@@Z 0000000180017244 f   libvcruntime:ehstate.obj
 0001:00016270       ?__SetState@@YAXPEA_KPEAU_xDISPATCHER_CONTEXT@@PEBU_s_FuncInfo@@H@Z 0000000180017270 f   libvcruntime:ehstate.obj
 0001:0001627c       ?__SetUnwindTryBlock@@YAXPEA_KPEAU_xDISPATCHER_CONTEXT@@PEBU_s_FuncInfo@@H@Z 000000018001727c f   libvcruntime:ehstate.obj
 0001:000162b8       ?__StateFromControlPc@@YAHPEBU_s_FuncInfo@@PEAU_xDISPATCHER_CONTEXT@@@Z 00000001800172b8 f   libvcruntime:ehstate.obj
 0001:000162c0       ?__StateFromIp@@YAHPEBU_s_FuncInfo@@PEAU_xDISPATCHER_CONTEXT@@_J@Z 00000001800172c0 f   libvcruntime:ehstate.obj
 0001:00016340       _CallSettingFrame          0000000180017340 f   libvcruntime:handlers.obj
 0001:00016380       ?_GetEstablisherFrame@@YAPEA_KPEA_KPEAU_xDISPATCHER_CONTEXT@@PEBU_s_FuncInfo@@0@Z 0000000180017380 f   libvcruntime:trnsctrl.obj
 0001:0001644c       ?_GetRangeOfTrysToCheck@@YAPEBU_s_TryBlockMapEntry@@PEA_KPEBU_s_FuncInfo@@HHPEAI2PEAU_xDISPATCHER_CONTEXT@@@Z 000000018001744c f   libvcruntime:trnsctrl.obj
 0001:00016578       ?__FrameUnwindToEmptyState@@YAXPEA_KPEAU_xDISPATCHER_CONTEXT@@PEBU_s_FuncInfo@@@Z 0000000180017578 f   libvcruntime:trnsctrl.obj
 0001:0001660c       ?__SehTransFilter@@YAHPEAU_EXCEPTION_POINTERS@@PEAUEHExceptionRecord@@PEA_KPEAU_CONTEXT@@PEAU_xDISPATCHER_CONTEXT@@PEBU_s_FuncInfo@@PEAH@Z 000000018001760c f   libvcruntime:trnsctrl.obj
 0001:000166a4       _CallSETranslator          00000001800176a4 f   libvcruntime:trnsctrl.obj
 0001:000166fc       _CreateFrameInfo           00000001800176fc f   libvcruntime:trnsctrl.obj
 0001:00016738       _FindAndUnlinkFrame        0000000180017738 f   libvcruntime:trnsctrl.obj
 0001:00016790       _GetImageBase              0000000180017790 f   libvcruntime:trnsctrl.obj
 0001:000167a4       _GetThrowImageBase         00000001800177a4 f   libvcruntime:trnsctrl.obj
 0001:000167b8       _IsExceptionObjectToBeDestroyed 00000001800177b8 f   libvcruntime:trnsctrl.obj
 0001:000167e8       _SetImageBase              00000001800177e8 f   libvcruntime:trnsctrl.obj
 0001:00016800       _SetThrowImageBase         0000000180017800 f   libvcruntime:trnsctrl.obj
 0001:00016818       _UnwindNestedFrames        0000000180017818 f   libvcruntime:trnsctrl.obj
 0001:0001693c       __CxxFrameHandler3         000000018001793c f   libvcruntime:trnsctrl.obj
 0001:000169d0       _local_unwind              00000001800179d0 f   libvcruntime:_jmpuwind_.obj
 0001:00016a00       _NLG_Notify                0000000180017a00 f   libvcruntime:_jmpuwind_.obj
 0001:00016a20       __NLG_Dispatch2            0000000180017a20 f   libvcruntime:_jmpuwind_.obj
 0001:00016a30       __NLG_Return2              0000000180017a30 f   libvcruntime:_jmpuwind_.obj
 0001:00016a34       __vcrt_initialize_pure_virtual_call_handler 0000000180017a34 f   libvcruntime:purevirt_data.obj
 0001:00016a58       __vcrt_initialize_locks    0000000180017a58 f   libvcruntime:locks.obj
 0001:00016aa0       __vcrt_uninitialize_locks  0000000180017aa0 f   libvcruntime:locks.obj
 0001:00016ad8       rand                       0000000180017ad8 f   libucrt:rand.obj
 0001:00016b04       srand                      0000000180017b04 f   libucrt:rand.obj
 0001:00016bec       fopen                      0000000180017bec f   libucrt:fopen.obj
 0001:00016bf8       __acrt_initialize_stdio    0000000180017bf8 f   libucrt:_file.obj
 0001:00016d18       __acrt_iob_func            0000000180017d18 f   libucrt:_file.obj
 0001:00016d2c       __acrt_uninitialize_stdio  0000000180017d2c f   libucrt:_file.obj
 0001:00016d88       _lock_file                 0000000180017d88 f   libucrt:_file.obj
 0001:00016d94       _unlock_file               0000000180017d94 f   libucrt:_file.obj
 0001:00016da0       _getpid                    0000000180017da0 f   libucrt:getpid.obj
 0001:00016da8       _fclose_nolock             0000000180017da8 f   libucrt:fclose.obj
 0001:00016e2c       fclose                     0000000180017e2c f   libucrt:fclose.obj
 0001:00016e98       remove                     0000000180017e98 f   libucrt:unlink.obj
 0001:00016ee4       ??$?RV<lambda_7b91131dde12e1c3dfc74ff76b3f2eac>@@AEAV<lambda_dd75445284c072d0bd3768540cc698fa>@@V<lambda_16bc4ecb55b4718497c16bceaea2ceaf>@@@?$__crt_seh_guarded_call@H@@QEAAH$$QEAV<lambda_7b91131dde12e1c3dfc74ff76b3f2eac>@@AEAV<lambda_dd75445284c072d0bd3768540cc698fa>@@$$QEAV<lambda_16bc4ecb55b4718497c16bceaea2ceaf>@@@Z 0000000180017ee4 f i libucrt:output.obj
 0001:00016f24       ??$?RV<lambda_aa279a7bcb127014629d5b1d62c7325d>@@AEAV<lambda_0a64b6a4deda75c01876f29c44fc5eb3>@@V<lambda_3323e69fbefe9d1a11713e670d47cdfa>@@@?$__crt_seh_guarded_call@H@@QEAAH$$QEAV<lambda_aa279a7bcb127014629d5b1d62c7325d>@@AEAV<lambda_0a64b6a4deda75c01876f29c44fc5eb3>@@$$QEAV<lambda_3323e69fbefe9d1a11713e670d47cdfa>@@@Z 0000000180017f24 f i libucrt:output.obj
 0001:0001710c       ??$ensure_buffer_is_big_enough@D@formatting_buffer@__crt_stdio_output@@QEAA_N_K@Z 000000018001810c f i libucrt:output.obj
 0001:000171b8       ??$is_wide_character_specifier@D@__crt_stdio_output@@YA_N_KDW4length_modifier@0@@Z 00000001800181b8 f i libucrt:output.obj
 0001:000171e8       ??$is_wide_character_specifier@_W@__crt_stdio_output@@YA_N_K_WW4length_modifier@0@@Z 00000001800181e8 f i libucrt:output.obj
 0001:0001722c       ??$type_case_integer_parse_into_buffer@I@?$output_processor@_WV?$stream_output_adapter@_W@__crt_stdio_output@@V?$standard_base@_WV?$stream_output_adapter@_W@__crt_stdio_output@@@2@@__crt_stdio_output@@AEAAXII_N@Z 000000018001822c f i libucrt:output.obj
 0001:0001722c       ??$type_case_integer_parse_into_buffer@I@?$output_processor@_WV?$string_output_adapter@_W@__crt_stdio_output@@V?$standard_base@_WV?$string_output_adapter@_W@__crt_stdio_output@@@2@@__crt_stdio_output@@AEAAXII_N@Z 000000018001822c f i libucrt:output.obj
 0001:0001722c       ??$type_case_integer_parse_into_buffer@I@?$output_processor@DV?$stream_output_adapter@D@__crt_stdio_output@@V?$standard_base@DV?$stream_output_adapter@D@__crt_stdio_output@@@2@@__crt_stdio_output@@AEAAXII_N@Z 000000018001822c f i libucrt:output.obj
 0001:0001722c       ??$type_case_integer_parse_into_buffer@I@?$output_processor@DV?$string_output_adapter@D@__crt_stdio_output@@V?$standard_base@DV?$string_output_adapter@D@__crt_stdio_output@@@2@@__crt_stdio_output@@AEAAXII_N@Z 000000018001822c f i libucrt:output.obj
 0001:0001722c       ??$type_case_integer_parse_into_buffer@I@?$output_processor@DV?$string_output_adapter@D@__crt_stdio_output@@V?$format_validation_base@DV?$string_output_adapter@D@__crt_stdio_output@@@2@@__crt_stdio_output@@AEAAXII_N@Z 000000018001822c f i libucrt:output.obj
 0001:000172c8       ??$type_case_integer_parse_into_buffer@_K@?$output_processor@_WV?$string_output_adapter@_W@__crt_stdio_output@@V?$standard_base@_WV?$string_output_adapter@_W@__crt_stdio_output@@@2@@__crt_stdio_output@@AEAAX_KI_N@Z 00000001800182c8 f i libucrt:output.obj
 0001:000172c8       ??$type_case_integer_parse_into_buffer@_K@?$output_processor@DV?$stream_output_adapter@D@__crt_stdio_output@@V?$standard_base@DV?$stream_output_adapter@D@__crt_stdio_output@@@2@@__crt_stdio_output@@AEAAX_KI_N@Z 00000001800182c8 f i libucrt:output.obj
 0001:000172c8       ??$type_case_integer_parse_into_buffer@_K@?$output_processor@DV?$string_output_adapter@D@__crt_stdio_output@@V?$standard_base@DV?$string_output_adapter@D@__crt_stdio_output@@@2@@__crt_stdio_output@@AEAAX_KI_N@Z 00000001800182c8 f i libucrt:output.obj
 0001:000172c8       ??$type_case_integer_parse_into_buffer@_K@?$output_processor@DV?$string_output_adapter@D@__crt_stdio_output@@V?$format_validation_base@DV?$string_output_adapter@D@__crt_stdio_output@@@2@@__crt_stdio_output@@AEAAX_KI_N@Z 00000001800182c8 f i libucrt:output.obj
 0001:000172c8       ??$type_case_integer_parse_into_buffer@_K@?$output_processor@_WV?$stream_output_adapter@_W@__crt_stdio_output@@V?$standard_base@_WV?$stream_output_adapter@_W@__crt_stdio_output@@@2@@__crt_stdio_output@@AEAAX_KI_N@Z 00000001800182c8 f i libucrt:output.obj
 0001:00017364       ??$write_multiple_characters@V?$stream_output_adapter@D@__crt_stdio_output@@D@__crt_stdio_output@@YAXAEBV?$stream_output_adapter@D@0@DHQEAH@Z 0000000180018364 f i libucrt:output.obj
 0001:000173e8       ??$write_multiple_characters@V?$stream_output_adapter@_W@__crt_stdio_output@@D@__crt_stdio_output@@YAXAEBV?$stream_output_adapter@_W@0@DHQEAH@Z 00000001800183e8 f i libucrt:output.obj
 0001:00017478       ??$write_multiple_characters@V?$string_output_adapter@D@__crt_stdio_output@@D@__crt_stdio_output@@YAXAEBV?$string_output_adapter@D@0@DHQEAH@Z 0000000180018478 f i libucrt:output.obj
 0001:000174d4       ??$write_multiple_characters@V?$string_output_adapter@_W@__crt_stdio_output@@D@__crt_stdio_output@@YAXAEBV?$string_output_adapter@_W@0@DHQEAH@Z 00000001800184d4 f i libucrt:output.obj
 0001:00017544       ??0?$output_processor@DV?$string_output_adapter@D@__crt_stdio_output@@V?$format_validation_base@DV?$string_output_adapter@D@__crt_stdio_output@@@2@@__crt_stdio_output@@QEAA@AEBV?$string_output_adapter@D@1@_KQEBDQEAU__crt_locale_pointers@@QEAD@Z 0000000180018544 f i libucrt:output.obj
 0001:00017544       ??0?$output_processor@DV?$string_output_adapter@D@__crt_stdio_output@@V?$standard_base@DV?$string_output_adapter@D@__crt_stdio_output@@@2@@__crt_stdio_output@@QEAA@AEBV?$string_output_adapter@D@1@_KQEBDQEAU__crt_locale_pointers@@QEAD@Z 0000000180018544 f i libucrt:output.obj
 0001:00017544       ??0?$output_processor@DV?$stream_output_adapter@D@__crt_stdio_output@@V?$standard_base@DV?$stream_output_adapter@D@__crt_stdio_output@@@2@@__crt_stdio_output@@QEAA@AEBV?$stream_output_adapter@D@1@_KQEBDQEAU__crt_locale_pointers@@QEAD@Z 0000000180018544 f i libucrt:output.obj
 0001:000175c0       ??0?$output_processor@_WV?$string_output_adapter@_W@__crt_stdio_output@@V?$standard_base@_WV?$string_output_adapter@_W@__crt_stdio_output@@@2@@__crt_stdio_output@@QEAA@AEBV?$string_output_adapter@_W@1@_KQEB_WQEAU__crt_locale_pointers@@QEAD@Z 00000001800185c0 f i libucrt:output.obj
 0001:000175c0       ??0?$output_processor@_WV?$stream_output_adapter@_W@__crt_stdio_output@@V?$standard_base@_WV?$stream_output_adapter@_W@__crt_stdio_output@@@2@@__crt_stdio_output@@QEAA@AEBV?$stream_output_adapter@_W@1@_KQEB_WQEAU__crt_locale_pointers@@QEAD@Z 00000001800185c0 f i libucrt:output.obj
 0001:00017640       ??0_LocaleUpdate@@QEAA@QEAU__crt_locale_pointers@@@Z 0000000180018640 f i libucrt:output.obj
 0001:000178b0       ?force_decimal_point@__crt_stdio_output@@YAXPEADQEAU__crt_locale_pointers@@@Z 00000001800188b0 f i libucrt:output.obj
 0001:00017920       ?parse_int_from_format_string@?$output_processor@DV?$string_output_adapter@D@__crt_stdio_output@@V?$standard_base@DV?$string_output_adapter@D@__crt_stdio_output@@@2@@__crt_stdio_output@@AEAA_NQEAH@Z 0000000180018920 f i libucrt:output.obj
 0001:00017920       ?parse_int_from_format_string@?$output_processor@DV?$stream_output_adapter@D@__crt_stdio_output@@V?$standard_base@DV?$stream_output_adapter@D@__crt_stdio_output@@@2@@__crt_stdio_output@@AEAA_NQEAH@Z 0000000180018920 f i libucrt:output.obj
 0001:00017920       ?parse_int_from_format_string@?$output_processor@DV?$string_output_adapter@D@__crt_stdio_output@@V?$format_validation_base@DV?$string_output_adapter@D@__crt_stdio_output@@@2@@__crt_stdio_output@@AEAA_NQEAH@Z 0000000180018920 f i libucrt:output.obj
 0001:000179a4       ?parse_int_from_format_string@?$output_processor@_WV?$stream_output_adapter@_W@__crt_stdio_output@@V?$standard_base@_WV?$stream_output_adapter@_W@__crt_stdio_output@@@2@@__crt_stdio_output@@AEAA_NQEAH@Z 00000001800189a4 f i libucrt:output.obj
 0001:000179a4       ?parse_int_from_format_string@?$output_processor@_WV?$string_output_adapter@_W@__crt_stdio_output@@V?$standard_base@_WV?$string_output_adapter@_W@__crt_stdio_output@@@2@@__crt_stdio_output@@AEAA_NQEAH@Z 00000001800189a4 f i libucrt:output.obj
 0001:00017a24       ?process@?$output_processor@DV?$stream_output_adapter@D@__crt_stdio_output@@V?$standard_base@DV?$stream_output_adapter@D@__crt_stdio_output@@@2@@__crt_stdio_output@@QEAAHXZ 0000000180018a24 f i libucrt:output.obj
 0001:00017c34       ?process@?$output_processor@DV?$string_output_adapter@D@__crt_stdio_output@@V?$format_validation_base@DV?$string_output_adapter@D@__crt_stdio_output@@@2@@__crt_stdio_output@@QEAAHXZ 0000000180018c34 f i libucrt:output.obj
 0001:00017e48       ?process@?$output_processor@DV?$string_output_adapter@D@__crt_stdio_output@@V?$standard_base@DV?$string_output_adapter@D@__crt_stdio_output@@@2@@__crt_stdio_output@@QEAAHXZ 0000000180018e48 f i libucrt:output.obj
 0001:0001804c       ?process@?$output_processor@_WV?$stream_output_adapter@_W@__crt_stdio_output@@V?$standard_base@_WV?$stream_output_adapter@_W@__crt_stdio_output@@@2@@__crt_stdio_output@@QEAAHXZ 000000018001904c f i libucrt:output.obj
 0001:000182c4       ?process@?$output_processor@_WV?$string_output_adapter@_W@__crt_stdio_output@@V?$standard_base@_WV?$string_output_adapter@_W@__crt_stdio_output@@@2@@__crt_stdio_output@@QEAAHXZ 00000001800192c4 f i libucrt:output.obj
 0001:00018540       ?state_case_normal@?$output_processor@DV?$stream_output_adapter@D@__crt_stdio_output@@V?$standard_base@DV?$stream_output_adapter@D@__crt_stdio_output@@@2@@__crt_stdio_output@@AEAA_NXZ 0000000180019540 f i libucrt:output.obj
 0001:000185b0       ?state_case_normal@?$output_processor@DV?$string_output_adapter@D@__crt_stdio_output@@V?$standard_base@DV?$string_output_adapter@D@__crt_stdio_output@@@2@@__crt_stdio_output@@AEAA_NXZ 00000001800195b0 f i libucrt:output.obj
 0001:000185b0       ?state_case_normal@?$output_processor@DV?$string_output_adapter@D@__crt_stdio_output@@V?$format_validation_base@DV?$string_output_adapter@D@__crt_stdio_output@@@2@@__crt_stdio_output@@AEAA_NXZ 00000001800195b0 f i libucrt:output.obj
 0001:00018624       ?state_case_normal_tchar@?$output_processor@DV?$stream_output_adapter@D@__crt_stdio_output@@V?$standard_base@DV?$stream_output_adapter@D@__crt_stdio_output@@@2@@__crt_stdio_output@@AEAA_ND@Z 0000000180019624 f i libucrt:output.obj
 0001:000186b8       ?state_case_normal_tchar@?$output_processor@DV?$string_output_adapter@D@__crt_stdio_output@@V?$standard_base@DV?$string_output_adapter@D@__crt_stdio_output@@@2@@__crt_stdio_output@@AEAA_ND@Z 00000001800196b8 f i libucrt:output.obj
 0001:000186b8       ?state_case_normal_tchar@?$output_processor@DV?$string_output_adapter@D@__crt_stdio_output@@V?$format_validation_base@DV?$string_output_adapter@D@__crt_stdio_output@@@2@@__crt_stdio_output@@AEAA_ND@Z 00000001800196b8 f i libucrt:output.obj
 0001:00018750       ?state_case_size@?$output_processor@DV?$stream_output_adapter@D@__crt_stdio_output@@V?$standard_base@DV?$stream_output_adapter@D@__crt_stdio_output@@@2@@__crt_stdio_output@@AEAA_NXZ 0000000180019750 f i libucrt:output.obj
 0001:000188cc       ?state_case_size@?$output_processor@DV?$string_output_adapter@D@__crt_stdio_output@@V?$standard_base@DV?$string_output_adapter@D@__crt_stdio_output@@@2@@__crt_stdio_output@@AEAA_NXZ 00000001800198cc f i libucrt:output.obj
 0001:000188cc       ?state_case_size@?$output_processor@DV?$string_output_adapter@D@__crt_stdio_output@@V?$format_validation_base@DV?$string_output_adapter@D@__crt_stdio_output@@@2@@__crt_stdio_output@@AEAA_NXZ 00000001800198cc f i libucrt:output.obj
 0001:00018a48       ?state_case_size@?$output_processor@_WV?$stream_output_adapter@_W@__crt_stdio_output@@V?$standard_base@_WV?$stream_output_adapter@_W@__crt_stdio_output@@@2@@__crt_stdio_output@@AEAA_NXZ 0000000180019a48 f i libucrt:output.obj
 0001:00018bec       ?state_case_size@?$output_processor@_WV?$string_output_adapter@_W@__crt_stdio_output@@V?$standard_base@_WV?$string_output_adapter@_W@__crt_stdio_output@@@2@@__crt_stdio_output@@AEAA_NXZ 0000000180019bec f i libucrt:output.obj
 0001:00018d90       ?state_case_type@?$output_processor@DV?$stream_output_adapter@D@__crt_stdio_output@@V?$standard_base@DV?$stream_output_adapter@D@__crt_stdio_output@@@2@@__crt_stdio_output@@AEAA_NXZ 0000000180019d90 f i libucrt:output.obj
 0001:0001900c       ?state_case_type@?$output_processor@DV?$string_output_adapter@D@__crt_stdio_output@@V?$standard_base@DV?$string_output_adapter@D@__crt_stdio_output@@@2@@__crt_stdio_output@@AEAA_NXZ 000000018001a00c f i libucrt:output.obj
 0001:0001900c       ?state_case_type@?$output_processor@DV?$string_output_adapter@D@__crt_stdio_output@@V?$format_validation_base@DV?$string_output_adapter@D@__crt_stdio_output@@@2@@__crt_stdio_output@@AEAA_NXZ 000000018001a00c f i libucrt:output.obj
 0001:00019288       ?state_case_type@?$output_processor@_WV?$stream_output_adapter@_W@__crt_stdio_output@@V?$standard_base@_WV?$stream_output_adapter@_W@__crt_stdio_output@@@2@@__crt_stdio_output@@AEAA_NXZ 000000018001a288 f i libucrt:output.obj
 0001:00019554       ?state_case_type@?$output_processor@_WV?$string_output_adapter@_W@__crt_stdio_output@@V?$standard_base@_WV?$string_output_adapter@_W@__crt_stdio_output@@@2@@__crt_stdio_output@@AEAA_NXZ 000000018001a554 f i libucrt:output.obj
 0001:00019820       ?type_case_Z@?$output_processor@DV?$string_output_adapter@D@__crt_stdio_output@@V?$format_validation_base@DV?$string_output_adapter@D@__crt_stdio_output@@@2@@__crt_stdio_output@@AEAA_NXZ 000000018001a820 f i libucrt:output.obj
 0001:00019820       ?type_case_Z@?$output_processor@DV?$stream_output_adapter@D@__crt_stdio_output@@V?$standard_base@DV?$stream_output_adapter@D@__crt_stdio_output@@@2@@__crt_stdio_output@@AEAA_NXZ 000000018001a820 f i libucrt:output.obj
 0001:00019820       ?type_case_Z@?$output_processor@DV?$string_output_adapter@D@__crt_stdio_output@@V?$standard_base@DV?$string_output_adapter@D@__crt_stdio_output@@@2@@__crt_stdio_output@@AEAA_NXZ 000000018001a820 f i libucrt:output.obj
 0001:000198a0       ?type_case_Z@?$output_processor@_WV?$string_output_adapter@_W@__crt_stdio_output@@V?$standard_base@_WV?$string_output_adapter@_W@__crt_stdio_output@@@2@@__crt_stdio_output@@AEAA_NXZ 000000018001a8a0 f i libucrt:output.obj
 0001:000198a0       ?type_case_Z@?$output_processor@_WV?$stream_output_adapter@_W@__crt_stdio_output@@V?$standard_base@_WV?$stream_output_adapter@_W@__crt_stdio_output@@@2@@__crt_stdio_output@@AEAA_NXZ 000000018001a8a0 f i libucrt:output.obj
 0001:00019920       ?type_case_a@?$output_processor@DV?$string_output_adapter@D@__crt_stdio_output@@V?$format_validation_base@DV?$string_output_adapter@D@__crt_stdio_output@@@2@@__crt_stdio_output@@AEAA_NXZ 000000018001a920 f i libucrt:output.obj
 0001:00019920       ?type_case_a@?$output_processor@DV?$string_output_adapter@D@__crt_stdio_output@@V?$standard_base@DV?$string_output_adapter@D@__crt_stdio_output@@@2@@__crt_stdio_output@@AEAA_NXZ 000000018001a920 f i libucrt:output.obj
 0001:00019920       ?type_case_a@?$output_processor@DV?$stream_output_adapter@D@__crt_stdio_output@@V?$standard_base@DV?$stream_output_adapter@D@__crt_stdio_output@@@2@@__crt_stdio_output@@AEAA_NXZ 000000018001a920 f i libucrt:output.obj
 0001:00019b3c       ?type_case_a@?$output_processor@_WV?$string_output_adapter@_W@__crt_stdio_output@@V?$standard_base@_WV?$string_output_adapter@_W@__crt_stdio_output@@@2@@__crt_stdio_output@@AEAA_NXZ 000000018001ab3c f i libucrt:output.obj
 0001:00019b3c       ?type_case_a@?$output_processor@_WV?$stream_output_adapter@_W@__crt_stdio_output@@V?$standard_base@_WV?$stream_output_adapter@_W@__crt_stdio_output@@@2@@__crt_stdio_output@@AEAA_NXZ 000000018001ab3c f i libucrt:output.obj
 0001:00019d80       ?type_case_c_tchar@?$output_processor@DV?$string_output_adapter@D@__crt_stdio_output@@V?$format_validation_base@DV?$string_output_adapter@D@__crt_stdio_output@@@2@@__crt_stdio_output@@AEAA_ND@Z 000000018001ad80 f i libucrt:output.obj
 0001:00019d80       ?type_case_c_tchar@?$output_processor@DV?$string_output_adapter@D@__crt_stdio_output@@V?$standard_base@DV?$string_output_adapter@D@__crt_stdio_output@@@2@@__crt_stdio_output@@AEAA_ND@Z 000000018001ad80 f i libucrt:output.obj
 0001:00019d80       ?type_case_c_tchar@?$output_processor@DV?$stream_output_adapter@D@__crt_stdio_output@@V?$standard_base@DV?$stream_output_adapter@D@__crt_stdio_output@@@2@@__crt_stdio_output@@AEAA_ND@Z 000000018001ad80 f i libucrt:output.obj
 0001:00019e34       ?type_case_c_tchar@?$output_processor@_WV?$stream_output_adapter@_W@__crt_stdio_output@@V?$standard_base@_WV?$stream_output_adapter@_W@__crt_stdio_output@@@2@@__crt_stdio_output@@AEAA_N_W@Z 000000018001ae34 f i libucrt:output.obj
 0001:00019e34       ?type_case_c_tchar@?$output_processor@_WV?$string_output_adapter@_W@__crt_stdio_output@@V?$standard_base@_WV?$string_output_adapter@_W@__crt_stdio_output@@@2@@__crt_stdio_output@@AEAA_N_W@Z 000000018001ae34 f i libucrt:output.obj
 0001:00019edc       ?type_case_integer@?$output_processor@_WV?$stream_output_adapter@_W@__crt_stdio_output@@V?$standard_base@_WV?$stream_output_adapter@_W@__crt_stdio_output@@@2@@__crt_stdio_output@@AEAA_NI_N@Z 000000018001aedc f i libucrt:output.obj
 0001:00019edc       ?type_case_integer@?$output_processor@DV?$string_output_adapter@D@__crt_stdio_output@@V?$standard_base@DV?$string_output_adapter@D@__crt_stdio_output@@@2@@__crt_stdio_output@@AEAA_NI_N@Z 000000018001aedc f i libucrt:output.obj
 0001:00019edc       ?type_case_integer@?$output_processor@DV?$string_output_adapter@D@__crt_stdio_output@@V?$format_validation_base@DV?$string_output_adapter@D@__crt_stdio_output@@@2@@__crt_stdio_output@@AEAA_NI_N@Z 000000018001aedc f i libucrt:output.obj
 0001:00019edc       ?type_case_integer@?$output_processor@_WV?$string_output_adapter@_W@__crt_stdio_output@@V?$standard_base@_WV?$string_output_adapter@_W@__crt_stdio_output@@@2@@__crt_stdio_output@@AEAA_NI_N@Z 000000018001aedc f i libucrt:output.obj
 0001:00019edc       ?type_case_integer@?$output_processor@DV?$stream_output_adapter@D@__crt_stdio_output@@V?$standard_base@DV?$stream_output_adapter@D@__crt_stdio_output@@@2@@__crt_stdio_output@@AEAA_NI_N@Z 000000018001aedc f i libucrt:output.obj
 0001:0001a07c       ?type_case_n@?$output_processor@DV?$stream_output_adapter@D@__crt_stdio_output@@V?$standard_base@DV?$stream_output_adapter@D@__crt_stdio_output@@@2@@__crt_stdio_output@@AEAA_NXZ 000000018001b07c f i libucrt:output.obj
 0001:0001a07c       ?type_case_n@?$output_processor@DV?$string_output_adapter@D@__crt_stdio_output@@V?$format_validation_base@DV?$string_output_adapter@D@__crt_stdio_output@@@2@@__crt_stdio_output@@AEAA_NXZ 000000018001b07c f i libucrt:output.obj
 0001:0001a07c       ?type_case_n@?$output_processor@_WV?$string_output_adapter@_W@__crt_stdio_output@@V?$standard_base@_WV?$string_output_adapter@_W@__crt_stdio_output@@@2@@__crt_stdio_output@@AEAA_NXZ 000000018001b07c f i libucrt:output.obj
 0001:0001a07c       ?type_case_n@?$output_processor@_WV?$stream_output_adapter@_W@__crt_stdio_output@@V?$standard_base@_WV?$stream_output_adapter@_W@__crt_stdio_output@@@2@@__crt_stdio_output@@AEAA_NXZ 000000018001b07c f i libucrt:output.obj
 0001:0001a07c       ?type_case_n@?$output_processor@DV?$string_output_adapter@D@__crt_stdio_output@@V?$standard_base@DV?$string_output_adapter@D@__crt_stdio_output@@@2@@__crt_stdio_output@@AEAA_NXZ 000000018001b07c f i libucrt:output.obj
 0001:0001a158       ?type_case_s@?$output_processor@DV?$stream_output_adapter@D@__crt_stdio_output@@V?$standard_base@DV?$stream_output_adapter@D@__crt_stdio_output@@@2@@__crt_stdio_output@@AEAA_NXZ 000000018001b158 f i libucrt:output.obj
 0001:0001a158       ?type_case_s@?$output_processor@DV?$string_output_adapter@D@__crt_stdio_output@@V?$format_validation_base@DV?$string_output_adapter@D@__crt_stdio_output@@@2@@__crt_stdio_output@@AEAA_NXZ 000000018001b158 f i libucrt:output.obj
 0001:0001a158       ?type_case_s@?$output_processor@DV?$string_output_adapter@D@__crt_stdio_output@@V?$standard_base@DV?$string_output_adapter@D@__crt_stdio_output@@@2@@__crt_stdio_output@@AEAA_NXZ 000000018001b158 f i libucrt:output.obj
 0001:0001a1e8       ?type_case_s@?$output_processor@_WV?$string_output_adapter@_W@__crt_stdio_output@@V?$standard_base@_WV?$string_output_adapter@_W@__crt_stdio_output@@@2@@__crt_stdio_output@@AEAA_NXZ 000000018001b1e8 f i libucrt:output.obj
 0001:0001a1e8       ?type_case_s@?$output_processor@_WV?$stream_output_adapter@_W@__crt_stdio_output@@V?$standard_base@_WV?$stream_output_adapter@_W@__crt_stdio_output@@@2@@__crt_stdio_output@@AEAA_NXZ 000000018001b1e8 f i libucrt:output.obj
 0001:0001a2b0       ?validate_stream_is_ansi_if_required@?$__acrt_stdio_char_traits@D@@SA_NQEAU_iobuf@@@Z 000000018001b2b0 f i libucrt:output.obj
 0001:0001a33c       ?write_stored_string_tchar@?$output_processor@DV?$stream_output_adapter@D@__crt_stdio_output@@V?$standard_base@DV?$stream_output_adapter@D@__crt_stdio_output@@@2@@__crt_stdio_output@@AEAA_ND@Z 000000018001b33c f i libucrt:output.obj
 0001:0001a414       ?write_stored_string_tchar@?$output_processor@DV?$string_output_adapter@D@__crt_stdio_output@@V?$format_validation_base@DV?$string_output_adapter@D@__crt_stdio_output@@@2@@__crt_stdio_output@@AEAA_ND@Z 000000018001b414 f i libucrt:output.obj
 0001:0001a414       ?write_stored_string_tchar@?$output_processor@DV?$string_output_adapter@D@__crt_stdio_output@@V?$standard_base@DV?$string_output_adapter@D@__crt_stdio_output@@@2@@__crt_stdio_output@@AEAA_ND@Z 000000018001b414 f i libucrt:output.obj
 0001:0001a4ec       ?write_stored_string_tchar@?$output_processor@_WV?$stream_output_adapter@_W@__crt_stdio_output@@V?$standard_base@_WV?$stream_output_adapter@_W@__crt_stdio_output@@@2@@__crt_stdio_output@@AEAA_N_W@Z 000000018001b4ec f i libucrt:output.obj
 0001:0001a5d8       ?write_stored_string_tchar@?$output_processor@_WV?$string_output_adapter@_W@__crt_stdio_output@@V?$standard_base@_WV?$string_output_adapter@_W@__crt_stdio_output@@@2@@__crt_stdio_output@@AEAA_N_W@Z 000000018001b5d8 f i libucrt:output.obj
 0001:0001a6c8       ?write_string@?$stream_output_adapter@D@__crt_stdio_output@@QEBAXQEBDHQEAH1@Z 000000018001b6c8 f i libucrt:output.obj
 0001:0001a7c0       ?write_string@?$stream_output_adapter@_W@__crt_stdio_output@@QEBAXQEB_WHQEAH1@Z 000000018001b7c0 f i libucrt:output.obj
 0001:0001a8cc       ?write_string@?$string_output_adapter@D@__crt_stdio_output@@QEBAXQEBDHQEAH1@Z 000000018001b8cc f i libucrt:output.obj
 0001:0001a988       ?write_string@?$string_output_adapter@_W@__crt_stdio_output@@QEBAXQEB_WHQEAH1@Z 000000018001b988 f i libucrt:output.obj
 0001:0001aa48       __stdio_common_vfprintf    000000018001ba48 f   libucrt:output.obj
 0001:0001aad4       __stdio_common_vfwprintf   000000018001bad4 f   libucrt:output.obj
 0001:0001ab60       __stdio_common_vsnprintf_s 000000018001bb60 f   libucrt:output.obj
 0001:0001acbc       __stdio_common_vsprintf    000000018001bcbc f   libucrt:output.obj
 0001:0001aef0       __stdio_common_vswprintf   000000018001bef0 f   libucrt:output.obj
 0001:0001b140       strncpy                    000000018001c140 f   libucrt:strncpy.obj
 0001:0001bc8c       ??$ftprintf@PEAU_iobuf@@PEB_WAEBQEB_WAEBQEB_WAEBI@?$__crt_char_traits@_W@@SAH$$QEAPEAU_iobuf@@$$QEAPEB_WAEBQEB_W2AEBI@Z 000000018001cc8c f i libucrt:assert.obj
 0001:0001bcb4       _wassert                   000000018001ccb4 f   libucrt:assert.obj
 0001:0001bd38       fwprintf                   000000018001cd38 f i libucrt:assert.obj
 0001:0001bd7c       swprintf                   000000018001cd7c f i libucrt:assert.obj
 0001:0001bec4       getenv                     000000018001cec4 f   libucrt:getenv.obj
 0001:0001becc       __acrt_call_reportfault    000000018001cecc f   libucrt:invalid_parameter.obj
 0001:0001c028       __acrt_initialize_invalid_parameter_handler 000000018001d028 f   libucrt:invalid_parameter.obj
 0001:0001c030       _invalid_parameter         000000018001d030 f   libucrt:invalid_parameter.obj
 0001:0001c0d8       _invalid_parameter_noinfo  000000018001d0d8 f   libucrt:invalid_parameter.obj
 0001:0001c0f8       _invalid_parameter_noinfo_noreturn 000000018001d0f8 f   libucrt:invalid_parameter.obj
 0001:0001c128       _invoke_watson             000000018001d128 f   libucrt:invalid_parameter.obj
 0001:0001c170       __ascii_stricmp            000000018001d170 f   libucrt:stricmp.obj
 0001:0001c1ac       _stricmp                   000000018001d1ac f   libucrt:stricmp.obj
 0001:0001c1f4       _stricmp_l                 000000018001d1f4 f   libucrt:stricmp.obj
 0001:0001c2a8       terminate                  000000018001d2a8 f   libucrt:terminate.obj
 0001:0001c2d0       __acrt_initialize_new_handler 000000018001d2d0 f   libucrt:new_handler.obj
 0001:0001c2d8       _callnewh                  000000018001d2d8 f   libucrt:new_handler.obj
 0001:0001c318       _query_new_handler         000000018001d318 f   libucrt:new_handler.obj
 0001:0001c34c       malloc                     000000018001d34c f   libucrt:malloc.obj
 0001:0001c354       _seh_filter_dll            000000018001d354 f   libucrt:exception_filter.obj
 0001:0001c368       _seh_filter_exe            000000018001d368 f   libucrt:exception_filter.obj
 0001:0001c728       __acrt_initialize_thread_local_exit_callback 000000018001d728 f   libucrt:exit.obj
 0001:0001c730       _cexit                     000000018001d730 f   libucrt:exit.obj
 0001:0001c740       _exit                      000000018001d740 f   libucrt:exit.obj
 0001:0001c74c       _is_c_termination_complete 000000018001d74c f   libucrt:exit.obj
 0001:0001ca54       __dcrt_get_or_create_narrow_environment_nolock 000000018001da54 f   libucrt:environment_initialization.obj
 0001:0001ca5c       __dcrt_uninitialize_environments_nolock 000000018001da5c f   libucrt:environment_initialization.obj
 0001:0001ca94       _initialize_narrow_environment 000000018001da94 f   libucrt:environment_initialization.obj
 0001:0001ca9c       ??$?RV<lambda_b8c45f8f788dd370798f47cfe8ac3a86>@@AEAV<lambda_4e60a939b0d047cfe11ddc22648dfba9>@@V<lambda_332c3edc96d0294ec56c57d38c1cdfd5>@@@?$__crt_seh_guarded_call@H@@QEAAH$$QEAV<lambda_b8c45f8f788dd370798f47cfe8ac3a86>@@AEAV<lambda_4e60a939b0d047cfe11ddc22648dfba9>@@$$QEAV<lambda_332c3edc96d0294ec56c57d38c1cdfd5>@@@Z 000000018001da9c f i libucrt:onexit.obj
 0001:0001cad8       ??$?RV<lambda_e24bbb7b643b32fcea6fa61b31d4c984>@@AEAV<lambda_275893d493268fdec8709772e3fcec0e>@@V<lambda_9d71df4d7cf3f480f8d633942495c3b0>@@@?$__crt_seh_guarded_call@H@@QEAAH$$QEAV<lambda_e24bbb7b643b32fcea6fa61b31d4c984>@@AEAV<lambda_275893d493268fdec8709772e3fcec0e>@@$$QEAV<lambda_9d71df4d7cf3f480f8d633942495c3b0>@@@Z 000000018001dad8 f i libucrt:onexit.obj
 0001:0001ce54       _crt_atexit                000000018001de54 f   libucrt:onexit.obj
 0001:0001ce64       _execute_onexit_table      000000018001de64 f   libucrt:onexit.obj
 0001:0001cea0       _initialize_onexit_table   000000018001dea0 f   libucrt:onexit.obj
 0001:0001cee0       _register_onexit_function  000000018001dee0 f   libucrt:onexit.obj
 0001:0001d05c       __acrt_initialize          000000018001e05c f   libucrt:initialization.obj
 0001:0001d070       __acrt_thread_attach       000000018001e070 f   libucrt:initialization.obj
 0001:0001d084       __acrt_thread_detach       000000018001e084 f   libucrt:initialization.obj
 0001:0001d094       __acrt_uninitialize        000000018001e094 f   libucrt:initialization.obj
 0001:0001d0a8       __acrt_uninitialize_critical 000000018001e0a8 f   libucrt:initialization.obj
 0001:0001d0b8       free                       000000018001e0b8 f   libucrt:free.obj
 0001:0001d0c0       _initterm                  000000018001e0c0 f   libucrt:initterm.obj
 0001:0001d138       _initterm_e                000000018001e138 f   libucrt:initterm.obj
 0001:0001d184       abort                      000000018001e184 f   libucrt:abort.obj
 0001:0001d1dc       strcpy_s                   000000018001e1dc f   libucrt:strcpy_s.obj
 0001:0001d23c       _free_base                 000000018001e23c f   libucrt:free_base.obj
 0001:0001d27c       _malloc_base               000000018001e27c f   libucrt:malloc_base.obj
 0001:0001d2dc       _calloc_base               000000018001e2dc f   libucrt:calloc_base.obj
 0001:0001d354       ??$is_overflow_condition@K@__crt_strtox@@YA_NIK@Z 000000018001e354 f i libucrt:atox.obj
 0001:0001d380       ??$parse_integer@KV?$c_string_character_source@D@__crt_strtox@@@__crt_strtox@@YAKQEAU__crt_locale_pointers@@V?$c_string_character_source@D@0@H_N@Z 000000018001e380 f i libucrt:atox.obj
 0001:0001d694       ??$parse_integer@KV?$c_string_character_source@_W@__crt_strtox@@@__crt_strtox@@YAKQEAU__crt_locale_pointers@@V?$c_string_character_source@_W@0@H_N@Z 000000018001e694 f i libucrt:atox.obj
 0001:0001dd68       ??$?RV<lambda_46352004c1216016012b18bd6f87e700>@@AEAV<lambda_3bd07e1a1191394380780325891bf33f>@@V<lambda_334532d3f185bcaa59b5be82d7d22bff>@@@?$__crt_seh_guarded_call@X@@QEAAX$$QEAV<lambda_46352004c1216016012b18bd6f87e700>@@AEAV<lambda_3bd07e1a1191394380780325891bf33f>@@$$QEAV<lambda_334532d3f185bcaa59b5be82d7d22bff>@@@Z 000000018001ed68 f i libucrt:per_thread_data.obj
 0001:0001ddc8       ??$?RV<lambda_5e887d1dcbef67a5eb4283622ba103bf>@@AEAV<lambda_4466841279450cc726390878d4a41900>@@V<lambda_341c25c0346d94847f1f3c463c57e077>@@@?$__crt_seh_guarded_call@X@@QEAAX$$QEAV<lambda_5e887d1dcbef67a5eb4283622ba103bf>@@AEAV<lambda_4466841279450cc726390878d4a41900>@@$$QEAV<lambda_341c25c0346d94847f1f3c463c57e077>@@@Z 000000018001edc8 f i libucrt:per_thread_data.obj
 0001:0001de10       ??$?RV<lambda_72d1df2b273a38828b1ce30cbf4cdab5>@@AEAV<lambda_876a65b173b8412d3a47c70a915b0cf4>@@V<lambda_41932305e351933ebe8f8be3ed8bb5dc>@@@?$__crt_seh_guarded_call@X@@QEAAX$$QEAV<lambda_72d1df2b273a38828b1ce30cbf4cdab5>@@AEAV<lambda_876a65b173b8412d3a47c70a915b0cf4>@@$$QEAV<lambda_41932305e351933ebe8f8be3ed8bb5dc>@@@Z 000000018001ee10 f i libucrt:per_thread_data.obj
 0001:0001de50       ??$?RV<lambda_fb3a7dec4e47f37f22dae91bb15c9095>@@AEAV<lambda_698284760c8add0bfb0756c19673e34b>@@V<lambda_dfb8eca1e75fef3034a8fb18dd509707>@@@?$__crt_seh_guarded_call@X@@QEAAX$$QEAV<lambda_fb3a7dec4e47f37f22dae91bb15c9095>@@AEAV<lambda_698284760c8add0bfb0756c19673e34b>@@$$QEAV<lambda_dfb8eca1e75fef3034a8fb18dd509707>@@@Z 000000018001ee50 f i libucrt:per_thread_data.obj
 0001:0001e0e0       __acrt_freeptd             000000018001f0e0 f   libucrt:per_thread_data.obj
 0001:0001e124       __acrt_getptd              000000018001f124 f   libucrt:per_thread_data.obj
 0001:0001e1b8       __acrt_getptd_noexit       000000018001f1b8 f   libucrt:per_thread_data.obj
 0001:0001e258       __acrt_initialize_ptd      000000018001f258 f   libucrt:per_thread_data.obj
 0001:0001e294       __acrt_uninitialize_ptd    000000018001f294 f   libucrt:per_thread_data.obj
 0001:0001e2b8       __acrt_errno_from_os_error 000000018001f2b8 f   libucrt:errno.obj
 0001:0001e300       __acrt_errno_map_os_error  000000018001f300 f   libucrt:errno.obj
 0001:0001e350       __doserrno                 000000018001f350 f   libucrt:errno.obj
 0001:0001e370       _errno                     000000018001f370 f   libucrt:errno.obj
 0001:0001e390       ?__acrt_stdio_allocate_stream@@YA?AV__crt_stdio_stream@@XZ 000000018001f390 f   libucrt:stream.obj
 0001:0001e3ec       ?__acrt_stdio_free_stream@@YAXV__crt_stdio_stream@@@Z 000000018001f3ec f   libucrt:stream.obj
 0001:0001e51c       ??$__acrt_stdio_parse_mode@D@@YA?AU__acrt_stdio_stream_mode@@QEBD@Z 000000018001f51c f i libucrt:openfile.obj
 0001:0001e7b8       _openfile                  000000018001f7b8 f   libucrt:openfile.obj
 0001:0001e9f4       __acrt_AreFileApisANSI     000000018001f9f4 f   libucrt:winapi_thunks.obj
 0001:0001ea40       __acrt_CompareStringEx     000000018001fa40 f   libucrt:winapi_thunks.obj
 0001:0001eb30       __acrt_FlsAlloc            000000018001fb30 f   libucrt:winapi_thunks.obj
 0001:0001eb88       __acrt_FlsFree             000000018001fb88 f   libucrt:winapi_thunks.obj
 0001:0001ebe0       __acrt_FlsGetValue         000000018001fbe0 f   libucrt:winapi_thunks.obj
 0001:0001ec38       __acrt_FlsSetValue         000000018001fc38 f   libucrt:winapi_thunks.obj
 0001:0001eca0       __acrt_InitializeCriticalSectionEx 000000018001fca0 f   libucrt:winapi_thunks.obj
 0001:0001ed18       __acrt_LCMapStringEx       000000018001fd18 f   libucrt:winapi_thunks.obj
 0001:0001ee08       __acrt_LocaleNameToLCID    000000018001fe08 f   libucrt:winapi_thunks.obj
 0001:0001ee70       __acrt_MessageBoxW         000000018001fe70 f   libucrt:winapi_thunks.obj
 0001:0001eef8       __acrt_can_show_message_box 000000018001fef8 f   libucrt:winapi_thunks.obj
 0001:0001ef54       __acrt_get_parent_window   000000018001ff54 f   libucrt:winapi_thunks.obj
 0001:0001efe4       __acrt_initialize_winapi_thunks 000000018001ffe4 f   libucrt:winapi_thunks.obj
 0001:0001f01c       __acrt_is_interactive      000000018002001c f   libucrt:winapi_thunks.obj
 0001:0001f0f0       __acrt_is_packaged_app     00000001800200f0 f   libucrt:winapi_thunks.obj
 0001:0001f178       __acrt_uninitialize_winapi_thunks 0000000180020178 f   libucrt:winapi_thunks.obj
 0001:0001f1bc       _fcloseall                 00000001800201bc f   libucrt:closeall.obj
 0001:0001f270       __acrt_stdio_flush_nolock  0000000180020270 f   libucrt:fflush.obj
 0001:0001f2e8       _fflush_nolock             00000001800202e8 f   libucrt:fflush.obj
 0001:0001f334       _flushall                  0000000180020334 f   libucrt:fflush.obj
 0001:0001f424       fflush                     0000000180020424 f   libucrt:fflush.obj
 0001:0001f468       __acrt_stdio_free_buffer_nolock 0000000180020468 f   libucrt:_freebuf.obj
 0001:0001f690       __acrt_initialize_lowio    0000000180020690 f   libucrt:ioinit.obj
 0001:0001f6cc       __acrt_uninitialize_lowio  00000001800206cc f   libucrt:ioinit.obj
 0001:0001f70c       ??$?RV<lambda_bfedae4ebbf01fab1bb6dcc6a9e276e0>@@AEAV<lambda_2fe9b910cf3cbf4a0ab98a02ba45b3ec>@@V<lambda_237c231691f317818eb88cc1d5d642d6>@@@?$__crt_seh_guarded_call@H@@QEAAH$$QEAV<lambda_bfedae4ebbf01fab1bb6dcc6a9e276e0>@@AEAV<lambda_2fe9b910cf3cbf4a0ab98a02ba45b3ec>@@$$QEAV<lambda_237c231691f317818eb88cc1d5d642d6>@@@Z 000000018002070c f i libucrt:close.obj
 0001:0001f780       _close                     0000000180020780 f   libucrt:close.obj
 0001:0001f824       _close_nolock              0000000180020824 f   libucrt:close.obj
 0001:0001f8e0       _fileno                    00000001800208e0 f   libucrt:fileno.obj
 0001:0001f908       __acrt_copy_path_to_wide_string 0000000180020908 f   libucrt:string_utilities.obj
 0001:0001fa00       _wremove                   0000000180020a00 f   libucrt:wunlink.obj
 0001:0001fa28       isdigit                    0000000180020a28 f i libucrt:_ctype.obj
 0001:0001faec       _tolower_l                 0000000180020aec f   libucrt:tolower_toupper.obj
 0001:0001fc2c       tolower                    0000000180020c2c f   libucrt:tolower_toupper.obj
 0001:0001fc58       ??$make_c_string_character_source@_WPEAPEA_W@__crt_strtox@@YA?AV?$c_string_character_source@_W@0@QEB_WQEAPEA_W@Z 0000000180020c58 f i libucrt:strtox.obj
 0001:0001fc58       ??$make_c_string_character_source@DPEAPEAD@__crt_strtox@@YA?AV?$c_string_character_source@D@0@QEBDQEAPEAD@Z 0000000180020c58 f i libucrt:strtox.obj
 0001:0001fc6c       strtol                     0000000180020c6c f   libucrt:strtox.obj
 0001:0001fc9c       wcstol                     0000000180020c9c f   libucrt:strtox.obj
 0001:0001fccc       _mbtowc_l                  0000000180020ccc f   libucrt:mbtowc.obj
 0001:0001fe14       mbtowc                     0000000180020e14 f   libucrt:mbtowc.obj
 0001:0001fe1c       _wctomb_s_l                0000000180020e1c f   libucrt:wctomb.obj
 0001:0001ffa0       wctomb_s                   0000000180020fa0 f   libucrt:wctomb.obj
 0001:0001ffb4       strnlen                    0000000180020fb4 f   libucrt:strnlen.obj
 0001:00020110       wcsnlen                    0000000180021110 f   libucrt:strnlen.obj
 0001:00020300       __acrt_update_locale_info  0000000180021300 f   libucrt:locale_update.obj
 0001:00020334       __acrt_update_multibyte_info 0000000180021334 f   libucrt:locale_update.obj
 0001:00020368       ?__acrt_fp_classify@@YA?AW4__acrt_fp_class@@AEBN@Z 0000000180021368 f i libucrt:cvt.obj
 0001:00020da0       __acrt_fp_format           0000000180021da0 f   libucrt:cvt.obj
 0001:00020fe4       _fputwc_nolock             0000000180021fe4 f   libucrt:fputwc.obj
 0001:00021160       _fputc_nolock              0000000180022160 f   libucrt:fputc.obj
 0001:00021178       _get_printf_count_output   0000000180022178 f   libucrt:printf_count_output.obj
 0001:00021190       __acrt_stdio_begin_temporary_buffering_nolock 0000000180022190 f   libucrt:_sftbuf.obj
 0001:00021260       __acrt_stdio_end_temporary_buffering_nolock 0000000180022260 f   libucrt:_sftbuf.obj
 0001:0002129c       __acrt_set_locale_changed  000000018002229c f   libucrt:wsetlocale.obj
 0001:000212a8       __acrt_uninitialize_locale 00000001800222a8 f   libucrt:wsetlocale.obj
 0001:000212f0       _query_app_type            00000001800222f0 f   libucrt:report_runtime_error.obj
 0001:00021420       _itow_s                    0000000180022420 f   libucrt:xtoa.obj
 0001:00021440       _set_error_mode            0000000180022440 f   libucrt:set_error_mode.obj
 0001:00021480       wcscat_s                   0000000180022480 f   libucrt:wcscat_s.obj
 0001:00021500       wcscpy_s                   0000000180022500 f   libucrt:wcscpy_s.obj
 0001:00021568       wcsncat_s                  0000000180022568 f   libucrt:wcsncat_s.obj
 0001:00021690       __acrt_show_wide_message_box 0000000180022690 f   libucrt:crtmbox.obj
 0001:000217ac       ??$?RV<lambda_7a5ef57ff966f610505f1d28a3d40618>@@AEAV<lambda_b721fa326cdb32351d23dfa67958c160>@@V<lambda_5e0fb27672408a07956fe59e48ccb2aa>@@@?$__crt_seh_guarded_call@H@@QEAAH$$QEAV<lambda_7a5ef57ff966f610505f1d28a3d40618>@@AEAV<lambda_b721fa326cdb32351d23dfa67958c160>@@$$QEAV<lambda_5e0fb27672408a07956fe59e48ccb2aa>@@@Z 00000001800227ac f i libucrt:setvbuf.obj
 0001:000218dc       setvbuf                    00000001800228dc f   libucrt:setvbuf.obj
 0001:0002197c       ??$?RV<lambda_c36588078e9f5dfd39652860aa6b3aaf>@@AEAV<lambda_ec61778202f4f5fc7e7711acc23c3bca>@@V<lambda_dc9d2797ccde5d239b4a0efae8ebd7db>@@@?$__crt_seh_guarded_call@P6AXH@Z@@QEAAP6AXH@Z$$QEAV<lambda_c36588078e9f5dfd39652860aa6b3aaf>@@AEAV<lambda_ec61778202f4f5fc7e7711acc23c3bca>@@$$QEAV<lambda_dc9d2797ccde5d239b4a0efae8ebd7db>@@@Z 000000018002297c f i libucrt:signal.obj
 0001:000219c4       __acrt_get_sigabrt_handler 00000001800229c4 f   libucrt:signal.obj
 0001:000219f4       __acrt_initialize_signal_handlers 00000001800229f4 f   libucrt:signal.obj
 0001:00021a14       raise                      0000000180022a14 f   libucrt:signal.obj
 0001:00021cb0       _strnicoll                 0000000180022cb0 f   libucrt:strnicol.obj
 0001:00021cc8       _strnicoll_l               0000000180022cc8 f   libucrt:strnicol.obj
 0001:00021dc8       __acrt_initialize_locks    0000000180022dc8 f   libucrt:locks.obj
 0001:00021e10       __acrt_lock                0000000180022e10 f   libucrt:locks.obj
 0001:00021e2c       __acrt_uninitialize_locks  0000000180022e2c f   libucrt:locks.obj
 0001:00021e64       __acrt_unlock              0000000180022e64 f   libucrt:locks.obj
 0001:00021e80       ??$?RV<lambda_99476a1ad63dd22509b5d3e65b0ffc95>@@AEAV<lambda_ad1ced32f4ac17aa236e5ef05d6b3b7c>@@V<lambda_f7424dd8d45958661754dc4f2697e9c3>@@@?$__crt_seh_guarded_call@X@@QEAAX$$QEAV<lambda_99476a1ad63dd22509b5d3e65b0ffc95>@@AEAV<lambda_ad1ced32f4ac17aa236e5ef05d6b3b7c>@@$$QEAV<lambda_f7424dd8d45958661754dc4f2697e9c3>@@@Z 0000000180022e80 f i libucrt:mbctype.obj
 0001:0002257c       __acrt_initialize_multibyte 000000018002357c f   libucrt:mbctype.obj
 0001:000225a4       __acrt_update_thread_multibyte_data 00000001800235a4 f   libucrt:mbctype.obj
 0001:00022664       _setmbcp_nolock            0000000180023664 f   libucrt:mbctype.obj
 0001:0002290c       __dcrt_get_narrow_environment_from_os 000000018002390c f   libucrt:get_environment_from_os.obj
 0001:00022dec       __dcrt_set_variable_in_narrow_environment_nolock 0000000180023dec f   libucrt:setenv.obj
 0001:00022df4       _recalloc                  0000000180023df4 f   libucrt:recalloc.obj
 0001:00022dfc       _recalloc_base             0000000180023dfc f   libucrt:recalloc.obj
 0001:00022e94       __acrt_initialize_heap     0000000180023e94 f   libucrt:heap_handle.obj
 0001:00022eb0       __acrt_uninitialize_heap   0000000180023eb0 f   libucrt:heap_handle.obj
 0001:00022ebc       __acrt_initialize_command_line 0000000180023ebc f   libucrt:argv_data.obj
 0001:00022ee4       __acrt_uninitialize_command_line 0000000180023ee4 f   libucrt:argv_data.obj
 0001:00022ee8       __acrt_execute_initializers 0000000180023ee8 f   libucrt:shared_initialization.obj
 0001:00022f7c       __acrt_execute_uninitializers 0000000180023f7c f   libucrt:shared_initialization.obj
 0001:00022fcc       __acrt_has_user_matherr    0000000180023fcc f   libucrt:matherr.obj
 0001:00022fec       __acrt_initialize_user_matherr 0000000180023fec f   libucrt:matherr.obj
 0001:00022ff4       __acrt_invoke_user_matherr 0000000180023ff4 f   libucrt:matherr.obj
 0001:0002303c       _query_new_mode            000000018002403c f   libucrt:new_mode.obj
 0001:00023044       __pctype_func              0000000180024044 f   libucrt:ctype.obj
 0001:00023074       iswctype                   0000000180024074 f   libucrt:iswctype.obj
 0001:000230e4       _isctype_l                 00000001800240e4 f   libucrt:isctype.obj
 0001:000231f4       __acrt_add_locale_ref      00000001800241f4 f   libucrt:locale_refcounting.obj
 0001:00023280       __acrt_free_locale         0000000180024280 f   libucrt:locale_refcounting.obj
 0001:000233f8       __acrt_locale_add_lc_time_reference 00000001800243f8 f   libucrt:locale_refcounting.obj
 0001:00023420       __acrt_locale_free_lc_time_if_unreferenced 0000000180024420 f   libucrt:locale_refcounting.obj
 0001:00023458       __acrt_locale_release_lc_time_reference 0000000180024458 f   libucrt:locale_refcounting.obj
 0001:00023480       __acrt_release_locale_ref  0000000180024480 f   libucrt:locale_refcounting.obj
 0001:00023528       __acrt_update_thread_locale_data 0000000180024528 f   libucrt:locale_refcounting.obj
 0001:00023598       _updatetlocinfoEx_nolock   0000000180024598 f   libucrt:locale_refcounting.obj
 0001:00023610       strncmp                    0000000180024610 f   libucrt:strncmp.obj
 0001:00023690       __ascii_strnicmp           0000000180024690 f   libucrt:strnicmp.obj
 0001:000236d8       _strnicmp                  00000001800246d8 f   libucrt:strnicmp.obj
 0001:00023728       _strnicmp_l                0000000180024728 f   libucrt:strnicmp.obj
 0001:00023e48       _sopen_nolock              0000000180024e48 f   libucrt:open.obj
 0001:00023ed8       _sopen_s                   0000000180024ed8 f   libucrt:open.obj
 0001:00023f0c       _wsopen_nolock             0000000180024f0c f   libucrt:open.obj
 0001:000243c4       __acrt_DownlevelLocaleNameToLCID 00000001800253c4 f   libucrt:lcidtoname_downlevel.obj
 0001:000243f8       ??$?RV<lambda_b521505b218e5242e90febf6bfebc422>@@AEAV<lambda_6978c1fb23f02e42e1d9e99668cc68aa>@@V<lambda_314360699dd331753a4119843814e9a7>@@@?$__crt_seh_guarded_call@H@@QEAAH$$QEAV<lambda_b521505b218e5242e90febf6bfebc422>@@AEAV<lambda_6978c1fb23f02e42e1d9e99668cc68aa>@@$$QEAV<lambda_314360699dd331753a4119843814e9a7>@@@Z 00000001800253f8 f i libucrt:commit.obj
 0001:00024484       _commit                    0000000180025484 f   libucrt:commit.obj
 0001:00024ab8       _write                     0000000180025ab8 f   libucrt:write.obj
 0001:00024ba4       _write_nolock              0000000180025ba4 f   libucrt:write.obj
 0001:00024e88       __acrt_lowio_create_handle_array 0000000180025e88 f   libucrt:osfinfo.obj
 0001:00024f20       __acrt_lowio_destroy_handle_array 0000000180025f20 f   libucrt:osfinfo.obj
 0001:00024f70       __acrt_lowio_ensure_fh_exists 0000000180025f70 f   libucrt:osfinfo.obj
 0001:00025028       __acrt_lowio_lock_fh       0000000180026028 f   libucrt:osfinfo.obj
 0001:0002504c       __acrt_lowio_set_os_handle 000000018002604c f   libucrt:osfinfo.obj
 0001:0002510c       __acrt_lowio_unlock_fh     000000018002610c f   libucrt:osfinfo.obj
 0001:00025130       _alloc_osfhnd              0000000180026130 f   libucrt:osfinfo.obj
 0001:00025260       _free_osfhnd               0000000180026260 f   libucrt:osfinfo.obj
 0001:0002531c       _get_osfhandle             000000018002631c f   libucrt:osfinfo.obj
 0001:00025394       _isleadbyte_l              0000000180026394 f i libucrt:_wctype.obj
 0001:00025730       __acrt_LCMapStringA        0000000180026730 f   libucrt:lcmapstringa.obj
 0001:000257c8       __acrt_fp_strflt_to_string 00000001800267c8 f   libucrt:_fptostr.obj
 0001:00025890       ?divide@__crt_strtox@@YA_KAEAUbig_integer@1@AEBU21@@Z 0000000180026890 f i libucrt:cfout.obj
 0001:00025d60       __acrt_fltout              0000000180026d60 f   libucrt:cfout.obj
 0001:00027364       __acrt_stdio_flush_and_write_narrow_nolock 0000000180028364 f   libucrt:_flsbuf.obj
 0001:0002744c       __acrt_stdio_flush_and_write_wide_nolock 000000018002844c f   libucrt:_flsbuf.obj
 0001:00027538       _isatty                    0000000180028538 f   libucrt:isatty.obj
 0001:00027598       __acrt_locale_free_monetary 0000000180028598 f   libucrt:initmon.obj
 0001:000276a4       __acrt_locale_free_numeric 00000001800286a4 f   libucrt:initnum.obj
 0001:00027768       __acrt_locale_free_time    0000000180028768 f   libucrt:inittime.obj
 0001:00027870       __acrt_GetStringTypeA      0000000180028870 f   libucrt:getstringtypea.obj
 0001:00027db8       __acrt_CompareStringA      0000000180028db8 f   libucrt:comparestringa.obj
 0001:00027e5c       _msize                     0000000180028e5c f   libucrt:msize.obj
 0001:00027e98       _realloc_base              0000000180028e98 f   libucrt:realloc_base.obj
 0001:00027f1c       _get_fmode                 0000000180028f1c f   libucrt:setmode.obj
 0001:00027f4c       _setmode_nolock            0000000180028f4c f   libucrt:setmode.obj
 0001:0002802c       _chsize_nolock             000000018002902c f   libucrt:chsize.obj
 0001:000286d8       _read_nolock               00000001800296d8 f   libucrt:read.obj
 0001:00028ccc       _lseeki64                  0000000180029ccc f   libucrt:lseek.obj
 0001:00028cd4       _lseeki64_nolock           0000000180029cd4 f   libucrt:lseek.obj
 0001:00028cdc       _putwch_nolock             0000000180029cdc f   libucrt:putwch.obj
 0001:00028d38       __strncnt                  0000000180029d38 f   libucrt:strncnt.obj
 0001:00028d50       fegetenv                   0000000180029d50 f   libucrt:fegetenv.obj
 0001:00028d70       fesetenv                   0000000180029d70 f   libucrt:fesetenv.obj
 0001:00028dbc       feholdexcept               0000000180029dbc f   libucrt:feholdexcept.obj
 0001:00028e0c       ceil                       0000000180029e0c f   libucrt:ceil.obj
 0001:00028ed0       log10                      0000000180029ed0 f   libucrt:log10.obj
 0001:0002947c       __acrt_stdio_allocate_buffer_nolock 000000018002a47c f   libucrt:_getbuf.obj
 0001:000294e0       __dcrt_lowio_initialize_console_output 000000018002a4e0 f   libucrt:initcon.obj
 0001:0002951c       __dcrt_terminate_console_output 000000018002a51c f   libucrt:initcon.obj
 0001:0002953c       _getfpcontrolword          000000018002a53c f   libucrt:_fenvutils.obj
 0001:00029554       _getfpstatusword           000000018002a554 f   libucrt:_fenvutils.obj
 0001:00029568       _setfpcontrolword          000000018002a568 f   libucrt:_fenvutils.obj
 0001:00029574       _setfpstatusword           000000018002a574 f   libucrt:_fenvutils.obj
 0001:000295c4       _clearfp                   000000018002a5c4 f   libucrt:ieee.obj
 0001:00029618       _controlfp                 000000018002a618 f   libucrt:ieee.obj
 0001:00029624       _statusfp                  000000018002a624 f   libucrt:ieee.obj
 0001:00029a28       _handle_error              000000018002aa28 f   libucrt:libm_error.obj
 0001:00029b50       _handle_errorf             000000018002ab50 f   libucrt:libm_error.obj
 0001:00029c84       _handle_nan                000000018002ac84 f   libucrt:libm_error.obj
 0001:00029ca0       _handle_nanf               000000018002aca0 f   libucrt:libm_error.obj
 0001:00029cb0       __acrt_initialize_fma3     000000018002acb0 f   libucrt:fma3_available.obj
 0001:00029d20       _log10_special             000000018002ad20 f   libucrt:log_special.obj
 0001:00029df0       _get_fpsr                  000000018002adf0 f   libucrt:fpsr.obj
 0001:00029e00       _set_fpsr                  000000018002ae00 f   libucrt:fpsr.obj
 0001:00029e0a       _fclrf                     000000018002ae0a f   libucrt:fpsr.obj
 0001:00029e1e       _frnd                      000000018002ae1e f   libucrt:fpsr.obj
 0001:00029e40       _raise_exc                 000000018002ae40 f   libucrt:fpexcept.obj
 0001:00029e68       _raise_exc_ex              000000018002ae68 f   libucrt:fpexcept.obj
 0001:0002a170       _raise_excf                000000018002b170 f   libucrt:fpexcept.obj
 0001:0002a19c       _set_errno_from_matherr    000000018002b19c f   libucrt:fpexcept.obj
 0001:0002a1cc       _clrfp                     000000018002b1cc f   libucrt:fpctrl.obj
 0001:0002a1ec       _ctrlfp                    000000018002b1ec f   libucrt:fpctrl.obj
 0001:0002a268       _set_statfp                000000018002b268 f   libucrt:fpctrl.obj
 0001:0002a288       _statfp                    000000018002b288 f   libucrt:fpctrl.obj
 0001:0002a29a       IsProcessorFeaturePresent  000000018002b29a f   kernel32:KERNEL32.dll
 0001:0002a2a0       RtlUnwindEx                000000018002b2a0 f   kernel32:KERNEL32.dll
 0001:0002a2a6       SystemFunction036          000000018002b2a6 f   advapi32:ADVAPI32.dll
 0001:0002a2ac       ?DloadAcquireSectionWriteAccess@@YAXXZ 000000018002b2ac f i DelayImp:delayhlp.obj
 0001:0002a368       ?DloadGetSRWLockFunctionPointers@@YAEXZ 000000018002b368 f i DelayImp:delayhlp.obj
 0001:0002a404       ?DloadMakePermanentImageCommit@@YAXPEAX_K@Z 000000018002b404 f i DelayImp:delayhlp.obj
 0001:0002a49c       ?DloadObtainSection@@YAPEAXPEAK0@Z 000000018002b49c f i DelayImp:delayhlp.obj
 0001:0002a534       ?DloadProtectSection@@YAXKPEAK@Z 000000018002b534 f i DelayImp:delayhlp.obj
 0001:0002a5c4       ?DloadReleaseSectionWriteAccess@@YAXXZ 000000018002b5c4 f i DelayImp:delayhlp.obj
 0001:0002a668       __delayLoadHelper2         000000018002b668 f   DelayImp:delayhlp.obj
 0001:0002a970       _FindPESection             000000018002b970 f   LIBCMT:pesect.obj
 0001:0002a9c0       _IsNonwritableInCurrentImage 000000018002b9c0 f   LIBCMT:pesect.obj
 0001:0002aa10       _ValidateImageBase         000000018002ba10 f   LIBCMT:pesect.obj
 0001:0002aa40       __GSHandlerCheck           000000018002ba40 f   LIBCMT:_gshandler_.obj
 0001:0002aa60       __GSHandlerCheckCommon     000000018002ba60 f   LIBCMT:_gshandler_.obj
 0001:0002aad0       _alloca_probe              000000018002bad0 f   LIBCMT:_chkstk_.obj
 0001:0002aad0       __chkstk                   000000018002bad0 f   LIBCMT:_chkstk_.obj
 0001:0002ab24       strrchr                    000000018002bb24 f   libvcruntime:strrchr.obj
 0001:0002ac80       memcmp                     000000018002bc80 f   libvcruntime:memcmp.obj
 0001:0002ad48       strchr                     000000018002bd48 f   libvcruntime:strchr.obj
 0001:0002add4       __GSHandlerCheck_EH        000000018002bdd4 f   LIBCMT:gshandlereh.obj
 0001:0002ae70       cos                        000000018002be70 f   libucrt:cos.obj
 0001:0002b3f0       cosf                       000000018002c3f0 f   libucrt:cosf.obj
 0001:0002b8f0       expf                       000000018002c8f0 f   libucrt:expf.obj
 0001:0002bb98       floor                      000000018002cb98 f   libucrt:floor.obj
 0001:0002bc50       powf                       000000018002cc50 f   libucrt:powf.obj
 0001:0002cb20       sin                        000000018002db20 f   libucrt:sin.obj
 0001:0002d090       sinf                       000000018002e090 f   libucrt:sinf.obj
 0001:0002d790       __remainder_piby2_forAsm   000000018002e790 f   libucrt:remainder_piby2_forasm.obj
 0001:0002d9a0       __remainder_piby2_cw_forAsm 000000018002e9a0 f   libucrt:remainder_piby2_forasm.obj
 0001:0002dae0       __remainder_piby2_fma3     000000018002eae0 f   libucrt:remainder_piby2_forfma3.obj
 0001:0002dcd0       __remainder_piby2_fma3_bdl 000000018002ecd0 f   libucrt:remainder_piby2_forfma3.obj
 0001:0002dd48       _cos_special               000000018002ed48 f   libucrt:sincos_special.obj
 0001:0002dd5c       _cosf_special              000000018002ed5c f   libucrt:sincos_special.obj
 0001:0002dd70       _sin_special               000000018002ed70 f   libucrt:sincos_special.obj
 0001:0002deb4       _sinf_special              000000018002eeb4 f   libucrt:sincos_special.obj
 0001:0002ded0       __remainder_piby2d2f_forAsm 000000018002eed0 f   libucrt:remainder_piby2f_forasm.obj
 0001:0002e020       _expf_special              000000018002f020 f   libucrt:exp_special.obj
 0001:0002e0c8       _powf_special              000000018002f0c8 f   libucrt:pow_special.obj
 0001:0002e260       __remainder_piby2d2f_forC  000000018002f260 f   libucrt:remainder_piby2f_forc.obj
 0001:0002e400       _guard_dispatch_icall_nop  000000018002f400 f   LIBCMT:_guard_dispatch_.obj
 0001:000303c0       ??__Fs_path@?1??temporary_path@cimg@cimg_library@@YAPEBDQEBD_N@Z@YAXXZ 00000001800313c0 f i image.obj
 0001:000303e0       ??__Fs_path@?1??programfiles_path@cimg@cimg_library@@YAPEBDQEBD_N@Z@YAXXZ 00000001800313e0 f i image.obj
 0001:00030400       ??__Fs_path@?1??imagemagick_path@cimg@cimg_library@@YAPEBDQEBD_N@Z@YAXXZ 0000000180031400 f i image.obj
 0001:00030420       ??__Fs_path@?1??graphicsmagick_path@cimg@cimg_library@@YAPEBDQEBD_N@Z@YAXXZ 0000000180031420 f i image.obj
 0001:00030440       ??__Fs_path@?1??medcon_path@cimg@cimg_library@@YAPEBDQEBD_N@Z@YAXXZ 0000000180031440 f i image.obj
 0001:00030460       ??__Fres@?1??strbuffersize@cimg@cimg_library@@YAPEBDK@Z@YAXXZ 0000000180031460 f i image.obj
 0002:00000000       __imp_SystemFunction036    0000000180032000     advapi32:ADVAPI32.dll
 0002:00000008       \177ADVAPI32_NULL_THUNK_DATA 0000000180032008     advapi32:ADVAPI32.dll
 0002:00000010       __imp_WaitForSingleObject  0000000180032010     kernel32:KERNEL32.dll
 0002:00000018       __imp_ReleaseMutex         0000000180032018     kernel32:KERNEL32.dll
 0002:00000020       __imp_GetLocalTime         0000000180032020     kernel32:KERNEL32.dll
 0002:00000028       __imp_GetModuleHandleA     0000000180032028     kernel32:KERNEL32.dll
 0002:00000030       __imp_VirtualQuery         0000000180032030     kernel32:KERNEL32.dll
 0002:00000038       __imp_VirtualProtect       0000000180032038     kernel32:KERNEL32.dll
 0002:00000040       __imp_CloseHandle          0000000180032040     kernel32:KERNEL32.dll
 0002:00000048       __imp_EnterCriticalSection 0000000180032048     kernel32:KERNEL32.dll
 0002:00000050       __imp_LeaveCriticalSection 0000000180032050     kernel32:KERNEL32.dll
 0002:00000058       __imp_DeleteCriticalSection 0000000180032058     kernel32:KERNEL32.dll
 0002:00000060       __imp_SetEvent             0000000180032060     kernel32:KERNEL32.dll
 0002:00000068       __imp_ResetEvent           0000000180032068     kernel32:KERNEL32.dll
 0002:00000070       __imp_WaitForSingleObjectEx 0000000180032070     kernel32:KERNEL32.dll
 0002:00000078       __imp_CreateEventW         0000000180032078     kernel32:KERNEL32.dll
 0002:00000080       __imp_GetModuleHandleW     0000000180032080     kernel32:KERNEL32.dll
 0002:00000088       __imp_GetProcAddress       0000000180032088     kernel32:KERNEL32.dll
 0002:00000090       __imp_RtlCaptureContext    0000000180032090     kernel32:KERNEL32.dll
 0002:00000098       __imp_RtlLookupFunctionEntry 0000000180032098     kernel32:KERNEL32.dll
 0002:000000a0       __imp_RtlVirtualUnwind     00000001800320a0     kernel32:KERNEL32.dll
 0002:000000a8       __imp_UnhandledExceptionFilter 00000001800320a8     kernel32:KERNEL32.dll
 0002:000000b0       __imp_SetUnhandledExceptionFilter 00000001800320b0     kernel32:KERNEL32.dll
 0002:000000b8       __imp_GetCurrentProcess    00000001800320b8     kernel32:KERNEL32.dll
 0002:000000c0       __imp_TerminateProcess     00000001800320c0     kernel32:KERNEL32.dll
 0002:000000c8       __imp_IsProcessorFeaturePresent 00000001800320c8     kernel32:KERNEL32.dll
 0002:000000d0       __imp_IsDebuggerPresent    00000001800320d0     kernel32:KERNEL32.dll
 0002:000000d8       __imp_GetStartupInfoW      00000001800320d8     kernel32:KERNEL32.dll
 0002:000000e0       __imp_QueryPerformanceCounter 00000001800320e0     kernel32:KERNEL32.dll
 0002:000000e8       __imp_GetCurrentProcessId  00000001800320e8     kernel32:KERNEL32.dll
 0002:000000f0       __imp_GetCurrentThreadId   00000001800320f0     kernel32:KERNEL32.dll
 0002:000000f8       __imp_GetSystemTimeAsFileTime 00000001800320f8     kernel32:KERNEL32.dll
 0002:00000100       __imp_InitializeSListHead  0000000180032100     kernel32:KERNEL32.dll
 0002:00000108       __imp_RtlPcToFileHeader    0000000180032108     kernel32:KERNEL32.dll
 0002:00000110       __imp_EncodePointer        0000000180032110     kernel32:KERNEL32.dll
 0002:00000118       __imp_RaiseException       0000000180032118     kernel32:KERNEL32.dll
 0002:00000120       __imp_RtlUnwindEx          0000000180032120     kernel32:KERNEL32.dll
 0002:00000128       __imp_GetLastError         0000000180032128     kernel32:KERNEL32.dll
 0002:00000130       __imp_InitializeCriticalSectionAndSpinCount 0000000180032130     kernel32:KERNEL32.dll
 0002:00000138       __imp_TlsAlloc             0000000180032138     kernel32:KERNEL32.dll
 0002:00000140       __imp_TlsGetValue          0000000180032140     kernel32:KERNEL32.dll
 0002:00000148       __imp_TlsSetValue          0000000180032148     kernel32:KERNEL32.dll
 0002:00000150       __imp_TlsFree              0000000180032150     kernel32:KERNEL32.dll
 0002:00000158       __imp_FreeLibrary          0000000180032158     kernel32:KERNEL32.dll
 0002:00000160       __imp_LoadLibraryExW       0000000180032160     kernel32:KERNEL32.dll
 0002:00000168       __imp_GetModuleFileNameW   0000000180032168     kernel32:KERNEL32.dll
 0002:00000170       __imp_InterlockedFlushSList 0000000180032170     kernel32:KERNEL32.dll
 0002:00000178       __imp_CreateMutexA         0000000180032178     kernel32:KERNEL32.dll
 0002:00000180       __imp_GetStdHandle         0000000180032180     kernel32:KERNEL32.dll
 0002:00000188       __imp_GetFileType          0000000180032188     kernel32:KERNEL32.dll
 0002:00000190       __imp_GetModuleHandleExW   0000000180032190     kernel32:KERNEL32.dll
 0002:00000198       __imp_WriteConsoleW        0000000180032198     kernel32:KERNEL32.dll
 0002:000001a0       __imp_ExitProcess          00000001800321a0     kernel32:KERNEL32.dll
 0002:000001a8       __imp_MultiByteToWideChar  00000001800321a8     kernel32:KERNEL32.dll
 0002:000001b0       __imp_WideCharToMultiByte  00000001800321b0     kernel32:KERNEL32.dll
 0002:000001b8       __imp_HeapFree             00000001800321b8     kernel32:KERNEL32.dll
 0002:000001c0       __imp_HeapAlloc            00000001800321c0     kernel32:KERNEL32.dll
 0002:000001c8       __imp_CompareStringW       00000001800321c8     kernel32:KERNEL32.dll
 0002:000001d0       __imp_LCMapStringW         00000001800321d0     kernel32:KERNEL32.dll
 0002:000001d8       __imp_DeleteFileW          00000001800321d8     kernel32:KERNEL32.dll
 0002:000001e0       __imp_GetACP               00000001800321e0     kernel32:KERNEL32.dll
 0002:000001e8       __imp_WriteFile            00000001800321e8     kernel32:KERNEL32.dll
 0002:000001f0       __imp_OutputDebugStringW   00000001800321f0     kernel32:KERNEL32.dll
 0002:000001f8       __imp_CreateThread         00000001800321f8     kernel32:KERNEL32.dll
 0002:00000200       __imp_IsValidCodePage      0000000180032200     kernel32:KERNEL32.dll
 0002:00000208       __imp_GetOEMCP             0000000180032208     kernel32:KERNEL32.dll
 0002:00000210       __imp_GetCPInfo            0000000180032210     kernel32:KERNEL32.dll
 0002:00000218       __imp_GetEnvironmentStringsW 0000000180032218     kernel32:KERNEL32.dll
 0002:00000220       __imp_FreeEnvironmentStringsW 0000000180032220     kernel32:KERNEL32.dll
 0002:00000228       __imp_SetEnvironmentVariableA 0000000180032228     kernel32:KERNEL32.dll
 0002:00000230       __imp_GetProcessHeap       0000000180032230     kernel32:KERNEL32.dll
 0002:00000238       __imp_GetCommandLineA      0000000180032238     kernel32:KERNEL32.dll
 0002:00000240       __imp_GetCommandLineW      0000000180032240     kernel32:KERNEL32.dll
 0002:00000248       __imp_GetStringTypeW       0000000180032248     kernel32:KERNEL32.dll
 0002:00000250       __imp_CreateFileW          0000000180032250     kernel32:KERNEL32.dll
 0002:00000258       __imp_FlushFileBuffers     0000000180032258     kernel32:KERNEL32.dll
 0002:00000260       __imp_GetConsoleCP         0000000180032260     kernel32:KERNEL32.dll
 0002:00000268       __imp_GetConsoleMode       0000000180032268     kernel32:KERNEL32.dll
 0002:00000270       __imp_SetStdHandle         0000000180032270     kernel32:KERNEL32.dll
 0002:00000278       __imp_HeapSize             0000000180032278     kernel32:KERNEL32.dll
 0002:00000280       __imp_HeapReAlloc          0000000180032280     kernel32:KERNEL32.dll
 0002:00000288       __imp_SetEndOfFile         0000000180032288     kernel32:KERNEL32.dll
 0002:00000290       __imp_ReadFile             0000000180032290     kernel32:KERNEL32.dll
 0002:00000298       __imp_ReadConsoleW         0000000180032298     kernel32:KERNEL32.dll
 0002:000002a0       __imp_SetFilePointerEx     00000001800322a0     kernel32:KERNEL32.dll
 0002:000002a8       __imp_SetLastError         00000001800322a8     kernel32:KERNEL32.dll
 0002:000002b0       __imp_GetShortPathNameA    00000001800322b0     kernel32:KERNEL32.dll
 0002:000002b8       __imp_GetSystemInfo        00000001800322b8     kernel32:KERNEL32.dll
 0002:000002c0       __imp_LoadLibraryExA       00000001800322c0     kernel32:KERNEL32.dll
 0002:000002c8       \177KERNEL32_NULL_THUNK_DATA 00000001800322c8     kernel32:KERNEL32.dll
 0002:000002d0       __imp_SHGetSpecialFolderPathA 00000001800322d0     shell32:SHELL32.dll
 0002:000002d8       \177SHELL32_NULL_THUNK_DATA 00000001800322d8     shell32:SHELL32.dll
 0002:000002e0       __guard_check_icall_fptr   00000001800322e0     LIBCMT:guard_support.obj
 0002:000002e8       __guard_dispatch_icall_fptr 00000001800322e8     LIBCMT:guard_support.obj
 0002:000002f0       __xc_a                     00000001800322f0     LIBCMT:initializers.obj
 0002:00000300       _register_lwip_image_      0000000180032300     init.obj
 0002:00000308       __xc_z                     0000000180032308     LIBCMT:initializers.obj
 0002:00000310       __xi_a                     0000000180032310     LIBCMT:initializers.obj
 0002:00000320       __acrt_stdio_initializer   0000000180032320     libucrt:stdio_initializer.obj
 0002:00000328       __acrt_multibyte_initializer 0000000180032328     libucrt:multibyte_initializer.obj
 0002:00000330       __acrt_tran_fma3_initializer 0000000180032330     libucrt:fma3_initializer.obj
 0002:00000338       __xi_z                     0000000180032338     LIBCMT:initializers.obj
 0002:00000340       __xl_a                     0000000180032340     LIBCMT:tlssup.obj
 0002:00000348       __xl_z                     0000000180032348     LIBCMT:tlssup.obj
 0002:00000350       __xp_a                     0000000180032350     LIBCMT:initializers.obj
 0002:00000358       __acrt_locale_terminator   0000000180032358     libucrt:locale_initializer.obj
 0002:00000360       __dcrt_console_output_terminator 0000000180032360     libucrt:console_output_initializer.obj
 0002:00000368       __acrt_stdio_terminator    0000000180032368     libucrt:stdio_initializer.obj
 0002:00000370       __xp_z                     0000000180032370     LIBCMT:initializers.obj
 0002:00000378       __xt_a                     0000000180032378     LIBCMT:initializers.obj
 0002:00000380       __xt_z                     0000000180032380     LIBCMT:initializers.obj
 0002:00000390       __sz_node_exe              0000000180032390     node:node.exe
 0002:000003a8       ??_7exception@std@@6B@     00000001800323a8     libcpmt:xthrow.obj
 0002:000003b8       ??_C@_0BC@EOODALEL@Unknown?5exception?$AA@ 00000001800323b8     libcpmt:xthrow.obj
 0002:000003d8       ??_7bad_alloc@std@@6B@     00000001800323d8     libcpmt:xthrow.obj
 0002:000003e8       ??_C@_0P@GHFPNOJB@bad?5allocation?$AA@ 00000001800323e8     libcpmt:xthrow.obj
 0002:00000400       ??_7logic_error@std@@6B@   0000000180032400     libcpmt:xthrow.obj
 0002:00000418       ??_7length_error@std@@6B@  0000000180032418     libcpmt:xthrow.obj
 0002:00000430       ??_7out_of_range@std@@6B@  0000000180032430     libcpmt:xthrow.obj
 0002:00000440       ??_C@_1BK@MGMFAEKH@?$AAk?$AAe?$AAr?$AAn?$AAe?$AAl?$AA3?$AA2?$AA?4?$AAd?$AAl?$AAl?$AA?$AA@ 0000000180032440     LIBCMT:thread_safe_statics.obj
 0002:00000460       ??_C@_0BM@HLJJNPAH@InitializeConditionVariable?$AA@ 0000000180032460     LIBCMT:thread_safe_statics.obj
 0002:00000480       ??_C@_0BJ@JEBJOJFJ@SleepConditionVariableCS?$AA@ 0000000180032480     LIBCMT:thread_safe_statics.obj
 0002:000004a0       ??_C@_0BJ@PGPPEPCC@WakeAllConditionVariable?$AA@ 00000001800324a0     LIBCMT:thread_safe_statics.obj
 0002:000004c8       ??_7type_info@@6B@         00000001800324c8     LIBCMT:std_type_info_static.obj
 0002:000004d0       _pRawDllMain               00000001800324d0     LIBCMT:dll_dllmain.obj
 0002:000004d0       _pDefaultRawDllMain        00000001800324d0     LIBCMT:dll_dllmain.obj
 0002:000004f0       ??_7bad_array_new_length@std@@6B@ 00000001800324f0     LIBCMT:throw_bad_alloc.obj
 0002:00000500       ??_C@_0BF@KINCDENJ@bad?5array?5new?5length?$AA@ 0000000180032500     LIBCMT:throw_bad_alloc.obj
 0002:00000518       _pDestructExceptionObject  0000000180032518     libvcruntime:frame.obj
 0002:00000528       ??_7bad_exception@std@@6B@ 0000000180032528     libvcruntime:frame.obj
 0002:00000538       ??_C@_0O@DPKOEFFH@bad?5exception?$AA@ 0000000180032538     libvcruntime:frame.obj
 0002:000005b0       ??_C@_1BC@DNHGCMLG@?$AAa?$AAd?$AAv?$AAa?$AAp?$AAi?$AA3?$AA2?$AA?$AA@ 00000001800325b0     libvcruntime:winapi_downlevel.obj
 0002:000005c8       ??_C@_1DM@KHCHBNEB@?$AAa?$AAp?$AAi?$AA?9?$AAm?$AAs?$AA?9?$AAw?$AAi?$AAn?$AA?9?$AAc?$AAo?$AAr?$AAe?$AA?9?$AAf?$AAi?$AAb?$AAe?$AAr?$AAs?$AA?9?$AAl?$AA1?$AA?9?$AA1?$AA?9?$AA1?$AA?$AA@ 00000001800325c8     libvcruntime:winapi_downlevel.obj
 0002:00000608       ??_C@_1DK@LPPGFMPP@?$AAa?$AAp?$AAi?$AA?9?$AAm?$AAs?$AA?9?$AAw?$AAi?$AAn?$AA?9?$AAc?$AAo?$AAr?$AAe?$AA?9?$AAs?$AAy?$AAn?$AAc?$AAh?$AA?9?$AAl?$AA1?$AA?9?$AA2?$AA?9?$AA0?$AA?$AA@ 0000000180032608     libvcruntime:winapi_downlevel.obj
 0002:00000648       ??_C@_1BC@GDMECMAK@?$AAk?$AAe?$AAr?$AAn?$AAe?$AAl?$AA3?$AA2?$AA?$AA@ 0000000180032648     libvcruntime:winapi_downlevel.obj
 0002:00000660       ??_C@_0O@BAMBGLIE@EventRegister?$AA@ 0000000180032660     libvcruntime:winapi_downlevel.obj
 0002:00000678       ??_C@_0BE@BJEEGHGK@EventSetInformation?$AA@ 0000000180032678     libvcruntime:winapi_downlevel.obj
 0002:00000690       ??_C@_0BA@FAKLIPIC@EventUnregister?$AA@ 0000000180032690     libvcruntime:winapi_downlevel.obj
 0002:000006a8       ??_C@_0BD@PKLHJPHD@EventWriteTransfer?$AA@ 00000001800326a8     libvcruntime:winapi_downlevel.obj
 0002:000006c8       ??_C@_08KNHFBNJ@FlsAlloc?$AA@ 00000001800326c8     libvcruntime:winapi_downlevel.obj
 0002:000006e0       ??_C@_07PEJMOBNF@FlsFree?$AA@ 00000001800326e0     libvcruntime:winapi_downlevel.obj
 0002:000006f0       ??_C@_0M@GDNOONDI@FlsGetValue?$AA@ 00000001800326f0     libvcruntime:winapi_downlevel.obj
 0002:00000708       ??_C@_0M@JCPCPOEF@FlsSetValue?$AA@ 0000000180032708     libvcruntime:winapi_downlevel.obj
 0002:00000720       ??_C@_0BM@HCFOFFN@InitializeCriticalSectionEx?$AA@ 0000000180032720     libvcruntime:winapi_downlevel.obj
 0002:00000740       _Microsoft_CRTProvider     0000000180032740     libvcruntime:telemetry.obj
 0002:00000748       ??_C@_11LOCGONAA@?$AA?$AA@ 0000000180032748     libvcruntime:telemetry.obj
 0002:00000750       ??_C@_0O@JEOPJOMI@Main?5Invoked?4?$AA@ 0000000180032750     libvcruntime:telemetry.obj
 0002:00000760       ??_C@_0P@NEAEIBDO@Main?5Returned?4?$AA@ 0000000180032760     libvcruntime:telemetry.obj
 0002:00000808       ??_C@_02EEKDKGMJ@?$DO?$DN?$AA@ 0000000180032808     libvcruntime:undname.obj
 0002:0000080c       ??_C@_01IHBHIGKO@?0?$AA@   000000018003280c     libvcruntime:undname.obj
 0002:00000810       ??_C@_02HCKGKOFO@?$CI?$CJ?$AA@ 0000000180032810     libvcruntime:undname.obj
 0002:00000814       ??_C@_01PJKLJHI@?$HO?$AA@  0000000180032814     libvcruntime:undname.obj
 0002:00000818       ??_C@_01JKBOJNNK@?$FO?$AA@ 0000000180032818     libvcruntime:undname.obj
 0002:0000081c       ??_C@_01DNKMNLPK@?$HM?$AA@ 000000018003281c     libvcruntime:undname.obj
 0002:00000820       ??_C@_02PPKAJPJL@?$CG?$CG?$AA@ 0000000180032820     libvcruntime:undname.obj
 0002:00000824       ??_C@_02NONPIBCD@?$HM?$HM?$AA@ 0000000180032824     libvcruntime:undname.obj
 0002:00000828       ??_C@_02FPIMKNGF@?$CK?$DN?$AA@ 0000000180032828     libvcruntime:undname.obj
 0002:0000082c       ??_C@_02FOEOMHFC@?$CL?$DN?$AA@ 000000018003282c     libvcruntime:undname.obj
 0002:00000830       ??_C@_02FKMDLLOA@?9?$DN?$AA@ 0000000180032830     libvcruntime:undname.obj
 0002:00000834       ??_C@_02FJEHGPIO@?1?$DN?$AA@ 0000000180032834     libvcruntime:undname.obj
 0002:00000838       ??_C@_02FENAOKFI@?$CF?$DN?$AA@ 0000000180032838     libvcruntime:undname.obj
 0002:0000083c       ??_C@_03IKFCCPFF@?$DO?$DO?$DN?$AA@ 000000018003283c     libvcruntime:undname.obj
 0002:00000840       ??_C@_03CDNPDDLA@?$DM?$DM?$DN?$AA@ 0000000180032840     libvcruntime:undname.obj
 0002:00000844       ??_C@_02FGJGFEAB@?$CG?$DN?$AA@ 0000000180032844     libvcruntime:undname.obj
 0002:00000848       ??_C@_02DHLNPPGH@?$HM?$DN?$AA@ 0000000180032848     libvcruntime:undname.obj
 0002:0000084c       ??_C@_02MHEGNOJ@?$FO?$DN?$AA@ 000000018003284c     libvcruntime:undname.obj
 0002:00000850       ??_C@_09IFPLHPGF@?$GAvftable?8?$AA@ 0000000180032850     libvcruntime:undname.obj
 0002:00000860       ??_C@_09BLBHBJP@?$GAvbtable?8?$AA@ 0000000180032860     libvcruntime:undname.obj
 0002:00000870       ??_C@_07FEEIOKP@?$GAvcall?8?$AA@ 0000000180032870     libvcruntime:undname.obj
 0002:00000878       ??_C@_08LLFFHHDJ@?$GAtypeof?8?$AA@ 0000000180032878     libvcruntime:undname.obj
 0002:00000888       ??_C@_0BF@KDPPACIK@?$GAlocal?5static?5guard?8?$AA@ 0000000180032888     libvcruntime:undname.obj
 0002:000008a0       ??_C@_08OBABFOLI@?$GAstring?8?$AA@ 00000001800328a0     libvcruntime:undname.obj
 0002:000008b0       ??_C@_0BD@JDLKDPAB@?$GAvbase?5destructor?8?$AA@ 00000001800328b0     libvcruntime:undname.obj
 0002:000008c8       ??_C@_0BN@DEGPLNFK@?$GAvector?5deleting?5destructor?8?$AA@ 00000001800328c8     libvcruntime:undname.obj
 0002:000008e8       ??_C@_0BO@OBMKPJIG@?$GAdefault?5constructor?5closure?8?$AA@ 00000001800328e8     libvcruntime:undname.obj
 0002:00000908       ??_C@_0BN@IMDCHIKM@?$GAscalar?5deleting?5destructor?8?$AA@ 0000000180032908     libvcruntime:undname.obj
 0002:00000928       ??_C@_0BO@PFGOCPJJ@?$GAvector?5constructor?5iterator?8?$AA@ 0000000180032928     libvcruntime:undname.obj
 0002:00000948       ??_C@_0BN@LFPFMEDL@?$GAvector?5destructor?5iterator?8?$AA@ 0000000180032948     libvcruntime:undname.obj
 0002:00000968       ??_C@_0CE@IKBNEHA@?$GAvector?5vbase?5constructor?5iterat@ 0000000180032968     libvcruntime:undname.obj
 0002:00000990       ??_C@_0BL@NILFHHPC@?$GAvirtual?5displacement?5map?8?$AA@ 0000000180032990     libvcruntime:undname.obj
 0002:000009b0       ??_C@_0CB@JONCMFFK@?$GAeh?5vector?5constructor?5iterator?8@ 00000001800329b0     libvcruntime:undname.obj
 0002:000009d8       ??_C@_0CA@GCEOPDGL@?$GAeh?5vector?5destructor?5iterator?8?$AA@ 00000001800329d8     libvcruntime:undname.obj
 0002:000009f8       ??_C@_0CH@OOJPLCPH@?$GAeh?5vector?5vbase?5constructor?5ite@ 00000001800329f8     libvcruntime:undname.obj
 0002:00000a20       ??_C@_0BL@LLKPOHJI@?$GAcopy?5constructor?5closure?8?$AA@ 0000000180032a20     libvcruntime:undname.obj
 0002:00000a40       ??_C@_0BA@KBCDOMBN@?$GAudt?5returning?8?$AA@ 0000000180032a40     libvcruntime:undname.obj
 0002:00000a50       ??_C@_03KLGMFNMG@?$GAEH?$AA@ 0000000180032a50     libvcruntime:undname.obj
 0002:00000a54       ??_C@_05KHLCHHI@?$GARTTI?$AA@ 0000000180032a54     libvcruntime:undname.obj
 0002:00000a60       ??_C@_0BA@KKLDJDLB@?$GAlocal?5vftable?8?$AA@ 0000000180032a60     libvcruntime:undname.obj
 0002:00000a70       ??_C@_0CE@IIHCMGGL@?$GAlocal?5vftable?5constructor?5closu@ 0000000180032a70     libvcruntime:undname.obj
 0002:00000a94       ??_C@_06FHBGPFGH@?5new?$FL?$FN?$AA@ 0000000180032a94     libvcruntime:undname.obj
 0002:00000aa0       ??_C@_09LBNFPBCA@?5delete?$FL?$FN?$AA@ 0000000180032aa0     libvcruntime:undname.obj
 0002:00000ab0       ??_C@_0P@HJKNJFNN@?$GAomni?5callsig?8?$AA@ 0000000180032ab0     libvcruntime:undname.obj
 0002:00000ac0       ??_C@_0BL@CNOONJFP@?$GAplacement?5delete?5closure?8?$AA@ 0000000180032ac0     libvcruntime:undname.obj
 0002:00000ae0       ??_C@_0BN@CKNJLHMB@?$GAplacement?5delete?$FL?$FN?5closure?8?$AA@ 0000000180032ae0     libvcruntime:undname.obj
 0002:00000b00       ??_C@_0CG@CFDHKGGD@?$GAmanaged?5vector?5constructor?5iter@ 0000000180032b00     libvcruntime:undname.obj
 0002:00000b28       ??_C@_0CF@IMGKMJNO@?$GAmanaged?5vector?5destructor?5itera@ 0000000180032b28     libvcruntime:undname.obj
 0002:00000b50       ??_C@_0CG@HLDDJMAG@?$GAeh?5vector?5copy?5constructor?5iter@ 0000000180032b50     libvcruntime:undname.obj
 0002:00000b78       ??_C@_0CM@FCBBDIGB@?$GAeh?5vector?5vbase?5copy?5constructo@ 0000000180032b78     libvcruntime:undname.obj
 0002:00000ba8       ??_C@_0BL@CLIPGLGB@?$GAdynamic?5initializer?5for?5?8?$AA@ 0000000180032ba8     libvcruntime:undname.obj
 0002:00000bc8       ??_C@_0CB@PDBIFEP@?$GAdynamic?5atexit?5destructor?5for?5?8@ 0000000180032bc8     libvcruntime:undname.obj
 0002:00000bf0       ??_C@_0CD@CGAJBKEJ@?$GAvector?5copy?5constructor?5iterato@ 0000000180032bf0     libvcruntime:undname.obj
 0002:00000c18       ??_C@_0CJ@GJELGAMM@?$GAvector?5vbase?5copy?5constructor?5i@ 0000000180032c18     libvcruntime:undname.obj
 0002:00000c48       ??_C@_0CL@FGIJHLCE@?$GAmanaged?5vector?5copy?5constructor@ 0000000180032c48     libvcruntime:undname.obj
 0002:00000c78       ??_C@_0BM@PMGGMLDN@?$GAlocal?5static?5thread?5guard?8?$AA@ 0000000180032c78     libvcruntime:undname.obj
 0002:00000c98       ??_C@_0N@BDNMDMOL@operator?5?$CC?$CC?5?$AA@ 0000000180032c98     libvcruntime:undname.obj
 0002:00000fd8       ??_C@_0BC@DAFEJGAK@?5Type?5Descriptor?8?$AA@ 0000000180032fd8     libvcruntime:undname.obj
 0002:00000ff0       ??_C@_0BM@LDKODKLH@?5Base?5Class?5Descriptor?5at?5?$CI?$AA@ 0000000180032ff0     libvcruntime:undname.obj
 0002:00001010       ??_C@_0BD@LGICGFMM@?5Base?5Class?5Array?8?$AA@ 0000000180033010     libvcruntime:undname.obj
 0002:00001028       ??_C@_0BN@MECKDCOJ@?5Class?5Hierarchy?5Descriptor?8?$AA@ 0000000180033028     libvcruntime:undname.obj
 0002:00001048       ??_C@_0BK@CFCOFLF@?5Complete?5Object?5Locator?8?$AA@ 0000000180033048     libvcruntime:undname.obj
 0002:00001068       ??_C@_08EHJDFFNH@__based?$CI?$AA@ 0000000180033068     libvcruntime:undname.obj
 0002:00001078       ??_C@_07KOLFKCDI@__cdecl?$AA@ 0000000180033078     libvcruntime:undname.obj
 0002:00001080       ??_C@_08GHMPAG@__pascal?$AA@ 0000000180033080     libvcruntime:undname.obj
 0002:00001090       ??_C@_09IFJBGAPI@__stdcall?$AA@ 0000000180033090     libvcruntime:undname.obj
 0002:000010a0       ??_C@_0L@NPHFGOKO@__thiscall?$AA@ 00000001800330a0     libvcruntime:undname.obj
 0002:000010b0       ??_C@_0L@JMKHOMEK@__fastcall?$AA@ 00000001800330b0     libvcruntime:undname.obj
 0002:000010c0       ??_C@_0N@BCKKPABJ@__vectorcall?$AA@ 00000001800330c0     libvcruntime:undname.obj
 0002:000010d0       ??_C@_09HIJEGCPM@__clrcall?$AA@ 00000001800330d0     libvcruntime:undname.obj
 0002:000010dc       ??_C@_06GHPCKEAG@__eabi?$AA@ 00000001800330dc     libvcruntime:undname.obj
 0002:000010e8       ??_C@_07JOMMBBKO@__ptr64?$AA@ 00000001800330e8     libvcruntime:undname.obj
 0002:000010f0       ??_C@_0L@PILCLIHE@__restrict?$AA@ 00000001800330f0     libvcruntime:undname.obj
 0002:00001100       ??_C@_0M@GFIIJFMG@__unaligned?$AA@ 0000000180033100     libvcruntime:undname.obj
 0002:00001110       ??_C@_09DHDLOLLB@restrict?$CI?$AA@ 0000000180033110     libvcruntime:undname.obj
 0002:0000111c       ??_C@_04NIHEBCM@?5new?$AA@ 000000018003311c     libvcruntime:undname.obj
 0002:00001128       ??_C@_07FPCDHGMM@?5delete?$AA@ 0000000180033128     libvcruntime:undname.obj
 0002:00001130       ??_C@_01NEMOKFLO@?$DN?$AA@ 0000000180033130     libvcruntime:undname.obj
 0002:00001134       ??_C@_02GPIOPFAK@?$DO?$DO?$AA@ 0000000180033134     libvcruntime:undname.obj
 0002:00001138       ??_C@_02FODMEDOG@?$DM?$DM?$AA@ 0000000180033138     libvcruntime:undname.obj
 0002:0000113c       ??_C@_01DCLJPIOD@?$CB?$AA@ 000000018003313c     libvcruntime:undname.obj
 0002:00001140       ??_C@_02EGOFBIJA@?$DN?$DN?$AA@ 0000000180033140     libvcruntime:undname.obj
 0002:00001144       ??_C@_02FDNJECIE@?$CB?$DN?$AA@ 0000000180033144     libvcruntime:undname.obj
 0002:00001148       ??_C@_02GPECMEKF@?$FL?$FN?$AA@ 0000000180033148     libvcruntime:undname.obj
 0002:00001150       ??_C@_08LHJFAFGD@operator?$AA@ 0000000180033150     libvcruntime:undname.obj
 0002:0000115c       ??_C@_02HBOOOICD@?9?$DO?$AA@ 000000018003315c     libvcruntime:undname.obj
 0002:00001160       ??_C@_01NBENCBCI@?$CK?$AA@ 0000000180033160     libvcruntime:undname.obj
 0002:00001164       ??_C@_02ECNGHCIF@?$CL?$CL?$AA@ 0000000180033164     libvcruntime:undname.obj
 0002:00001168       ??_C@_02BAABKJLB@?9?9?$AA@ 0000000180033168     libvcruntime:undname.obj
 0002:0000116c       ??_C@_01JOAMLHOP@?9?$AA@   000000018003316c     libvcruntime:undname.obj
 0002:00001170       ??_C@_01MIFGBAGJ@?$CL?$AA@ 0000000180033170     libvcruntime:undname.obj
 0002:00001174       ??_C@_01HNPIGOCE@?$CG?$AA@ 0000000180033174     libvcruntime:undname.obj
 0002:00001178       ??_C@_03MNHNFDLC@?9?$DO?$CK?$AA@ 0000000180033178     libvcruntime:undname.obj
 0002:0000117c       ??_C@_01KMDKNFGN@?1?$AA@   000000018003317c     libvcruntime:undname.obj
 0002:00001180       ??_C@_01FGNFDNOH@?$CF?$AA@ 0000000180033180     libvcruntime:undname.obj
 0002:00001184       ??_C@_01MNNFJEPP@?$DM?$AA@ 0000000180033184     libvcruntime:undname.obj
 0002:00001188       ??_C@_02EHCHHCKH@?$DM?$DN?$AA@ 0000000180033188     libvcruntime:undname.obj
 0002:0000118c       ??_C@_01PPODPGHN@?$DO?$AA@ 000000018003318c     libvcruntime:undname.obj
 0002:00001190       standard_lookup_table      0000000180033190     libucrt:output.obj
 0002:000011f0       format_validation_lookup_table 00000001800331f0     libucrt:output.obj
 0002:0000124c       ??_C@_06OJHGLDPL@?$CInull?$CJ?$AA@ 000000018003324c     libucrt:output.obj
 0002:00001258       ??_C@_1O@CEDCILHN@?$AA?$CI?$AAn?$AAu?$AAl?$AAl?$AA?$CJ?$AA?$AA@ 0000000180033258     libucrt:output.obj
 0002:00001270       ??_C@_1EK@MBDPDCGA@?$AAM?$AAi?$AAc?$AAr?$AAo?$AAs?$AAo?$AAf?$AAt?$AA?5?$AAV?$AAi?$AAs?$AAu?$AAa?$AAl?$AA?5?$AAC?$AA?$CL?$AA?$CL?$AA?5?$AAR?$AAu?$AAn?$AAt?$AAi?$AAm?$AAe?$AA?5?$AAL?$AAi?$AAb@ 0000000180033270     libucrt:assert.obj
 0002:000012c0       ??_C@_1FE@LHBLIKM@?$AAA?$AAs?$AAs?$AAe?$AAr?$AAt?$AAi?$AAo?$AAn?$AA?5?$AAf?$AAa?$AAi?$AAl?$AAe?$AAd?$AA?3?$AA?5?$AA?$CF?$AAT?$AAs?$AA?0?$AA?5?$AAf?$AAi?$AAl?$AAe?$AA?5?$AA?$CF?$AAT?$AAs?$AA?0@ 00000001800332c0     libucrt:assert.obj
 0002:00001318       ??_C@_1CE@OJBNHDMO@?$AAA?$AAs?$AAs?$AAe?$AAr?$AAt?$AAi?$AAo?$AAn?$AA?5?$AAf?$AAa?$AAi?$AAl?$AAe?$AAd?$AA?$CB?$AA?$AA@ 0000000180033318     libucrt:assert.obj
 0002:00001340       ??_C@_1BE@PHKBBGE@?$AAP?$AAr?$AAo?$AAg?$AAr?$AAa?$AAm?$AA?3?$AA?5?$AA?$AA@ 0000000180033340     libucrt:assert.obj
 0002:00001358       ??_C@_1O@HEMHKNDC@?$AAF?$AAi?$AAl?$AAe?$AA?3?$AA?5?$AA?$AA@ 0000000180033358     libucrt:assert.obj
 0002:00001368       ??_C@_1O@KCAFKHJE@?$AAL?$AAi?$AAn?$AAe?$AA?3?$AA?5?$AA?$AA@ 0000000180033368     libucrt:assert.obj
 0002:00001378       ??_C@_1BK@PEDCIPMA@?$AAE?$AAx?$AAp?$AAr?$AAe?$AAs?$AAs?$AAi?$AAo?$AAn?$AA?3?$AA?5?$AA?$AA@ 0000000180033378     libucrt:assert.obj
 0002:000013a0       ??_C@_1OA@EGMLFBHJ@?$AAF?$AAo?$AAr?$AA?5?$AAi?$AAn?$AAf?$AAo?$AAr?$AAm?$AAa?$AAt?$AAi?$AAo?$AAn?$AA?5?$AAo?$AAn?$AA?5?$AAh?$AAo?$AAw?$AA?5?$AAy?$AAo?$AAu?$AAr?$AA?5?$AAp?$AAr?$AAo?$AAg@ 00000001800333a0     libucrt:assert.obj
 0002:00001480       ??_C@_1HK@POCJMFGK@?$AA?$CI?$AAP?$AAr?$AAe?$AAs?$AAs?$AA?5?$AAR?$AAe?$AAt?$AAr?$AAy?$AA?5?$AAt?$AAo?$AA?5?$AAd?$AAe?$AAb?$AAu?$AAg?$AA?5?$AAt?$AAh?$AAe?$AA?5?$AAa?$AAp?$AAp?$AAl?$AAi?$AAc@ 0000000180033480     libucrt:assert.obj
 0002:00001500       ??_C@_17LGKOMLJ@?$AA?4?$AA?4?$AA?4?$AA?$AA@ 0000000180033500     libucrt:assert.obj
 0002:00001508       ??_C@_13LBAGMAIH@?$AA?6?$AA?$AA@ 0000000180033508     libucrt:assert.obj
 0002:0000150c       ??_C@_15IABLJNFO@?$AA?6?$AA?6?$AA?$AA@ 000000018003350c     libucrt:assert.obj
 0002:00001518       ??_C@_1CO@EAEJAADC@?$AA?$DM?$AAp?$AAr?$AAo?$AAg?$AAr?$AAa?$AAm?$AA?5?$AAn?$AAa?$AAm?$AAe?$AA?5?$AAu?$AAn?$AAk?$AAn?$AAo?$AAw?$AAn?$AA?$DO?$AA?$AA@ 0000000180033518     libucrt:assert.obj
 0002:00001550       __acrt_exception_action_table 0000000180033550     libucrt:exception_filter.obj
 0002:00001610       __acrt_signal_action_table_count 0000000180033610     libucrt:exception_filter.obj
 0002:00001618       __acrt_signal_action_first_fpe_index 0000000180033618     libucrt:exception_filter.obj
 0002:00001620       __acrt_signal_action_fpe_count 0000000180033620     libucrt:exception_filter.obj
 0002:00001628       ??_C@_1BI@BGOHAHKC@?$AAm?$AAs?$AAc?$AAo?$AAr?$AAe?$AAe?$AA?4?$AAd?$AAl?$AAl?$AA?$AA@ 0000000180033628     libucrt:exit.obj
 0002:00001640       ??_C@_0P@MIGLKIOC@CorExitProcess?$AA@ 0000000180033640     libucrt:exit.obj
 0002:000018a8       ?ccs@?BL@???$__acrt_stdio_parse_mode@D@@YA?AU__acrt_stdio_stream_mode@@QEBD@Z@4QBDB 00000001800338a8     libucrt:openfile.obj
 0002:000018ac       ?utf8_encoding@?BL@???$__acrt_stdio_parse_mode@D@@YA?AU__acrt_stdio_stream_mode@@QEBD@Z@4QBDB 00000001800338ac     libucrt:openfile.obj
 0002:000018b8       ?utf16_encoding@?BL@???$__acrt_stdio_parse_mode@D@@YA?AU__acrt_stdio_stream_mode@@QEBD@Z@4QBDB 00000001800338b8     libucrt:openfile.obj
 0002:000018c0       ?unicode_encoding@?BL@???$__acrt_stdio_parse_mode@D@@YA?AU__acrt_stdio_stream_mode@@QEBD@Z@4QBDB 00000001800338c0     libucrt:openfile.obj
 0002:00001970       ??_C@_1EG@CNNIPFIM@?$AAa?$AAp?$AAi?$AA?9?$AAm?$AAs?$AA?9?$AAw?$AAi?$AAn?$AA?9?$AAa?$AAp?$AAp?$AAm?$AAo?$AAd?$AAe?$AAl?$AA?9?$AAr?$AAu?$AAn?$AAt?$AAi?$AAm?$AAe?$AA?9?$AAl?$AA1?$AA?9?$AA1@ 0000000180033970     libucrt:winapi_thunks.obj
 0002:000019c0       ??_C@_1EA@JGEFHKEI@?$AAa?$AAp?$AAi?$AA?9?$AAm?$AAs?$AA?9?$AAw?$AAi?$AAn?$AA?9?$AAc?$AAo?$AAr?$AAe?$AA?9?$AAd?$AAa?$AAt?$AAe?$AAt?$AAi?$AAm?$AAe?$AA?9?$AAl?$AA1?$AA?9?$AA1?$AA?9?$AA1?$AA?$AA@ 00000001800339c0     libucrt:winapi_thunks.obj
 0002:00001a00       ??_C@_1DI@GCIAAENM@?$AAa?$AAp?$AAi?$AA?9?$AAm?$AAs?$AA?9?$AAw?$AAi?$AAn?$AA?9?$AAc?$AAo?$AAr?$AAe?$AA?9?$AAf?$AAi?$AAl?$AAe?$AA?9?$AAl?$AA2?$AA?9?$AA1?$AA?9?$AA1?$AA?$AA@ 0000000180033a00     libucrt:winapi_thunks.obj
 0002:00001a40       ??_C@_1EI@MPIAOHOC@?$AAa?$AAp?$AAi?$AA?9?$AAm?$AAs?$AA?9?$AAw?$AAi?$AAn?$AA?9?$AAc?$AAo?$AAr?$AAe?$AA?9?$AAl?$AAo?$AAc?$AAa?$AAl?$AAi?$AAz?$AAa?$AAt?$AAi?$AAo?$AAn?$AA?9?$AAl?$AA1?$AA?9@ 0000000180033a40     libucrt:winapi_thunks.obj
 0002:00001a90       ??_C@_1FK@FPHCKFIE@?$AAa?$AAp?$AAi?$AA?9?$AAm?$AAs?$AA?9?$AAw?$AAi?$AAn?$AA?9?$AAc?$AAo?$AAr?$AAe?$AA?9?$AAl?$AAo?$AAc?$AAa?$AAl?$AAi?$AAz?$AAa?$AAt?$AAi?$AAo?$AAn?$AA?9?$AAo?$AAb?$AAs@ 0000000180033a90     libucrt:winapi_thunks.obj
 0002:00001af0       ??_C@_1EM@DILCGIIO@?$AAa?$AAp?$AAi?$AA?9?$AAm?$AAs?$AA?9?$AAw?$AAi?$AAn?$AA?9?$AAc?$AAo?$AAr?$AAe?$AA?9?$AAp?$AAr?$AAo?$AAc?$AAe?$AAs?$AAs?$AAt?$AAh?$AAr?$AAe?$AAa?$AAd?$AAs?$AA?9?$AAl@ 0000000180033af0     libucrt:winapi_thunks.obj
 0002:00001b40       ??_C@_1DM@LNCGDDPN@?$AAa?$AAp?$AAi?$AA?9?$AAm?$AAs?$AA?9?$AAw?$AAi?$AAn?$AA?9?$AAc?$AAo?$AAr?$AAe?$AA?9?$AAs?$AAt?$AAr?$AAi?$AAn?$AAg?$AA?9?$AAl?$AA1?$AA?9?$AA1?$AA?9?$AA0?$AA?$AA@ 0000000180033b40     libucrt:winapi_thunks.obj
 0002:00001b80       ??_C@_1DO@FPAPJEMD@?$AAa?$AAp?$AAi?$AA?9?$AAm?$AAs?$AA?9?$AAw?$AAi?$AAn?$AA?9?$AAc?$AAo?$AAr?$AAe?$AA?9?$AAs?$AAy?$AAs?$AAi?$AAn?$AAf?$AAo?$AA?9?$AAl?$AA1?$AA?9?$AA2?$AA?9?$AA1?$AA?$AA@ 0000000180033b80     libucrt:winapi_thunks.obj
 0002:00001bc0       ??_C@_1DK@NDHNAHIO@?$AAa?$AAp?$AAi?$AA?9?$AAm?$AAs?$AA?9?$AAw?$AAi?$AAn?$AA?9?$AAc?$AAo?$AAr?$AAe?$AA?9?$AAw?$AAi?$AAn?$AAr?$AAt?$AA?9?$AAl?$AA1?$AA?9?$AA1?$AA?9?$AA0?$AA?$AA@ 0000000180033bc0     libucrt:winapi_thunks.obj
 0002:00001c00       ??_C@_1DM@KGHDGBCM@?$AAa?$AAp?$AAi?$AA?9?$AAm?$AAs?$AA?9?$AAw?$AAi?$AAn?$AA?9?$AAc?$AAo?$AAr?$AAe?$AA?9?$AAx?$AAs?$AAt?$AAa?$AAt?$AAe?$AA?9?$AAl?$AA2?$AA?9?$AA1?$AA?9?$AA0?$AA?$AA@ 0000000180033c00     libucrt:winapi_thunks.obj
 0002:00001c40       ??_C@_1EO@IJIOEFOH@?$AAa?$AAp?$AAi?$AA?9?$AAm?$AAs?$AA?9?$AAw?$AAi?$AAn?$AA?9?$AAr?$AAt?$AAc?$AAo?$AAr?$AAe?$AA?9?$AAn?$AAt?$AAu?$AAs?$AAe?$AAr?$AA?9?$AAw?$AAi?$AAn?$AAd?$AAo?$AAw?$AA?9@ 0000000180033c40     libucrt:winapi_thunks.obj
 0002:00001c90       ??_C@_1FG@HHGEKANL@?$AAa?$AAp?$AAi?$AA?9?$AAm?$AAs?$AA?9?$AAw?$AAi?$AAn?$AA?9?$AAs?$AAe?$AAc?$AAu?$AAr?$AAi?$AAt?$AAy?$AA?9?$AAs?$AAy?$AAs?$AAt?$AAe?$AAm?$AAf?$AAu?$AAn?$AAc?$AAt?$AAi@ 0000000180033c90     libucrt:winapi_thunks.obj
 0002:00001cf0       ??_C@_1FG@NCKKOLKO@?$AAe?$AAx?$AAt?$AA?9?$AAm?$AAs?$AA?9?$AAw?$AAi?$AAn?$AA?9?$AAk?$AAe?$AAr?$AAn?$AAe?$AAl?$AA3?$AA2?$AA?9?$AAp?$AAa?$AAc?$AAk?$AAa?$AAg?$AAe?$AA?9?$AAc?$AAu?$AAr?$AAr@ 0000000180033cf0     libucrt:winapi_thunks.obj
 0002:00001d50       ??_C@_1EG@DBIOJECG@?$AAe?$AAx?$AAt?$AA?9?$AAm?$AAs?$AA?9?$AAw?$AAi?$AAn?$AA?9?$AAn?$AAt?$AAu?$AAs?$AAe?$AAr?$AA?9?$AAd?$AAi?$AAa?$AAl?$AAo?$AAg?$AAb?$AAo?$AAx?$AA?9?$AAl?$AA1?$AA?9?$AA1@ 0000000180033d50     libucrt:winapi_thunks.obj
 0002:00001da0       ??_C@_1EO@FIHMJCLF@?$AAe?$AAx?$AAt?$AA?9?$AAm?$AAs?$AA?9?$AAw?$AAi?$AAn?$AA?9?$AAn?$AAt?$AAu?$AAs?$AAe?$AAr?$AA?9?$AAw?$AAi?$AAn?$AAd?$AAo?$AAw?$AAs?$AAt?$AAa?$AAt?$AAi?$AAo?$AAn?$AA?9@ 0000000180033da0     libucrt:winapi_thunks.obj
 0002:00001df0       ??_C@_1O@BCCLBEOE@?$AAu?$AAs?$AAe?$AAr?$AA3?$AA2?$AA?$AA@ 0000000180033df0     libucrt:winapi_thunks.obj
 0002:00001e08       ??_C@_0BA@FHFNEAED@AreFileApisANSI?$AA@ 0000000180033e08     libucrt:winapi_thunks.obj
 0002:00001e20       ??_C@_0BA@IHGNDAEB@CompareStringEx?$AA@ 0000000180033e20     libucrt:winapi_thunks.obj
 0002:00001e58       ??_C@_0BA@HNOPNCHB@GetActiveWindow?$AA@ 0000000180033e58     libucrt:winapi_thunks.obj
 0002:00001e70       ??_C@_0BE@JOGNEJCI@GetCurrentPackageId?$AA@ 0000000180033e70     libucrt:winapi_thunks.obj
 0002:00001e90       ??_C@_0BD@HHGDFDBJ@GetLastActivePopup?$AA@ 0000000180033e90     libucrt:winapi_thunks.obj
 0002:00001eb0       ??_C@_0BI@DFKBFLJE@GetProcessWindowStation?$AA@ 0000000180033eb0     libucrt:winapi_thunks.obj
 0002:00001ed0       ??_C@_0BK@DEKFELLI@GetUserObjectInformationW?$AA@ 0000000180033ed0     libucrt:winapi_thunks.obj
 0002:00001f00       ??_C@_0O@KKBNKAPF@LCMapStringEx?$AA@ 0000000180033f00     libucrt:winapi_thunks.obj
 0002:00001f18       ??_C@_0BB@HBDEELFH@LocaleNameToLCID?$AA@ 0000000180033f18     libucrt:winapi_thunks.obj
 0002:00001f38       ??_C@_0M@CHKKJDAI@MessageBoxA?$AA@ 0000000180033f38     libucrt:winapi_thunks.obj
 0002:00001f50       ??_C@_0M@DLDCCGNP@MessageBoxW?$AA@ 0000000180033f50     libucrt:winapi_thunks.obj
 0002:00001f5c       ??_C@_03OEIAHPBN@INF?$AA@  0000000180033f5c     libucrt:cvt.obj
 0002:00001f60       ??_C@_03OJHLLCGB@inf?$AA@  0000000180033f60     libucrt:cvt.obj
 0002:00001f64       ??_C@_03LKNCIKJB@NAN?$AA@  0000000180033f64     libucrt:cvt.obj
 0002:00001f68       ??_C@_03LHCJEHON@nan?$AA@  0000000180033f68     libucrt:cvt.obj
 0002:00001f70       ??_C@_09OFJJIMPC@NAN?$CISNAN?$CJ?$AA@ 0000000180033f70     libucrt:cvt.obj
 0002:00001f80       ??_C@_09IPFBKMDL@nan?$CIsnan?$CJ?$AA@ 0000000180033f80     libucrt:cvt.obj
 0002:00001f90       ??_C@_08IKHNHAJ@NAN?$CIIND?$CJ?$AA@ 0000000180033f90     libucrt:cvt.obj
 0002:00001fa0       ??_C@_08OFCDMILK@nan?$CIind?$CJ?$AA@ 0000000180033fa0     libucrt:cvt.obj
 0002:00001fac       ??_C@_05KLBDPFGC@e?$CL000?$AA@ 0000000180033fac     libucrt:cvt.obj
 0002:00001fc0       __lc_time_c                0000000180033fc0     libucrt:nlsdata.obj
 0002:00002280       ??_C@_03KOEHGMDN@Sun?$AA@  0000000180034280     libucrt:nlsdata.obj
 0002:00002284       ??_C@_03PDAGKDH@Mon?$AA@   0000000180034284     libucrt:nlsdata.obj
 0002:00002288       ??_C@_03NAGEINEP@Tue?$AA@  0000000180034288     libucrt:nlsdata.obj
 0002:0000228c       ??_C@_03MHOMLAJA@Wed?$AA@  000000018003428c     libucrt:nlsdata.obj
 0002:00002290       ??_C@_03IOFIKPDN@Thu?$AA@  0000000180034290     libucrt:nlsdata.obj
 0002:00002294       ??_C@_03IDIOELNC@Fri?$AA@  0000000180034294     libucrt:nlsdata.obj
 0002:00002298       ??_C@_03FEFJNEK@Sat?$AA@   0000000180034298     libucrt:nlsdata.obj
 0002:0000229c       ??_C@_06OOPIFAJ@Sunday?$AA@ 000000018003429c     libucrt:nlsdata.obj
 0002:000022a4       ??_C@_06JLEDEDGH@Monday?$AA@ 00000001800342a4     libucrt:nlsdata.obj
 0002:000022b0       ??_C@_07BAAGCFCM@Tuesday?$AA@ 00000001800342b0     libucrt:nlsdata.obj
 0002:000022b8       ??_C@_09DLIGFAKA@Wednesday?$AA@ 00000001800342b8     libucrt:nlsdata.obj
 0002:000022c8       ??_C@_08HACCIKIA@Thursday?$AA@ 00000001800342c8     libucrt:nlsdata.obj
 0002:000022d4       ??_C@_06JECMNKMI@Friday?$AA@ 00000001800342d4     libucrt:nlsdata.obj
 0002:000022e0       ??_C@_08INBOOONO@Saturday?$AA@ 00000001800342e0     libucrt:nlsdata.obj
 0002:000022ec       ??_C@_03JIHJHPIE@Jan?$AA@  00000001800342ec     libucrt:nlsdata.obj
 0002:000022f0       ??_C@_03HJBDCHOM@Feb?$AA@  00000001800342f0     libucrt:nlsdata.obj
 0002:000022f4       ??_C@_03ODNJBKGA@Mar?$AA@  00000001800342f4     libucrt:nlsdata.obj
 0002:000022f8       ??_C@_03LEOLGMJP@Apr?$AA@  00000001800342f8     libucrt:nlsdata.obj
 0002:000022fc       ??_C@_03CNMDKL@May?$AA@    00000001800342fc     libucrt:nlsdata.obj
 0002:00002300       ??_C@_03IDFGHECI@Jun?$AA@  0000000180034300     libucrt:nlsdata.obj
 0002:00002304       ??_C@_03LBGABGKK@Jul?$AA@  0000000180034304     libucrt:nlsdata.obj
 0002:00002308       ??_C@_03IFJFEIGA@Aug?$AA@  0000000180034308     libucrt:nlsdata.obj
 0002:0000230c       ??_C@_03GGCAPAJC@Sep?$AA@  000000018003430c     libucrt:nlsdata.obj
 0002:00002310       ??_C@_03BMAOKBAD@Oct?$AA@  0000000180034310     libucrt:nlsdata.obj
 0002:00002314       ??_C@_03JPJOFNIA@Nov?$AA@  0000000180034314     libucrt:nlsdata.obj
 0002:00002318       ??_C@_03MKABNOCG@Dec?$AA@  0000000180034318     libucrt:nlsdata.obj
 0002:00002320       ??_C@_07CGJPFGJA@January?$AA@ 0000000180034320     libucrt:nlsdata.obj
 0002:00002328       ??_C@_08GNJGEPFN@February?$AA@ 0000000180034328     libucrt:nlsdata.obj
 0002:00002334       ??_C@_05HPCKOFNC@March?$AA@ 0000000180034334     libucrt:nlsdata.obj
 0002:0000233c       ??_C@_05DMJDNLEJ@April?$AA@ 000000018003433c     libucrt:nlsdata.obj
 0002:00002344       ??_C@_04CNLMGBGM@June?$AA@ 0000000180034344     libucrt:nlsdata.obj
 0002:0000234c       ??_C@_04MIEPOIFP@July?$AA@ 000000018003434c     libucrt:nlsdata.obj
 0002:00002354       ??_C@_06LBBHFDDG@August?$AA@ 0000000180034354     libucrt:nlsdata.obj
 0002:00002360       ??_C@_09BHHEALKD@September?$AA@ 0000000180034360     libucrt:nlsdata.obj
 0002:00002370       ??_C@_07JJNFCEND@October?$AA@ 0000000180034370     libucrt:nlsdata.obj
 0002:00002378       ??_C@_08HCHEGEOA@November?$AA@ 0000000180034378     libucrt:nlsdata.obj
 0002:00002388       ??_C@_08EDHMEBNP@December?$AA@ 0000000180034388     libucrt:nlsdata.obj
 0002:00002394       ??_C@_02DEDBPAFC@AM?$AA@   0000000180034394     libucrt:nlsdata.obj
 0002:00002398       ??_C@_02CJNFDJBF@PM?$AA@   0000000180034398     libucrt:nlsdata.obj
 0002:000023a0       ??_C@_08BPBNCDIB@MM?1dd?1yy?$AA@ 00000001800343a0     libucrt:nlsdata.obj
 0002:000023b0       ??_C@_0BE@CKGJFCPC@dddd?0?5MMMM?5dd?0?5yyyy?$AA@ 00000001800343b0     libucrt:nlsdata.obj
 0002:000023c8       ??_C@_08JCCMCCIL@HH?3mm?3ss?$AA@ 00000001800343c8     libucrt:nlsdata.obj
 0002:000023d8       ??_C@_17MBGCMIPB@?$AAS?$AAu?$AAn?$AA?$AA@ 00000001800343d8     libucrt:nlsdata.obj
 0002:000023e0       ??_C@_17KBOMKBF@?$AAM?$AAo?$AAn?$AA?$AA@ 00000001800343e0     libucrt:nlsdata.obj
 0002:000023e8       ??_C@_17BMKGEGOJ@?$AAT?$AAu?$AAe?$AA?$AA@ 00000001800343e8     libucrt:nlsdata.obj
 0002:000023f0       ??_C@_17CJEDCEPE@?$AAW?$AAe?$AAd?$AA?$AA@ 00000001800343f0     libucrt:nlsdata.obj
 0002:000023f8       ??_C@_17PDPHAADD@?$AAT?$AAh?$AAu?$AA?$AA@ 00000001800343f8     libucrt:nlsdata.obj
 0002:00002400       ??_C@_17HFOLPPLP@?$AAF?$AAr?$AAi?$AA?$AA@ 0000000180034400     libucrt:nlsdata.obj
 0002:00002408       ??_C@_17GGIBDPIH@?$AAS?$AAa?$AAt?$AA?$AA@ 0000000180034408     libucrt:nlsdata.obj
 0002:00002410       ??_C@_1O@IHNHDHPB@?$AAS?$AAu?$AAn?$AAd?$AAa?$AAy?$AA?$AA@ 0000000180034410     libucrt:nlsdata.obj
 0002:00002420       ??_C@_1O@MMNBFLIA@?$AAM?$AAo?$AAn?$AAd?$AAa?$AAy?$AA?$AA@ 0000000180034420     libucrt:nlsdata.obj
 0002:00002430       ??_C@_1BA@ENFBFFEK@?$AAT?$AAu?$AAe?$AAs?$AAd?$AAa?$AAy?$AA?$AA@ 0000000180034430     libucrt:nlsdata.obj
 0002:00002440       ??_C@_1BE@EBOGMDOH@?$AAW?$AAe?$AAd?$AAn?$AAe?$AAs?$AAd?$AAa?$AAy?$AA?$AA@ 0000000180034440     libucrt:nlsdata.obj
 0002:00002458       ??_C@_1BC@HHMNLIHE@?$AAT?$AAh?$AAu?$AAr?$AAs?$AAd?$AAa?$AAy?$AA?$AA@ 0000000180034458     libucrt:nlsdata.obj
 0002:00002470       ??_C@_1O@PDICJHAG@?$AAF?$AAr?$AAi?$AAd?$AAa?$AAy?$AA?$AA@ 0000000180034470     libucrt:nlsdata.obj
 0002:00002480       ??_C@_1BC@ENMNNPAJ@?$AAS?$AAa?$AAt?$AAu?$AAr?$AAd?$AAa?$AAy?$AA?$AA@ 0000000180034480     libucrt:nlsdata.obj
 0002:00002498       ??_C@_17DKNBKCHM@?$AAJ?$AAa?$AAn?$AA?$AA@ 0000000180034498     libucrt:nlsdata.obj
 0002:000024a0       ??_C@_17LMDJEKJN@?$AAF?$AAe?$AAb?$AA?$AA@ 00000001800344a0     libucrt:nlsdata.obj
 0002:000024a8       ??_C@_17CKNLEDEC@?$AAM?$AAa?$AAr?$AA?$AA@ 00000001800344a8     libucrt:nlsdata.obj
 0002:000024b0       ??_C@_17LFPOIHDD@?$AAA?$AAp?$AAr?$AA?$AA@ 00000001800344b0     libucrt:nlsdata.obj
 0002:000024b8       ??_C@_17PNNKMEED@?$AAM?$AAa?$AAy?$AA?$AA@ 00000001800344b8     libucrt:nlsdata.obj
 0002:000024c0       ??_C@_17KCJGOCPB@?$AAJ?$AAu?$AAn?$AA?$AA@ 00000001800344c0     libucrt:nlsdata.obj
 0002:000024c8       ??_C@_17IJPCKHK@?$AAJ?$AAu?$AAl?$AA?$AA@ 00000001800344c8     libucrt:nlsdata.obj
 0002:000024d0       ??_C@_17ICPELBCN@?$AAA?$AAu?$AAg?$AA?$AA@ 00000001800344d0     libucrt:nlsdata.obj
 0002:000024d8       ??_C@_17HCHCOKMG@?$AAS?$AAe?$AAp?$AA?$AA@ 00000001800344d8     libucrt:nlsdata.obj
 0002:000024e0       ??_C@_17FNLKOI@?$AAO?$AAc?$AAt?$AA?$AA@ 00000001800344e0     libucrt:nlsdata.obj
 0002:000024e8       ??_C@_17BBDMLCIG@?$AAN?$AAo?$AAv?$AA?$AA@ 00000001800344e8     libucrt:nlsdata.obj
 0002:000024f0       ??_C@_17EGKACKIF@?$AAD?$AAe?$AAc?$AA?$AA@ 00000001800344f0     libucrt:nlsdata.obj
 0002:000024f8       ??_C@_1BA@EFMEIEBA@?$AAJ?$AAa?$AAn?$AAu?$AAa?$AAr?$AAy?$AA?$AA@ 00000001800344f8     libucrt:nlsdata.obj
 0002:00002508       ??_C@_1BC@JGDDFFAM@?$AAF?$AAe?$AAb?$AAr?$AAu?$AAa?$AAr?$AAy?$AA?$AA@ 0000000180034508     libucrt:nlsdata.obj
 0002:00002520       ??_C@_1M@IKEENEDF@?$AAM?$AAa?$AAr?$AAc?$AAh?$AA?$AA@ 0000000180034520     libucrt:nlsdata.obj
 0002:00002530       ??_C@_1M@GJNLMHFD@?$AAA?$AAp?$AAr?$AAi?$AAl?$AA?$AA@ 0000000180034530     libucrt:nlsdata.obj
 0002:00002540       ??_C@_19EPFLPGAP@?$AAJ?$AAu?$AAn?$AAe?$AA?$AA@ 0000000180034540     libucrt:nlsdata.obj
 0002:00002550       ??_C@_19BIFMLPCD@?$AAJ?$AAu?$AAl?$AAy?$AA?$AA@ 0000000180034550     libucrt:nlsdata.obj
 0002:00002560       ??_C@_1O@PAHLKOAC@?$AAA?$AAu?$AAg?$AAu?$AAs?$AAt?$AA?$AA@ 0000000180034560     libucrt:nlsdata.obj
 0002:00002570       ??_C@_1BE@DKAAMBJL@?$AAS?$AAe?$AAp?$AAt?$AAe?$AAm?$AAb?$AAe?$AAr?$AA?$AA@ 0000000180034570     libucrt:nlsdata.obj
 0002:00002588       ??_C@_1BA@EPANDLNG@?$AAO?$AAc?$AAt?$AAo?$AAb?$AAe?$AAr?$AA?$AA@ 0000000180034588     libucrt:nlsdata.obj
 0002:00002598       ??_C@_1BC@BGLIFPF@?$AAN?$AAo?$AAv?$AAe?$AAm?$AAb?$AAe?$AAr?$AA?$AA@ 0000000180034598     libucrt:nlsdata.obj
 0002:000025b0       ??_C@_1BC@FEMKIFH@?$AAD?$AAe?$AAc?$AAe?$AAm?$AAb?$AAe?$AAr?$AA?$AA@ 00000001800345b0     libucrt:nlsdata.obj
 0002:000025c4       ??_C@_15ODEHAHHF@?$AAA?$AAM?$AA?$AA@ 00000001800345c4     libucrt:nlsdata.obj
 0002:000025cc       ??_C@_15CLMNNGEL@?$AAP?$AAM?$AA?$AA@ 00000001800345cc     libucrt:nlsdata.obj
 0002:000025d8       ??_C@_1BC@IEBCMHCM@?$AAM?$AAM?$AA?1?$AAd?$AAd?$AA?1?$AAy?$AAy?$AA?$AA@ 00000001800345d8     libucrt:nlsdata.obj
 0002:000025f0       ??_C@_1CI@KNAKOEBC@?$AAd?$AAd?$AAd?$AAd?$AA?0?$AA?5?$AAM?$AAM?$AAM?$AAM?$AA?5?$AAd?$AAd?$AA?0?$AA?5?$AAy?$AAy?$AAy?$AAy?$AA?$AA@ 00000001800345f0     libucrt:nlsdata.obj
 0002:00002618       ??_C@_1BC@GDGBMEMK@?$AAH?$AAH?$AA?3?$AAm?$AAm?$AA?3?$AAs?$AAs?$AA?$AA@ 0000000180034618     libucrt:nlsdata.obj
 0002:00002630       ??_C@_1M@BMHNFIME@?$AAe?$AAn?$AA?9?$AAU?$AAS?$AA?$AA@ 0000000180034630     libucrt:nlsdata.obj
 0002:00002660       ??_C@_1M@HPNHIDJI@?$AAj?$AAa?$AA?9?$AAJ?$AAP?$AA?$AA@ 0000000180034660     libucrt:mbctype.obj
 0002:00002670       ??_C@_1M@BIBDDEMK@?$AAz?$AAh?$AA?9?$AAC?$AAN?$AA?$AA@ 0000000180034670     libucrt:mbctype.obj
 0002:00002680       ??_C@_1M@JLOOOEGK@?$AAk?$AAo?$AA?9?$AAK?$AAR?$AA?$AA@ 0000000180034680     libucrt:mbctype.obj
 0002:00002690       ??_C@_1M@CLNBBOPM@?$AAz?$AAh?$AA?9?$AAT?$AAW?$AA?$AA@ 0000000180034690     libucrt:mbctype.obj
 0002:000026a0       __newctype                 00000001800346a0     libucrt:ctype.obj
 0002:000029a0       __newclmap                 00000001800349a0     libucrt:ctype.obj
 0002:00002b20       __newcumap                 0000000180034b20     libucrt:ctype.obj
 0002:00002ca0       _wctype                    0000000180034ca0     libucrt:ctype.obj
 0002:00003cf0       ??_C@_15EMKDOKLE@?$AAa?$AAr?$AA?$AA@ 0000000180035cf0     libucrt:lcidtoname_downlevel.obj
 0002:00003cf8       ??_C@_15KNPADPLH@?$AAb?$AAg?$AA?$AA@ 0000000180035cf8     libucrt:lcidtoname_downlevel.obj
 0002:00003d00       ??_C@_15EDMHLDMO@?$AAc?$AAa?$AA?$AA@ 0000000180035d00     libucrt:lcidtoname_downlevel.obj
 0002:00003d08       ??_C@_1O@BPEAJADD@?$AAz?$AAh?$AA?9?$AAC?$AAH?$AAS?$AA?$AA@ 0000000180035d08     libucrt:lcidtoname_downlevel.obj
 0002:00003d18       ??_C@_15LJNHCMNK@?$AAc?$AAs?$AA?$AA@ 0000000180035d18     libucrt:lcidtoname_downlevel.obj
 0002:00003d20       ??_C@_15FOMCIDHG@?$AAd?$AAa?$AA?$AA@ 0000000180035d20     libucrt:lcidtoname_downlevel.obj
 0002:00003d28       ??_C@_15NBKABECB@?$AAd?$AAe?$AA?$AA@ 0000000180035d28     libucrt:lcidtoname_downlevel.obj
 0002:00003d30       ??_C@_15GHPEIIAO@?$AAe?$AAl?$AA?$AA@ 0000000180035d30     libucrt:lcidtoname_downlevel.obj
 0002:00003d38       ??_C@_15MNPNEAIF@?$AAe?$AAn?$AA?$AA@ 0000000180035d38     libucrt:lcidtoname_downlevel.obj
 0002:00003d40       ??_C@_15GPIOMPMH@?$AAe?$AAs?$AA?$AA@ 0000000180035d40     libucrt:lcidtoname_downlevel.obj
 0002:00003d48       ??_C@_15NGLOAKJC@?$AAf?$AAi?$AA?$AA@ 0000000180035d48     libucrt:lcidtoname_downlevel.obj
 0002:00003d50       ??_C@_15FBKGNKAM@?$AAf?$AAr?$AA?$AA@ 0000000180035d50     libucrt:lcidtoname_downlevel.obj
 0002:00003d58       ??_C@_15KGGCNEFK@?$AAh?$AAe?$AA?$AA@ 0000000180035d58     libucrt:lcidtoname_downlevel.obj
 0002:00003d60       ??_C@_15PGHLIDMF@?$AAh?$AAu?$AA?$AA@ 0000000180035d60     libucrt:lcidtoname_downlevel.obj
 0002:00003d68       ??_C@_15BIEMAPLM@?$AAi?$AAs?$AA?$AA@ 0000000180035d68     libucrt:lcidtoname_downlevel.obj
 0002:00003d70       ??_C@_15IFJLDHAF@?$AAi?$AAt?$AA?$AA@ 0000000180035d70     libucrt:lcidtoname_downlevel.obj
 0002:00003d78       ??_C@_15GEMIOCAG@?$AAj?$AAa?$AA?$AA@ 0000000180035d78     libucrt:lcidtoname_downlevel.obj
 0002:00003d80       ??_C@_15EPELEGJA@?$AAk?$AAo?$AA?$AA@ 0000000180035d80     libucrt:lcidtoname_downlevel.obj
 0002:00003d88       ??_C@_15NDDHIMN@?$AAn?$AAl?$AA?$AA@ 0000000180035d88     libucrt:lcidtoname_downlevel.obj
 0002:00003d90       ??_C@_15BPIGNHCD@?$AAn?$AAo?$AA?$AA@ 0000000180035d90     libucrt:lcidtoname_downlevel.obj
 0002:00003d98       ??_C@_15DEOPBLCG@?$AAp?$AAl?$AA?$AA@ 0000000180035d98     libucrt:lcidtoname_downlevel.obj
 0002:00003da0       ??_C@_15KBECGEFG@?$AAp?$AAt?$AA?$AA@ 0000000180035da0     libucrt:lcidtoname_downlevel.obj
 0002:00003da8       ??_C@_15GLJCBFMD@?$AAr?$AAo?$AA?$AA@ 0000000180035da8     libucrt:lcidtoname_downlevel.obj
 0002:00003db0       ??_C@_15FEDGKCDI@?$AAr?$AAu?$AA?$AA@ 0000000180035db0     libucrt:lcidtoname_downlevel.obj
 0002:00003db8       ??_C@_15GLKMLLHM@?$AAh?$AAr?$AA?$AA@ 0000000180035db8     libucrt:lcidtoname_downlevel.obj
 0002:00003dc0       ??_C@_15CPKMFBDB@?$AAs?$AAk?$AA?$AA@ 0000000180035dc0     libucrt:lcidtoname_downlevel.obj
 0002:00003dc8       ??_C@_15BAAIOGMK@?$AAs?$AAq?$AA?$AA@ 0000000180035dc8     libucrt:lcidtoname_downlevel.obj
 0002:00003dd0       ??_C@_15INNPNOHD@?$AAs?$AAv?$AA?$AA@ 0000000180035dd0     libucrt:lcidtoname_downlevel.obj
 0002:00003dd8       ??_C@_15CABMMOGH@?$AAt?$AAh?$AA?$AA@ 0000000180035dd8     libucrt:lcidtoname_downlevel.obj
 0002:00003de0       ??_C@_15BPLIHJJM@?$AAt?$AAr?$AA?$AA@ 0000000180035de0     libucrt:lcidtoname_downlevel.obj
 0002:00003de8       ??_C@_15NEOEKKDJ@?$AAu?$AAr?$AA?$AA@ 0000000180035de8     libucrt:lcidtoname_downlevel.obj
 0002:00003df0       ??_C@_15NFICGAJK@?$AAi?$AAd?$AA?$AA@ 0000000180035df0     libucrt:lcidtoname_downlevel.obj
 0002:00003df8       ??_C@_15PJPFLCCM@?$AAu?$AAk?$AA?$AA@ 0000000180035df8     libucrt:lcidtoname_downlevel.obj
 0002:00003e00       ??_C@_15HPJPHDM@?$AAb?$AAe?$AA?$AA@ 0000000180035e00     libucrt:lcidtoname_downlevel.obj
 0002:00003e08       ??_C@_15LCHLGJII@?$AAs?$AAl?$AA?$AA@ 0000000180035e08     libucrt:lcidtoname_downlevel.obj
 0002:00003e10       ??_C@_15PCFJPHHO@?$AAe?$AAt?$AA?$AA@ 0000000180035e10     libucrt:lcidtoname_downlevel.obj
 0002:00003e18       ??_C@_15HPFPGODN@?$AAl?$AAv?$AA?$AA@ 0000000180035e18     libucrt:lcidtoname_downlevel.obj
 0002:00003e20       ??_C@_15NFFGKGLG@?$AAl?$AAt?$AA?$AA@ 0000000180035e20     libucrt:lcidtoname_downlevel.obj
 0002:00003e28       ??_C@_15BDAKCCHN@?$AAf?$AAa?$AA?$AA@ 0000000180035e28     libucrt:lcidtoname_downlevel.obj
 0002:00003e30       ??_C@_15NFGIAIAJ@?$AAv?$AAi?$AA?$AA@ 0000000180035e30     libucrt:lcidtoname_downlevel.obj
 0002:00003e38       ??_C@_15LMKNDMHN@?$AAh?$AAy?$AA?$AA@ 0000000180035e38     libucrt:lcidtoname_downlevel.obj
 0002:00003e40       ??_C@_15IJBHMCFL@?$AAa?$AAz?$AA?$AA@ 0000000180035e40     libucrt:lcidtoname_downlevel.obj
 0002:00003e48       ??_C@_15EKOFJABL@?$AAe?$AAu?$AA?$AA@ 0000000180035e48     libucrt:lcidtoname_downlevel.obj
 0002:00003e50       ??_C@_15BGHADCNK@?$AAm?$AAk?$AA?$AA@ 0000000180035e50     libucrt:lcidtoname_downlevel.obj
 0002:00003e58       ??_C@_15JDNICKHM@?$AAa?$AAf?$AA?$AA@ 0000000180035e58     libucrt:lcidtoname_downlevel.obj
 0002:00003e60       ??_C@_15KPJEDBKD@?$AAk?$AAa?$AA?$AA@ 0000000180035e60     libucrt:lcidtoname_downlevel.obj
 0002:00003e68       ??_C@_15PDNFFFEO@?$AAf?$AAo?$AA?$AA@ 0000000180035e68     libucrt:lcidtoname_downlevel.obj
 0002:00003e70       ??_C@_15OMLEGLOC@?$AAh?$AAi?$AA?$AA@ 0000000180035e70     libucrt:lcidtoname_downlevel.obj
 0002:00003e78       ??_C@_15IDNNENKK@?$AAm?$AAs?$AA?$AA@ 0000000180035e78     libucrt:lcidtoname_downlevel.obj
 0002:00003e80       ??_C@_15MACJNBMH@?$AAk?$AAk?$AA?$AA@ 0000000180035e80     libucrt:lcidtoname_downlevel.obj
 0002:00003e88       ??_C@_15DKDJEOND@?$AAk?$AAy?$AA?$AA@ 0000000180035e88     libucrt:lcidtoname_downlevel.obj
 0002:00003e90       ??_C@_15DFGDLJBG@?$AAs?$AAw?$AA?$AA@ 0000000180035e90     libucrt:lcidtoname_downlevel.obj
 0002:00003e98       ??_C@_15BBFAICNG@?$AAu?$AAz?$AA?$AA@ 0000000180035e98     libucrt:lcidtoname_downlevel.obj
 0002:00003ea0       ??_C@_15DKNDCGEA@?$AAt?$AAt?$AA?$AA@ 0000000180035ea0     libucrt:lcidtoname_downlevel.obj
 0002:00003ea8       ??_C@_15MGIFMDPL@?$AAp?$AAa?$AA?$AA@ 0000000180035ea8     libucrt:lcidtoname_downlevel.obj
 0002:00003eb0       ??_C@_15HCNDBBA@?$AAg?$AAu?$AA?$AA@ 0000000180035eb0     libucrt:lcidtoname_downlevel.obj
 0002:00003eb8       ??_C@_15FNBEIBON@?$AAt?$AAa?$AA?$AA@ 0000000180035eb8     libucrt:lcidtoname_downlevel.obj
 0002:00003ec0       ??_C@_15NCHGBGLK@?$AAt?$AAe?$AA?$AA@ 0000000180035ec0     libucrt:lcidtoname_downlevel.obj
 0002:00003ec8       ??_C@_15PHPHCBPF@?$AAk?$AAn?$AA?$AA@ 0000000180035ec8     libucrt:lcidtoname_downlevel.obj
 0002:00003ed0       ??_C@_15DLGBCKMP@?$AAm?$AAr?$AA?$AA@ 0000000180035ed0     libucrt:lcidtoname_downlevel.obj
 0002:00003ed8       ??_C@_15EABBLBFF@?$AAs?$AAa?$AA?$AA@ 0000000180035ed8     libucrt:lcidtoname_downlevel.obj
 0002:00003ee0       ??_C@_15CBKOMCOI@?$AAm?$AAn?$AA?$AA@ 0000000180035ee0     libucrt:lcidtoname_downlevel.obj
 0002:00003ee8       ??_C@_15CKDMCJAF@?$AAg?$AAl?$AA?$AA@ 0000000180035ee8     libucrt:lcidtoname_downlevel.obj
 0002:00003ef0       ??_C@_17CNJFBPG@?$AAk?$AAo?$AAk?$AA?$AA@ 0000000180035ef0     libucrt:lcidtoname_downlevel.obj
 0002:00003ef8       ??_C@_17FFBJICPL@?$AAs?$AAy?$AAr?$AA?$AA@ 0000000180035ef8     libucrt:lcidtoname_downlevel.obj
 0002:00003f00       ??_C@_17KPNDCPAF@?$AAd?$AAi?$AAv?$AA?$AA@ 0000000180035f00     libucrt:lcidtoname_downlevel.obj
 0002:00003f08       ??_C@_1M@OKAHONE@?$AAa?$AAr?$AA?9?$AAS?$AAA?$AA?$AA@ 0000000180035f08     libucrt:lcidtoname_downlevel.obj
 0002:00003f18       ??_C@_1M@FFFIGIGK@?$AAb?$AAg?$AA?9?$AAB?$AAG?$AA?$AA@ 0000000180035f18     libucrt:lcidtoname_downlevel.obj
 0002:00003f28       ??_C@_1M@BJNKEDC@?$AAc?$AAa?$AA?9?$AAE?$AAS?$AA?$AA@ 0000000180035f28     libucrt:lcidtoname_downlevel.obj
 0002:00003f38       ??_C@_1M@IJJHFJHA@?$AAc?$AAs?$AA?9?$AAC?$AAZ?$AA?$AA@ 0000000180035f38     libucrt:lcidtoname_downlevel.obj
 0002:00003f48       ??_C@_1M@CLPEOBGI@?$AAd?$AAa?$AA?9?$AAD?$AAK?$AA?$AA@ 0000000180035f48     libucrt:lcidtoname_downlevel.obj
 0002:00003f58       ??_C@_1M@MCMADGCB@?$AAd?$AAe?$AA?9?$AAD?$AAE?$AA?$AA@ 0000000180035f58     libucrt:lcidtoname_downlevel.obj
 0002:00003f68       ??_C@_1M@OOCKEMAM@?$AAe?$AAl?$AA?9?$AAG?$AAR?$AA?$AA@ 0000000180035f68     libucrt:lcidtoname_downlevel.obj
 0002:00003f78       ??_C@_1M@DDNJFGID@?$AAf?$AAi?$AA?9?$AAF?$AAI?$AA?$AA@ 0000000180035f78     libucrt:lcidtoname_downlevel.obj
 0002:00003f88       ??_C@_1M@GLIPPMAC@?$AAf?$AAr?$AA?9?$AAF?$AAR?$AA?$AA@ 0000000180035f88     libucrt:lcidtoname_downlevel.obj
 0002:00003f98       ??_C@_1M@GFMCHPE@?$AAh?$AAe?$AA?9?$AAI?$AAL?$AA?$AA@ 0000000180035f98     libucrt:lcidtoname_downlevel.obj
 0002:00003fa8       ??_C@_1M@MHLPGNKM@?$AAh?$AAu?$AA?9?$AAH?$AAU?$AA?$AA@ 0000000180035fa8     libucrt:lcidtoname_downlevel.obj
 0002:00003fb8       ??_C@_1M@LPDDNNPN@?$AAi?$AAs?$AA?9?$AAI?$AAS?$AA?$AA@ 0000000180035fb8     libucrt:lcidtoname_downlevel.obj
 0002:00003fc8       ??_C@_1M@MADIPODN@?$AAi?$AAt?$AA?9?$AAI?$AAT?$AA?$AA@ 0000000180035fc8     libucrt:lcidtoname_downlevel.obj
 0002:00003fd8       ??_C@_1M@IHBJJGG@?$AAn?$AAl?$AA?9?$AAN?$AAL?$AA?$AA@ 0000000180035fd8     libucrt:lcidtoname_downlevel.obj
 0002:00003fe8       ??_C@_1M@EANAGDL@?$AAn?$AAb?$AA?9?$AAN?$AAO?$AA?$AA@ 0000000180035fe8     libucrt:lcidtoname_downlevel.obj
 0002:00003ff8       ??_C@_1M@NEIEMEGP@?$AAp?$AAl?$AA?9?$AAP?$AAL?$AA?$AA@ 0000000180035ff8     libucrt:lcidtoname_downlevel.obj
 0002:00004008       ??_C@_1M@BOCFIGEP@?$AAp?$AAt?$AA?9?$AAB?$AAR?$AA?$AA@ 0000000180036008     libucrt:lcidtoname_downlevel.obj
 0002:00004018       ??_C@_1M@IMPFOPBG@?$AAr?$AAo?$AA?9?$AAR?$AAO?$AA?$AA@ 0000000180036018     libucrt:lcidtoname_downlevel.obj
 0002:00004028       ??_C@_1M@IDNNEJMM@?$AAr?$AAu?$AA?9?$AAR?$AAU?$AA?$AA@ 0000000180036028     libucrt:lcidtoname_downlevel.obj
 0002:00004038       ??_C@_1M@LILEEOGM@?$AAh?$AAr?$AA?9?$AAH?$AAR?$AA?$AA@ 0000000180036038     libucrt:lcidtoname_downlevel.obj
 0002:00004048       ??_C@_1M@FKIFEHPB@?$AAs?$AAk?$AA?9?$AAS?$AAK?$AA?$AA@ 0000000180036048     libucrt:lcidtoname_downlevel.obj
 0002:00004058       ??_C@_1M@LJMAMNPJ@?$AAs?$AAq?$AA?9?$AAA?$AAL?$AA?$AA@ 0000000180036058     libucrt:lcidtoname_downlevel.obj
 0002:00004068       ??_C@_1M@GIAKDKJK@?$AAs?$AAv?$AA?9?$AAS?$AAE?$AA?$AA@ 0000000180036068     libucrt:lcidtoname_downlevel.obj
 0002:00004078       ??_C@_1M@MKJKIKCL@?$AAt?$AAh?$AA?9?$AAT?$AAH?$AA?$AA@ 0000000180036078     libucrt:lcidtoname_downlevel.obj
 0002:00004088       ??_C@_1M@MFLCCMPB@?$AAt?$AAr?$AA?9?$AAT?$AAR?$AA?$AA@ 0000000180036088     libucrt:lcidtoname_downlevel.obj
 0002:00004098       ??_C@_1M@OIJHDKJN@?$AAu?$AAr?$AA?9?$AAP?$AAK?$AA?$AA@ 0000000180036098     libucrt:lcidtoname_downlevel.obj
 0002:000040a8       ??_C@_1M@LHIPCIEK@?$AAi?$AAd?$AA?9?$AAI?$AAD?$AA?$AA@ 00000001800360a8     libucrt:lcidtoname_downlevel.obj
 0002:000040b8       ??_C@_1M@MFMOBGI@?$AAu?$AAk?$AA?9?$AAU?$AAA?$AA?$AA@ 00000001800360b8     libucrt:lcidtoname_downlevel.obj
 0002:000040c8       ??_C@_1M@OBGLJIPL@?$AAb?$AAe?$AA?9?$AAB?$AAY?$AA?$AA@ 00000001800360c8     libucrt:lcidtoname_downlevel.obj
 0002:000040d8       ??_C@_1M@BCFAJEAD@?$AAs?$AAl?$AA?9?$AAS?$AAI?$AA?$AA@ 00000001800360d8     libucrt:lcidtoname_downlevel.obj
 0002:000040e8       ??_C@_1M@FKFFEDDN@?$AAe?$AAt?$AA?9?$AAE?$AAE?$AA?$AA@ 00000001800360e8     libucrt:lcidtoname_downlevel.obj
 0002:000040f8       ??_C@_1M@KGKKAACI@?$AAl?$AAv?$AA?9?$AAL?$AAV?$AA?$AA@ 00000001800360f8     libucrt:lcidtoname_downlevel.obj
 0002:00004108       ??_C@_1M@IFGBIJO@?$AAl?$AAt?$AA?9?$AAL?$AAT?$AA?$AA@ 0000000180036108     libucrt:lcidtoname_downlevel.obj
 0002:00004118       ??_C@_1M@FGEAHEDM@?$AAf?$AAa?$AA?9?$AAI?$AAR?$AA?$AA@ 0000000180036118     libucrt:lcidtoname_downlevel.obj
 0002:00004128       ??_C@_1M@KBMAIBFN@?$AAv?$AAi?$AA?9?$AAV?$AAN?$AA?$AA@ 0000000180036128     libucrt:lcidtoname_downlevel.obj
 0002:00004138       ??_C@_1M@GPCBKDJK@?$AAh?$AAy?$AA?9?$AAA?$AAM?$AA?$AA@ 0000000180036138     libucrt:lcidtoname_downlevel.obj
 0002:00004148       ??_C@_1BG@BECMDDJB@?$AAa?$AAz?$AA?9?$AAA?$AAZ?$AA?9?$AAL?$AAa?$AAt?$AAn?$AA?$AA@ 0000000180036148     libucrt:lcidtoname_downlevel.obj
 0002:00004160       ??_C@_1M@MAOFCAEA@?$AAe?$AAu?$AA?9?$AAE?$AAS?$AA?$AA@ 0000000180036160     libucrt:lcidtoname_downlevel.obj
 0002:00004170       ??_C@_1M@IGHABKPI@?$AAm?$AAk?$AA?9?$AAM?$AAK?$AA?$AA@ 0000000180036170     libucrt:lcidtoname_downlevel.obj
 0002:00004180       ??_C@_1M@IAIGNEJG@?$AAt?$AAn?$AA?9?$AAZ?$AAA?$AA?$AA@ 0000000180036180     libucrt:lcidtoname_downlevel.obj
 0002:00004190       ??_C@_1M@IIJCOJFA@?$AAx?$AAh?$AA?9?$AAZ?$AAA?$AA?$AA@ 0000000180036190     libucrt:lcidtoname_downlevel.obj
 0002:000041a0       ??_C@_1M@LGPJHNJH@?$AAz?$AAu?$AA?9?$AAZ?$AAA?$AA?$AA@ 00000001800361a0     libucrt:lcidtoname_downlevel.obj
 0002:000041b0       ??_C@_1M@HOKAOIO@?$AAa?$AAf?$AA?9?$AAZ?$AAA?$AA?$AA@ 00000001800361b0     libucrt:lcidtoname_downlevel.obj
 0002:000041c0       ??_C@_1M@DPCLHLIE@?$AAk?$AAa?$AA?9?$AAG?$AAE?$AA?$AA@ 00000001800361c0     libucrt:lcidtoname_downlevel.obj
 0002:000041d0       ??_C@_1M@BLKMHJBI@?$AAf?$AAo?$AA?9?$AAF?$AAO?$AA?$AA@ 00000001800361d0     libucrt:lcidtoname_downlevel.obj
 0002:000041e0       ??_C@_1M@LGGJAPPB@?$AAh?$AAi?$AA?9?$AAI?$AAN?$AA?$AA@ 00000001800361e0     libucrt:lcidtoname_downlevel.obj
 0002:000041f0       ??_C@_1M@FIKPIHFE@?$AAm?$AAt?$AA?9?$AAM?$AAT?$AA?$AA@ 00000001800361f0     libucrt:lcidtoname_downlevel.obj
 0002:00004200       ??_C@_1M@HEGGPBFA@?$AAs?$AAe?$AA?9?$AAN?$AAO?$AA?$AA@ 0000000180036200     libucrt:lcidtoname_downlevel.obj
 0002:00004210       ??_C@_1M@EIBJEEPA@?$AAm?$AAs?$AA?9?$AAM?$AAY?$AA?$AA@ 0000000180036210     libucrt:lcidtoname_downlevel.obj
 0002:00004220       ??_C@_1M@FHLBGMPP@?$AAk?$AAk?$AA?9?$AAK?$AAZ?$AA?$AA@ 0000000180036220     libucrt:lcidtoname_downlevel.obj
 0002:00004230       ??_C@_1M@NGJJLCGI@?$AAk?$AAy?$AA?9?$AAK?$AAG?$AA?$AA@ 0000000180036230     libucrt:lcidtoname_downlevel.obj
 0002:00004240       ??_C@_1M@GIENNBFC@?$AAs?$AAw?$AA?9?$AAK?$AAE?$AA?$AA@ 0000000180036240     libucrt:lcidtoname_downlevel.obj
 0002:00004250       ??_C@_1BG@NDGMJIMJ@?$AAu?$AAz?$AA?9?$AAU?$AAZ?$AA?9?$AAL?$AAa?$AAt?$AAn?$AA?$AA@ 0000000180036250     libucrt:lcidtoname_downlevel.obj
 0002:00004268       ??_C@_1M@IDCCIHBC@?$AAt?$AAt?$AA?9?$AAR?$AAU?$AA?$AA@ 0000000180036268     libucrt:lcidtoname_downlevel.obj
 0002:00004278       ??_C@_1M@LOICPMOJ@?$AAb?$AAn?$AA?9?$AAI?$AAN?$AA?$AA@ 0000000180036278     libucrt:lcidtoname_downlevel.obj
 0002:00004288       ??_C@_1M@KPKKNEAH@?$AAp?$AAa?$AA?9?$AAI?$AAN?$AA?$AA@ 0000000180036288     libucrt:lcidtoname_downlevel.obj
 0002:00004298       ??_C@_1M@PJGPPBOG@?$AAg?$AAu?$AA?9?$AAI?$AAN?$AA?$AA@ 0000000180036298     libucrt:lcidtoname_downlevel.obj
 0002:000042a8       ??_C@_1M@KMKMOPHI@?$AAt?$AAa?$AA?9?$AAI?$AAN?$AA?$AA@ 00000001800362a8     libucrt:lcidtoname_downlevel.obj
 0002:000042b8       ??_C@_1M@KFEHEPAC@?$AAt?$AAe?$AA?9?$AAI?$AAN?$AA?$AA@ 00000001800362b8     libucrt:lcidtoname_downlevel.obj
 0002:000042c8       ??_C@_1M@CDCLMGHI@?$AAk?$AAn?$AA?9?$AAI?$AAN?$AA?$AA@ 00000001800362c8     libucrt:lcidtoname_downlevel.obj
 0002:000042d8       ??_C@_1M@MIODLDKF@?$AAm?$AAl?$AA?9?$AAI?$AAN?$AA?$AA@ 00000001800362d8     libucrt:lcidtoname_downlevel.obj
 0002:000042e8       ??_C@_1M@PBIEACPO@?$AAm?$AAr?$AA?9?$AAI?$AAN?$AA?$AA@ 00000001800362e8     libucrt:lcidtoname_downlevel.obj
 0002:000042f8       ??_C@_1M@NIDEAGPH@?$AAs?$AAa?$AA?9?$AAI?$AAN?$AA?$AA@ 00000001800362f8     libucrt:lcidtoname_downlevel.obj
 0002:00004308       ??_C@_1M@FHIHCBIO@?$AAm?$AAn?$AA?9?$AAM?$AAN?$AA?$AA@ 0000000180036308     libucrt:lcidtoname_downlevel.obj
 0002:00004318       ??_C@_1M@JAIJPENP@?$AAc?$AAy?$AA?9?$AAG?$AAB?$AA?$AA@ 0000000180036318     libucrt:lcidtoname_downlevel.obj
 0002:00004328       ??_C@_1M@PHGFBEPN@?$AAg?$AAl?$AA?9?$AAE?$AAS?$AA?$AA@ 0000000180036328     libucrt:lcidtoname_downlevel.obj
 0002:00004338       ??_C@_1O@KPIPDNCP@?$AAk?$AAo?$AAk?$AA?9?$AAI?$AAN?$AA?$AA@ 0000000180036338     libucrt:lcidtoname_downlevel.obj
 0002:00004348       ??_C@_1O@KNHJLDJA@?$AAs?$AAy?$AAr?$AA?9?$AAS?$AAY?$AA?$AA@ 0000000180036348     libucrt:lcidtoname_downlevel.obj
 0002:00004358       ??_C@_1O@MKEKBLAH@?$AAd?$AAi?$AAv?$AA?9?$AAM?$AAV?$AA?$AA@ 0000000180036358     libucrt:lcidtoname_downlevel.obj
 0002:00004368       ??_C@_1O@OHDCKDDF@?$AAq?$AAu?$AAz?$AA?9?$AAB?$AAO?$AA?$AA@ 0000000180036368     libucrt:lcidtoname_downlevel.obj
 0002:00004378       ??_C@_1M@LEPJNLFD@?$AAn?$AAs?$AA?9?$AAZ?$AAA?$AA?$AA@ 0000000180036378     libucrt:lcidtoname_downlevel.obj
 0002:00004388       ??_C@_1M@OMLEIIJB@?$AAm?$AAi?$AA?9?$AAN?$AAZ?$AA?$AA@ 0000000180036388     libucrt:lcidtoname_downlevel.obj
 0002:00004398       ??_C@_1M@PMPEAILG@?$AAa?$AAr?$AA?9?$AAI?$AAQ?$AA?$AA@ 0000000180036398     libucrt:lcidtoname_downlevel.obj
 0002:000043a8       ??_C@_1M@CNKPNOEE@?$AAd?$AAe?$AA?9?$AAC?$AAH?$AA?$AA@ 00000001800363a8     libucrt:lcidtoname_downlevel.obj
 0002:000043b8       ??_C@_1M@LKMGMLKO@?$AAe?$AAn?$AA?9?$AAG?$AAB?$AA?$AA@ 00000001800363b8     libucrt:lcidtoname_downlevel.obj
 0002:000043c8       ??_C@_1M@PGKJFFGL@?$AAe?$AAs?$AA?9?$AAM?$AAX?$AA?$AA@ 00000001800363c8     libucrt:lcidtoname_downlevel.obj
 0002:000043d8       ??_C@_1M@DNNANBDC@?$AAf?$AAr?$AA?9?$AAB?$AAE?$AA?$AA@ 00000001800363d8     libucrt:lcidtoname_downlevel.obj
 0002:000043e8       ??_C@_1M@HLGMDFHM@?$AAi?$AAt?$AA?9?$AAC?$AAH?$AA?$AA@ 00000001800363e8     libucrt:lcidtoname_downlevel.obj
 0002:000043f8       ??_C@_1M@CLLBGJH@?$AAn?$AAl?$AA?9?$AAB?$AAE?$AA?$AA@ 00000001800363f8     libucrt:lcidtoname_downlevel.obj
 0002:00004408       ??_C@_1M@BODBOGLF@?$AAn?$AAn?$AA?9?$AAN?$AAO?$AA?$AA@ 0000000180036408     libucrt:lcidtoname_downlevel.obj
 0002:00004418       ??_C@_1M@HFFAHKAD@?$AAp?$AAt?$AA?9?$AAP?$AAT?$AA?$AA@ 0000000180036418     libucrt:lcidtoname_downlevel.obj
 0002:00004428       ??_C@_1BG@LNOAKHIE@?$AAs?$AAr?$AA?9?$AAS?$AAP?$AA?9?$AAL?$AAa?$AAt?$AAn?$AA?$AA@ 0000000180036428     libucrt:lcidtoname_downlevel.obj
 0002:00004440       ??_C@_1M@HBMHBGAK@?$AAs?$AAv?$AA?9?$AAF?$AAI?$AA?$AA@ 0000000180036440     libucrt:lcidtoname_downlevel.obj
 0002:00004450       ??_C@_1BG@DGCJGJBE@?$AAa?$AAz?$AA?9?$AAA?$AAZ?$AA?9?$AAC?$AAy?$AAr?$AAl?$AA?$AA@ 0000000180036450     libucrt:lcidtoname_downlevel.obj
 0002:00004468       ??_C@_1M@KEJDAAHB@?$AAs?$AAe?$AA?9?$AAS?$AAE?$AA?$AA@ 0000000180036468     libucrt:lcidtoname_downlevel.obj
 0002:00004478       ??_C@_1M@HEIBJJAD@?$AAm?$AAs?$AA?9?$AAB?$AAN?$AA?$AA@ 0000000180036478     libucrt:lcidtoname_downlevel.obj
 0002:00004488       ??_C@_1BG@PBGJMCEM@?$AAu?$AAz?$AA?9?$AAU?$AAZ?$AA?9?$AAC?$AAy?$AAr?$AAl?$AA?$AA@ 0000000180036488     libucrt:lcidtoname_downlevel.obj
 0002:000044a0       ??_C@_1O@LAOBCMDF@?$AAq?$AAu?$AAz?$AA?9?$AAE?$AAC?$AA?$AA@ 00000001800364a0     libucrt:lcidtoname_downlevel.obj
 0002:000044b0       ??_C@_1M@POEEMAIO@?$AAa?$AAr?$AA?9?$AAE?$AAG?$AA?$AA@ 00000001800364b0     libucrt:lcidtoname_downlevel.obj
 0002:000044c0       ??_C@_1M@EFAKDEDL@?$AAz?$AAh?$AA?9?$AAH?$AAK?$AA?$AA@ 00000001800364c0     libucrt:lcidtoname_downlevel.obj
 0002:000044d0       ??_C@_1M@HKKIJHGI@?$AAd?$AAe?$AA?9?$AAA?$AAT?$AA?$AA@ 00000001800364d0     libucrt:lcidtoname_downlevel.obj
 0002:000044e0       ??_C@_1M@KBFBEHJF@?$AAe?$AAn?$AA?9?$AAA?$AAU?$AA?$AA@ 00000001800364e0     libucrt:lcidtoname_downlevel.obj
 0002:000044f0       ??_C@_1M@MNPLFAAH@?$AAe?$AAs?$AA?9?$AAE?$AAS?$AA?$AA@ 00000001800364f0     libucrt:lcidtoname_downlevel.obj
 0002:00004500       ??_C@_1M@HJOOJFMA@?$AAf?$AAr?$AA?9?$AAC?$AAA?$AA?$AA@ 0000000180036500     libucrt:lcidtoname_downlevel.obj
 0002:00004510       ??_C@_1BG@JPOFPNAB@?$AAs?$AAr?$AA?9?$AAS?$AAP?$AA?9?$AAC?$AAy?$AAr?$AAl?$AA?$AA@ 0000000180036510     libucrt:lcidtoname_downlevel.obj
 0002:00004528       ??_C@_1M@LNFOCMOB@?$AAs?$AAe?$AA?9?$AAF?$AAI?$AA?$AA@ 0000000180036528     libucrt:lcidtoname_downlevel.obj
 0002:00004538       ??_C@_1O@MGJBOAMB@?$AAq?$AAu?$AAz?$AA?9?$AAP?$AAE?$AA?$AA@ 0000000180036538     libucrt:lcidtoname_downlevel.obj
 0002:00004548       ??_C@_1M@GJINLBOK@?$AAa?$AAr?$AA?9?$AAL?$AAY?$AA?$AA@ 0000000180036548     libucrt:lcidtoname_downlevel.obj
 0002:00004558       ??_C@_1M@GGMNHJNL@?$AAz?$AAh?$AA?9?$AAS?$AAG?$AA?$AA@ 0000000180036558     libucrt:lcidtoname_downlevel.obj
 0002:00004568       ??_C@_1M@HOIKODND@?$AAd?$AAe?$AA?9?$AAL?$AAU?$AA?$AA@ 0000000180036568     libucrt:lcidtoname_downlevel.obj
 0002:00004578       ??_C@_1M@DDOCCGFG@?$AAe?$AAn?$AA?9?$AAC?$AAA?$AA?$AA@ 0000000180036578     libucrt:lcidtoname_downlevel.obj
 0002:00004588       ??_C@_1M@BNOEMJLF@?$AAe?$AAs?$AA?9?$AAG?$AAT?$AA?$AA@ 0000000180036588     libucrt:lcidtoname_downlevel.obj
 0002:00004598       ??_C@_1M@EOGNKEK@?$AAf?$AAr?$AA?9?$AAC?$AAH?$AA?$AA@ 0000000180036598     libucrt:lcidtoname_downlevel.obj
 0002:000045a8       ??_C@_1M@FLIDJFHL@?$AAh?$AAr?$AA?9?$AAB?$AAA?$AA?$AA@ 00000001800365a8     libucrt:lcidtoname_downlevel.obj
 0002:000045b8       ??_C@_1O@FMCELNAJ@?$AAs?$AAm?$AAj?$AA?9?$AAN?$AAO?$AA?$AA@ 00000001800365b8     libucrt:lcidtoname_downlevel.obj
 0002:000045c8       ??_C@_1M@JHGLJMGJ@?$AAa?$AAr?$AA?9?$AAD?$AAZ?$AA?$AA@ 00000001800365c8     libucrt:lcidtoname_downlevel.obj
 0002:000045d8       ??_C@_1M@JKKFDCNP@?$AAz?$AAh?$AA?9?$AAM?$AAO?$AA?$AA@ 00000001800365d8     libucrt:lcidtoname_downlevel.obj
 0002:000045e8       ??_C@_1M@GEEFALPE@?$AAd?$AAe?$AA?9?$AAL?$AAI?$AA?$AA@ 00000001800365e8     libucrt:lcidtoname_downlevel.obj
 0002:000045f8       ??_C@_1M@IGEOFBG@?$AAe?$AAn?$AA?9?$AAN?$AAZ?$AA?$AA@ 00000001800365f8     libucrt:lcidtoname_downlevel.obj
 0002:00004608       ??_C@_1M@KDBONEHP@?$AAe?$AAs?$AA?9?$AAC?$AAR?$AA?$AA@ 0000000180036608     libucrt:lcidtoname_downlevel.obj
 0002:00004618       ??_C@_1M@FHMDOHNN@?$AAf?$AAr?$AA?9?$AAL?$AAU?$AA?$AA@ 0000000180036618     libucrt:lcidtoname_downlevel.obj
 0002:00004628       ??_C@_1BG@NFKKMAFG@?$AAb?$AAs?$AA?9?$AAB?$AAA?$AA?9?$AAL?$AAa?$AAt?$AAn?$AA?$AA@ 0000000180036628     libucrt:lcidtoname_downlevel.obj
 0002:00004640       ??_C@_1O@IMNBEMCI@?$AAs?$AAm?$AAj?$AA?9?$AAS?$AAE?$AA?$AA@ 0000000180036640     libucrt:lcidtoname_downlevel.obj
 0002:00004650       ??_C@_1M@DHHMBNDP@?$AAa?$AAr?$AA?9?$AAM?$AAA?$AA?$AA@ 0000000180036650     libucrt:lcidtoname_downlevel.obj
 0002:00004660       ??_C@_1M@BNBLJCGH@?$AAe?$AAn?$AA?9?$AAI?$AAE?$AA?$AA@ 0000000180036660     libucrt:lcidtoname_downlevel.obj
 0002:00004670       ??_C@_1M@GEPAFMDL@?$AAe?$AAs?$AA?9?$AAP?$AAA?$AA?$AA@ 0000000180036670     libucrt:lcidtoname_downlevel.obj
 0002:00004680       ??_C@_1M@OJONDMDL@?$AAf?$AAr?$AA?9?$AAM?$AAC?$AA?$AA@ 0000000180036680     libucrt:lcidtoname_downlevel.obj
 0002:00004690       ??_C@_1BG@OBCNFJB@?$AAs?$AAr?$AA?9?$AAB?$AAA?$AA?9?$AAL?$AAa?$AAt?$AAn?$AA?$AA@ 0000000180036690     libucrt:lcidtoname_downlevel.obj
 0002:000046a8       ??_C@_1O@KEMEEGPO@?$AAs?$AAm?$AAa?$AA?9?$AAN?$AAO?$AA?$AA@ 00000001800366a8     libucrt:lcidtoname_downlevel.obj
 0002:000046b8       ??_C@_1M@ELMGFODK@?$AAa?$AAr?$AA?9?$AAT?$AAN?$AA?$AA@ 00000001800366b8     libucrt:lcidtoname_downlevel.obj
 0002:000046c8       ??_C@_1M@BHDLHFAF@?$AAe?$AAn?$AA?9?$AAZ?$AAA?$AA?$AA@ 00000001800366c8     libucrt:lcidtoname_downlevel.obj
 0002:000046d8       ??_C@_1M@BMGIGLIF@?$AAe?$AAs?$AA?9?$AAD?$AAO?$AA?$AA@ 00000001800366d8     libucrt:lcidtoname_downlevel.obj
 0002:000046e8       ??_C@_1BG@CMBHIPBE@?$AAs?$AAr?$AA?9?$AAB?$AAA?$AA?9?$AAC?$AAy?$AAr?$AAl?$AA?$AA@ 00000001800366e8     libucrt:lcidtoname_downlevel.obj
 0002:00004700       ??_C@_1O@HEDBLHNP@?$AAs?$AAm?$AAa?$AA?9?$AAS?$AAE?$AA?$AA@ 0000000180036700     libucrt:lcidtoname_downlevel.obj
 0002:00004710       ??_C@_1M@DAGCADIM@?$AAa?$AAr?$AA?9?$AAO?$AAM?$AA?$AA@ 0000000180036710     libucrt:lcidtoname_downlevel.obj
 0002:00004720       ??_C@_1M@FODLMICG@?$AAe?$AAn?$AA?9?$AAJ?$AAM?$AA?$AA@ 0000000180036720     libucrt:lcidtoname_downlevel.obj
 0002:00004730       ??_C@_1M@DNMLCIHB@?$AAe?$AAs?$AA?9?$AAV?$AAE?$AA?$AA@ 0000000180036730     libucrt:lcidtoname_downlevel.obj
 0002:00004740       ??_C@_1O@EOKHMKJK@?$AAs?$AAm?$AAs?$AA?9?$AAF?$AAI?$AA?$AA@ 0000000180036740     libucrt:lcidtoname_downlevel.obj
 0002:00004750       ??_C@_1M@CAFJMKOF@?$AAa?$AAr?$AA?9?$AAY?$AAE?$AA?$AA@ 0000000180036750     libucrt:lcidtoname_downlevel.obj
 0002:00004760       ??_C@_1M@CBFHIJLI@?$AAe?$AAn?$AA?9?$AAC?$AAB?$AA?$AA@ 0000000180036760     libucrt:lcidtoname_downlevel.obj
 0002:00004770       ??_C@_1M@BGNFLDN@?$AAe?$AAs?$AA?9?$AAC?$AAO?$AA?$AA@ 0000000180036770     libucrt:lcidtoname_downlevel.obj
 0002:00004780       ??_C@_1O@JMPHMAMC@?$AAs?$AAm?$AAn?$AA?9?$AAF?$AAI?$AA?$AA@ 0000000180036780     libucrt:lcidtoname_downlevel.obj
 0002:00004790       ??_C@_1M@JLANABKE@?$AAa?$AAr?$AA?9?$AAS?$AAY?$AA?$AA@ 0000000180036790     libucrt:lcidtoname_downlevel.obj
 0002:000047a0       ??_C@_1M@HPKGCFGN@?$AAe?$AAn?$AA?9?$AAB?$AAZ?$AA?$AA@ 00000001800367a0     libucrt:lcidtoname_downlevel.obj
 0002:000047b0       ??_C@_1M@OLJCMLGM@?$AAe?$AAs?$AA?9?$AAP?$AAE?$AA?$AA@ 00000001800367b0     libucrt:lcidtoname_downlevel.obj
 0002:000047c0       ??_C@_1M@MKKGFKLE@?$AAa?$AAr?$AA?9?$AAJ?$AAO?$AA?$AA@ 00000001800367c0     libucrt:lcidtoname_downlevel.obj
 0002:000047d0       ??_C@_1M@EKPGLDNI@?$AAe?$AAn?$AA?9?$AAT?$AAT?$AA?$AA@ 00000001800367d0     libucrt:lcidtoname_downlevel.obj
 0002:000047e0       ??_C@_1M@OONGHFHE@?$AAe?$AAs?$AA?9?$AAA?$AAR?$AA?$AA@ 00000001800367e0     libucrt:lcidtoname_downlevel.obj
 0002:000047f0       ??_C@_1M@OOJFGBHE@?$AAa?$AAr?$AA?9?$AAL?$AAB?$AA?$AA@ 00000001800367f0     libucrt:lcidtoname_downlevel.obj
 0002:00004800       ??_C@_1M@GCEJHNEG@?$AAe?$AAn?$AA?9?$AAZ?$AAW?$AA?$AA@ 0000000180036800     libucrt:lcidtoname_downlevel.obj
 0002:00004810       ??_C@_1M@JNOCAHJI@?$AAe?$AAs?$AA?9?$AAE?$AAC?$AA?$AA@ 0000000180036810     libucrt:lcidtoname_downlevel.obj
 0002:00004820       ??_C@_1M@JEFHPGGB@?$AAa?$AAr?$AA?9?$AAK?$AAW?$AA?$AA@ 0000000180036820     libucrt:lcidtoname_downlevel.obj
 0002:00004830       ??_C@_1M@MLKIBJOJ@?$AAe?$AAn?$AA?9?$AAP?$AAH?$AA?$AA@ 0000000180036830     libucrt:lcidtoname_downlevel.obj
 0002:00004840       ??_C@_1M@BDNIPEND@?$AAe?$AAs?$AA?9?$AAC?$AAL?$AA?$AA@ 0000000180036840     libucrt:lcidtoname_downlevel.obj
 0002:00004850       ??_C@_1M@MPNMEKBD@?$AAa?$AAr?$AA?9?$AAA?$AAE?$AA?$AA@ 0000000180036850     libucrt:lcidtoname_downlevel.obj
 0002:00004860       ??_C@_1M@KBJALCPI@?$AAe?$AAs?$AA?9?$AAU?$AAY?$AA?$AA@ 0000000180036860     libucrt:lcidtoname_downlevel.obj
 0002:00004870       ??_C@_1M@LLCCOAGA@?$AAa?$AAr?$AA?9?$AAB?$AAH?$AA?$AA@ 0000000180036870     libucrt:lcidtoname_downlevel.obj
 0002:00004880       ??_C@_1M@PBFNCDEL@?$AAe?$AAs?$AA?9?$AAP?$AAY?$AA?$AA@ 0000000180036880     libucrt:lcidtoname_downlevel.obj
 0002:00004890       ??_C@_1M@EDGINPNP@?$AAa?$AAr?$AA?9?$AAQ?$AAA?$AA?$AA@ 0000000180036890     libucrt:lcidtoname_downlevel.obj
 0002:000048a0       ??_C@_1M@MKDBIIJI@?$AAe?$AAs?$AA?9?$AAB?$AAO?$AA?$AA@ 00000001800368a0     libucrt:lcidtoname_downlevel.obj
 0002:000048b0       ??_C@_1M@CPKKEBLD@?$AAe?$AAs?$AA?9?$AAS?$AAV?$AA?$AA@ 00000001800368b0     libucrt:lcidtoname_downlevel.obj
 0002:000048c0       ??_C@_1M@NDBGMMJL@?$AAe?$AAs?$AA?9?$AAH?$AAN?$AA?$AA@ 00000001800368c0     libucrt:lcidtoname_downlevel.obj
 0002:000048d0       ??_C@_1M@JIJIBHDP@?$AAe?$AAs?$AA?9?$AAN?$AAI?$AA?$AA@ 00000001800368d0     libucrt:lcidtoname_downlevel.obj
 0002:000048e0       ??_C@_1M@CGFMKEEK@?$AAe?$AAs?$AA?9?$AAP?$AAR?$AA?$AA@ 00000001800368e0     libucrt:lcidtoname_downlevel.obj
 0002:000048f0       ??_C@_1O@ICJHKIIK@?$AAz?$AAh?$AA?9?$AAC?$AAH?$AAT?$AA?$AA@ 00000001800368f0     libucrt:lcidtoname_downlevel.obj
 0002:00004900       ??_C@_15CLNEJCE@?$AAs?$AAr?$AA?$AA@ 0000000180036900     libucrt:lcidtoname_downlevel.obj
 0002:00005750       ??_C@_1M@KAHEKEIG@?$AAa?$AAf?$AA?9?$AAz?$AAa?$AA?$AA@ 0000000180037750     libucrt:lcidtoname_downlevel.obj
 0002:00005760       ??_C@_1M@GIECOABL@?$AAa?$AAr?$AA?9?$AAa?$AAe?$AA?$AA@ 0000000180037760     libucrt:lcidtoname_downlevel.obj
 0002:00005770       ??_C@_1M@BMLMEKGI@?$AAa?$AAr?$AA?9?$AAb?$AAh?$AA?$AA@ 0000000180037770     libucrt:lcidtoname_downlevel.obj
 0002:00005780       ??_C@_1M@DAPFDGGB@?$AAa?$AAr?$AA?9?$AAd?$AAz?$AA?$AA@ 0000000180037780     libucrt:lcidtoname_downlevel.obj
 0002:00005790       ??_C@_1M@FJNKGKIG@?$AAa?$AAr?$AA?9?$AAe?$AAg?$AA?$AA@ 0000000180037790     libucrt:lcidtoname_downlevel.obj
 0002:000057a0       ??_C@_1M@FLGKKCLO@?$AAa?$AAr?$AA?9?$AAi?$AAq?$AA?$AA@ 00000001800377a0     libucrt:lcidtoname_downlevel.obj
 0002:000057b0       ??_C@_1M@GNDIPALM@?$AAa?$AAr?$AA?9?$AAj?$AAo?$AA?$AA@ 00000001800377b0     libucrt:lcidtoname_downlevel.obj
 0002:000057c0       ??_C@_1M@DDMJFMGJ@?$AAa?$AAr?$AA?9?$AAk?$AAw?$AA?$AA@ 00000001800377c0     libucrt:lcidtoname_downlevel.obj
 0002:000057d0       ??_C@_1M@EJALMLHM@?$AAa?$AAr?$AA?9?$AAl?$AAb?$AA?$AA@ 00000001800377d0     libucrt:lcidtoname_downlevel.obj
 0002:000057e0       ??_C@_1M@MOBDBLOC@?$AAa?$AAr?$AA?9?$AAl?$AAy?$AA?$AA@ 00000001800377e0     libucrt:lcidtoname_downlevel.obj
 0002:000057f0       ??_C@_1M@JAOCLHDH@?$AAa?$AAr?$AA?9?$AAm?$AAa?$AA?$AA@ 00000001800377f0     libucrt:lcidtoname_downlevel.obj
 0002:00005800       ??_C@_1M@JHPMKJIE@?$AAa?$AAr?$AA?9?$AAo?$AAm?$AA?$AA@ 0000000180037800     libucrt:lcidtoname_downlevel.obj
 0002:00005810       ??_C@_1M@OEPGHFNH@?$AAa?$AAr?$AA?9?$AAq?$AAa?$AA?$AA@ 0000000180037810     libucrt:lcidtoname_downlevel.obj
 0002:00005820       ??_C@_1M@KJDONENM@?$AAa?$AAr?$AA?9?$AAs?$AAa?$AA?$AA@ 0000000180037820     libucrt:lcidtoname_downlevel.obj
 0002:00005830       ??_C@_1M@DMJDKLKM@?$AAa?$AAr?$AA?9?$AAs?$AAy?$AA?$AA@ 0000000180037830     libucrt:lcidtoname_downlevel.obj
 0002:00005840       ??_C@_1M@OMFIPEDC@?$AAa?$AAr?$AA?9?$AAt?$AAn?$AA?$AA@ 0000000180037840     libucrt:lcidtoname_downlevel.obj
 0002:00005850       ??_C@_1M@IHMHGAON@?$AAa?$AAr?$AA?9?$AAy?$AAe?$AA?$AA@ 0000000180037850     libucrt:lcidtoname_downlevel.obj
 0002:00005860       ??_C@_1BG@KDCPGJGB@?$AAa?$AAz?$AA?9?$AAa?$AAz?$AA?9?$AAc?$AAy?$AAr?$AAl?$AA?$AA@ 0000000180037860     libucrt:lcidtoname_downlevel.obj
 0002:00005878       ??_C@_1BG@IBCKDDOE@?$AAa?$AAz?$AA?9?$AAa?$AAz?$AA?9?$AAl?$AAa?$AAt?$AAn?$AA?$AA@ 0000000180037878     libucrt:lcidtoname_downlevel.obj
 0002:00005890       ??_C@_1M@EGPFDCPD@?$AAb?$AAe?$AA?9?$AAb?$AAy?$AA?$AA@ 0000000180037890     libucrt:lcidtoname_downlevel.obj
 0002:000058a0       ??_C@_1M@PCMGMCGC@?$AAb?$AAg?$AA?9?$AAb?$AAg?$AA?$AA@ 00000001800378a0     libucrt:lcidtoname_downlevel.obj
 0002:000058b0       ??_C@_1M@BJBMFGOB@?$AAb?$AAn?$AA?9?$AAi?$AAn?$AA?$AA@ 00000001800378b0     libucrt:lcidtoname_downlevel.obj
 0002:000058c0       ??_C@_1BG@EAKMMACD@?$AAb?$AAs?$AA?9?$AAb?$AAa?$AA?9?$AAl?$AAa?$AAt?$AAn?$AA?$AA@ 00000001800378c0     libucrt:lcidtoname_downlevel.obj
 0002:000058d8       ??_C@_1M@KGADAODK@?$AAc?$AAa?$AA?9?$AAe?$AAs?$AA?$AA@ 00000001800378d8     libucrt:lcidtoname_downlevel.obj
 0002:000058e8       ??_C@_1M@COAJPDHI@?$AAc?$AAs?$AA?9?$AAc?$AAz?$AA?$AA@ 00000001800378e8     libucrt:lcidtoname_downlevel.obj
 0002:000058f8       ??_C@_1M@DHBHFONH@?$AAc?$AAy?$AA?9?$AAg?$AAb?$AA?$AA@ 00000001800378f8     libucrt:lcidtoname_downlevel.obj
 0002:00005908       ??_C@_1M@IMGKELGA@?$AAd?$AAa?$AA?9?$AAd?$AAk?$AA?$AA@ 0000000180037908     libucrt:lcidtoname_downlevel.obj
 0002:00005918       ??_C@_1M@NNDGDNGA@?$AAd?$AAe?$AA?9?$AAa?$AAt?$AA?$AA@ 0000000180037918     libucrt:lcidtoname_downlevel.obj
 0002:00005928       ??_C@_1M@IKDBHEEM@?$AAd?$AAe?$AA?9?$AAc?$AAh?$AA?$AA@ 0000000180037928     libucrt:lcidtoname_downlevel.obj
 0002:00005938       ??_C@_1M@GFFOJMCJ@?$AAd?$AAe?$AA?9?$AAd?$AAe?$AA?$AA@ 0000000180037938     libucrt:lcidtoname_downlevel.obj
 0002:00005948       ??_C@_1M@MDNLKBPM@?$AAd?$AAe?$AA?9?$AAl?$AAi?$AA?$AA@ 0000000180037948     libucrt:lcidtoname_downlevel.obj
 0002:00005958       ??_C@_1M@NJBEEJNL@?$AAd?$AAe?$AA?9?$AAl?$AAu?$AA?$AA@ 0000000180037958     libucrt:lcidtoname_downlevel.obj
 0002:00005968       ??_C@_1O@GNNELBAP@?$AAd?$AAi?$AAv?$AA?9?$AAm?$AAv?$AA?$AA@ 0000000180037968     libucrt:lcidtoname_downlevel.obj
 0002:00005978       ??_C@_1M@EJLEOGAE@?$AAe?$AAl?$AA?9?$AAg?$AAr?$AA?$AA@ 0000000180037978     libucrt:lcidtoname_downlevel.obj
 0002:00005988       ??_C@_1M@GMPONJN@?$AAe?$AAn?$AA?9?$AAa?$AAu?$AA?$AA@ 0000000180037988     libucrt:lcidtoname_downlevel.obj
 0002:00005998       ??_C@_1M@NIDIIPGF@?$AAe?$AAn?$AA?9?$AAb?$AAz?$AA?$AA@ 0000000180037998     libucrt:lcidtoname_downlevel.obj
 0002:000059a8       ??_C@_1M@JEHMIMFO@?$AAe?$AAn?$AA?9?$AAc?$AAa?$AA?$AA@ 00000001800379a8     libucrt:lcidtoname_downlevel.obj
 0002:000059b8       ??_C@_1M@IGMJCDLA@?$AAe?$AAn?$AA?9?$AAc?$AAb?$AA?$AA@ 00000001800379b8     libucrt:lcidtoname_downlevel.obj
 0002:000059c8       ??_C@_1M@BNFIGBKG@?$AAe?$AAn?$AA?9?$AAg?$AAb?$AA?$AA@ 00000001800379c8     libucrt:lcidtoname_downlevel.obj
 0002:000059d8       ??_C@_1M@LKIFDIGP@?$AAe?$AAn?$AA?9?$AAi?$AAe?$AA?$AA@ 00000001800379d8     libucrt:lcidtoname_downlevel.obj
 0002:000059e8       ??_C@_1M@PJKFGCCO@?$AAe?$AAn?$AA?9?$AAj?$AAm?$AA?$AA@ 00000001800379e8     libucrt:lcidtoname_downlevel.obj
 0002:000059f8       ??_C@_1M@KPPKEPBO@?$AAe?$AAn?$AA?9?$AAn?$AAz?$AA?$AA@ 00000001800379f8     libucrt:lcidtoname_downlevel.obj
 0002:00005a08       ??_C@_1M@GMDGLDOB@?$AAe?$AAn?$AA?9?$AAp?$AAh?$AA?$AA@ 0000000180037a08     libucrt:lcidtoname_downlevel.obj
 0002:00005a18       ??_C@_1M@ONGIBJNA@?$AAe?$AAn?$AA?9?$AAt?$AAt?$AA?$AA@ 0000000180037a18     libucrt:lcidtoname_downlevel.obj
 0002:00005a28       ??_C@_1M@LLODPCMM@?$AAe?$AAn?$AA?9?$AAu?$AAs?$AA?$AA@ 0000000180037a28     libucrt:lcidtoname_downlevel.obj
 0002:00005a38       ??_C@_1M@LAKFNPAN@?$AAe?$AAn?$AA?9?$AAz?$AAa?$AA?$AA@ 0000000180037a38     libucrt:lcidtoname_downlevel.obj
 0002:00005a48       ??_C@_1M@MFNHNHEO@?$AAe?$AAn?$AA?9?$AAz?$AAw?$AA?$AA@ 0000000180037a48     libucrt:lcidtoname_downlevel.obj
 0002:00005a58       ??_C@_1M@EJEINPHM@?$AAe?$AAs?$AA?9?$AAa?$AAr?$AA?$AA@ 0000000180037a58     libucrt:lcidtoname_downlevel.obj
 0002:00005a68       ??_C@_1M@GNKPCCJA@?$AAe?$AAs?$AA?9?$AAb?$AAo?$AA?$AA@ 0000000180037a68     libucrt:lcidtoname_downlevel.obj
 0002:00005a78       ??_C@_1M@LEEGFONL@?$AAe?$AAs?$AA?9?$AAc?$AAl?$AA?$AA@ 0000000180037a78     libucrt:lcidtoname_downlevel.obj
 0002:00005a88       ??_C@_1M@KGPDPBDF@?$AAe?$AAs?$AA?9?$AAc?$AAo?$AA?$AA@ 0000000180037a88     libucrt:lcidtoname_downlevel.obj
 0002:00005a98       ??_C@_1M@EIAHOHH@?$AAe?$AAs?$AA?9?$AAc?$AAr?$AA?$AA@ 0000000180037a98     libucrt:lcidtoname_downlevel.obj
 0002:00005aa8       ??_C@_1M@LLPGMBIN@?$AAe?$AAs?$AA?9?$AAd?$AAo?$AA?$AA@ 0000000180037aa8     libucrt:lcidtoname_downlevel.obj
 0002:00005ab8       ??_C@_1M@DKHMKNJA@?$AAe?$AAs?$AA?9?$AAe?$AAc?$AA?$AA@ 0000000180037ab8     libucrt:lcidtoname_downlevel.obj
 0002:00005ac8       ??_C@_1M@GKGFPKAP@?$AAe?$AAs?$AA?9?$AAe?$AAs?$AA?$AA@ 0000000180037ac8     libucrt:lcidtoname_downlevel.obj
 0002:00005ad8       ??_C@_1M@LKHKGDLN@?$AAe?$AAs?$AA?9?$AAg?$AAt?$AA?$AA@ 0000000180037ad8     libucrt:lcidtoname_downlevel.obj
 0002:00005ae8       ??_C@_1M@HEIIGGJD@?$AAe?$AAs?$AA?9?$AAh?$AAn?$AA?$AA@ 0000000180037ae8     libucrt:lcidtoname_downlevel.obj
 0002:00005af8       ??_C@_1M@FBDHPPGD@?$AAe?$AAs?$AA?9?$AAm?$AAx?$AA?$AA@ 0000000180037af8     libucrt:lcidtoname_downlevel.obj
 0002:00005b08       ??_C@_1M@DPAGLNDH@?$AAe?$AAs?$AA?9?$AAn?$AAi?$AA?$AA@ 0000000180037b08     libucrt:lcidtoname_downlevel.obj
 0002:00005b18       ??_C@_1M@MDGOPGDD@?$AAe?$AAs?$AA?9?$AAp?$AAa?$AA?$AA@ 0000000180037b18     libucrt:lcidtoname_downlevel.obj
 0002:00005b28       ??_C@_1M@EMAMGBGE@?$AAe?$AAs?$AA?9?$AAp?$AAe?$AA?$AA@ 0000000180037b28     libucrt:lcidtoname_downlevel.obj
 0002:00005b38       ??_C@_1M@IBMCAOEC@?$AAe?$AAs?$AA?9?$AAp?$AAr?$AA?$AA@ 0000000180037b38     libucrt:lcidtoname_downlevel.obj
 0002:00005b48       ??_C@_1M@FGMDIJED@?$AAe?$AAs?$AA?9?$AAp?$AAy?$AA?$AA@ 0000000180037b48     libucrt:lcidtoname_downlevel.obj
 0002:00005b58       ??_C@_1M@IIDEOLLL@?$AAe?$AAs?$AA?9?$AAs?$AAv?$AA?$AA@ 0000000180037b58     libucrt:lcidtoname_downlevel.obj
 0002:00005b68       ??_C@_1M@GAOBIPA@?$AAe?$AAs?$AA?9?$AAu?$AAy?$AA?$AA@ 0000000180037b68     libucrt:lcidtoname_downlevel.obj
 0002:00005b78       ??_C@_1M@JKFFICHJ@?$AAe?$AAs?$AA?9?$AAv?$AAe?$AA?$AA@ 0000000180037b78     libucrt:lcidtoname_downlevel.obj
 0002:00005b88       ??_C@_1M@PNMLOJDF@?$AAe?$AAt?$AA?9?$AAe?$AAe?$AA?$AA@ 0000000180037b88     libucrt:lcidtoname_downlevel.obj
 0002:00005b98       ??_C@_1M@GHHLIKEI@?$AAe?$AAu?$AA?9?$AAe?$AAs?$AA?$AA@ 0000000180037b98     libucrt:lcidtoname_downlevel.obj
 0002:00005ba8       ??_C@_1M@PBNONODE@?$AAf?$AAa?$AA?9?$AAi?$AAr?$AA?$AA@ 0000000180037ba8     libucrt:lcidtoname_downlevel.obj
 0002:00005bb8       ??_C@_1M@JEEHPMIL@?$AAf?$AAi?$AA?9?$AAf?$AAi?$AA?$AA@ 0000000180037bb8     libucrt:lcidtoname_downlevel.obj
 0002:00005bc8       ??_C@_1M@LMDCNDBA@?$AAf?$AAo?$AA?9?$AAf?$AAo?$AA?$AA@ 0000000180037bc8     libucrt:lcidtoname_downlevel.obj
 0002:00005bd8       ??_C@_1M@JKEOHLDK@?$AAf?$AAr?$AA?9?$AAb?$AAe?$AA?$AA@ 0000000180037bd8     libucrt:lcidtoname_downlevel.obj
 0002:00005be8       ??_C@_1M@NOHADPMI@?$AAf?$AAr?$AA?9?$AAc?$AAa?$AA?$AA@ 0000000180037be8     libucrt:lcidtoname_downlevel.obj
 0002:00005bf8       ??_C@_1M@KDHIHAEC@?$AAf?$AAr?$AA?9?$AAc?$AAh?$AA?$AA@ 0000000180037bf8     libucrt:lcidtoname_downlevel.obj
 0002:00005c08       ??_C@_1M@MMBBFGAK@?$AAf?$AAr?$AA?9?$AAf?$AAr?$AA?$AA@ 0000000180037c08     libucrt:lcidtoname_downlevel.obj
 0002:00005c18       ??_C@_1M@PAFNENNF@?$AAf?$AAr?$AA?9?$AAl?$AAu?$AA?$AA@ 0000000180037c18     libucrt:lcidtoname_downlevel.obj
 0002:00005c28       ??_C@_1M@EOHDJGDD@?$AAf?$AAr?$AA?9?$AAm?$AAc?$AA?$AA@ 0000000180037c28     libucrt:lcidtoname_downlevel.obj
 0002:00005c38       ??_C@_1M@FAPLLOPF@?$AAg?$AAl?$AA?9?$AAe?$AAs?$AA?$AA@ 0000000180037c38     libucrt:lcidtoname_downlevel.obj
 0002:00005c48       ??_C@_1M@FOPBFLOO@?$AAg?$AAu?$AA?9?$AAi?$AAn?$AA?$AA@ 0000000180037c48     libucrt:lcidtoname_downlevel.obj
 0002:00005c58       ??_C@_1M@KBMCINPM@?$AAh?$AAe?$AA?9?$AAi?$AAl?$AA?$AA@ 0000000180037c58     libucrt:lcidtoname_downlevel.obj
 0002:00005c68       ??_C@_1M@BBPHKFPJ@?$AAh?$AAi?$AA?9?$AAi?$AAn?$AA?$AA@ 0000000180037c68     libucrt:lcidtoname_downlevel.obj
 0002:00005c78       ??_C@_1M@PMBNDPHD@?$AAh?$AAr?$AA?9?$AAb?$AAa?$AA?$AA@ 0000000180037c78     libucrt:lcidtoname_downlevel.obj
 0002:00005c88       ??_C@_1M@BPCKOEGE@?$AAh?$AAr?$AA?9?$AAh?$AAr?$AA?$AA@ 0000000180037c88     libucrt:lcidtoname_downlevel.obj
 0002:00005c98       ??_C@_1M@GACBMHKE@?$AAh?$AAu?$AA?9?$AAh?$AAu?$AA?$AA@ 0000000180037c98     libucrt:lcidtoname_downlevel.obj
 0002:00005ca8       ??_C@_1M@MILPAJJC@?$AAh?$AAy?$AA?9?$AAa?$AAm?$AA?$AA@ 0000000180037ca8     libucrt:lcidtoname_downlevel.obj
 0002:00005cb8       ??_C@_1M@BABBICEC@?$AAi?$AAd?$AA?9?$AAi?$AAd?$AA?$AA@ 0000000180037cb8     libucrt:lcidtoname_downlevel.obj
 0002:00005cc8       ??_C@_1M@BIKNHHPF@?$AAi?$AAs?$AA?9?$AAi?$AAs?$AA?$AA@ 0000000180037cc8     libucrt:lcidtoname_downlevel.obj
 0002:00005cd8       ??_C@_1M@NMPCJPHE@?$AAi?$AAt?$AA?9?$AAc?$AAh?$AA?$AA@ 0000000180037cd8     libucrt:lcidtoname_downlevel.obj
 0002:00005ce8       ??_C@_1M@GHKGFEDF@?$AAi?$AAt?$AA?9?$AAi?$AAt?$AA?$AA@ 0000000180037ce8     libucrt:lcidtoname_downlevel.obj
 0002:00005cf8       ??_C@_1M@NIEJCJJA@?$AAj?$AAa?$AA?9?$AAj?$AAp?$AA?$AA@ 0000000180037cf8     libucrt:lcidtoname_downlevel.obj
 0002:00005d08       ??_C@_1M@JILFNBIM@?$AAk?$AAa?$AA?9?$AAg?$AAe?$AA?$AA@ 0000000180037d08     libucrt:lcidtoname_downlevel.obj
 0002:00005d18       ??_C@_1M@PACPMGPH@?$AAk?$AAk?$AA?9?$AAk?$AAz?$AA?$AA@ 0000000180037d18     libucrt:lcidtoname_downlevel.obj
 0002:00005d28       ??_C@_1M@IELFGMHA@?$AAk?$AAn?$AA?9?$AAi?$AAn?$AA?$AA@ 0000000180037d28     libucrt:lcidtoname_downlevel.obj
 0002:00005d38       ??_C@_1O@IBBJHCH@?$AAk?$AAo?$AAk?$AA?9?$AAi?$AAn?$AA?$AA@ 0000000180037d38     libucrt:lcidtoname_downlevel.obj
 0002:00005d48       ??_C@_1M@DMHAEOGC@?$AAk?$AAo?$AA?9?$AAk?$AAr?$AA?$AA@ 0000000180037d48     libucrt:lcidtoname_downlevel.obj
 0002:00005d58       ??_C@_1M@HBAHBIGA@?$AAk?$AAy?$AA?9?$AAk?$AAg?$AA?$AA@ 0000000180037d58     libucrt:lcidtoname_downlevel.obj
 0002:00005d68       ??_C@_1M@KPMILCJG@?$AAl?$AAt?$AA?9?$AAl?$AAt?$AA?$AA@ 0000000180037d68     libucrt:lcidtoname_downlevel.obj
 0002:00005d78       ??_C@_1M@BDEKKCA@?$AAl?$AAv?$AA?9?$AAl?$AAv?$AA?$AA@ 0000000180037d78     libucrt:lcidtoname_downlevel.obj
 0002:00005d88       ??_C@_1M@ELCKCCJJ@?$AAm?$AAi?$AA?9?$AAn?$AAz?$AA?$AA@ 0000000180037d88     libucrt:lcidtoname_downlevel.obj
 0002:00005d98       ??_C@_1M@CBOOLAPA@?$AAm?$AAk?$AA?9?$AAm?$AAk?$AA?$AA@ 0000000180037d98     libucrt:lcidtoname_downlevel.obj
 0002:00005da8       ??_C@_1M@GPHNBJKN@?$AAm?$AAl?$AA?9?$AAi?$AAn?$AA?$AA@ 0000000180037da8     libucrt:lcidtoname_downlevel.obj
 0002:00005db8       ??_C@_1M@PABJILIG@?$AAm?$AAn?$AA?9?$AAm?$AAn?$AA?$AA@ 0000000180037db8     libucrt:lcidtoname_downlevel.obj
 0002:00005dc8       ??_C@_1M@FGBKKIPG@?$AAm?$AAr?$AA?9?$AAi?$AAn?$AA?$AA@ 0000000180037dc8     libucrt:lcidtoname_downlevel.obj
 0002:00005dd8       ??_C@_1M@NDBPDDAL@?$AAm?$AAs?$AA?9?$AAb?$AAn?$AA?$AA@ 0000000180037dd8     libucrt:lcidtoname_downlevel.obj
 0002:00005de8       ??_C@_1M@OPIHOOPI@?$AAm?$AAs?$AA?9?$AAm?$AAy?$AA?$AA@ 0000000180037de8     libucrt:lcidtoname_downlevel.obj
 0002:00005df8       ??_C@_1M@PPDBCNFM@?$AAm?$AAt?$AA?9?$AAm?$AAt?$AA?$AA@ 0000000180037df8     libucrt:lcidtoname_downlevel.obj
 0002:00005e08       ??_C@_1M@KDJDKMDD@?$AAn?$AAb?$AA?9?$AAn?$AAo?$AA?$AA@ 0000000180037e08     libucrt:lcidtoname_downlevel.obj
 0002:00005e18       ??_C@_1M@KFCFLMJP@?$AAn?$AAl?$AA?9?$AAb?$AAe?$AA?$AA@ 0000000180037e18     libucrt:lcidtoname_downlevel.obj
 0002:00005e28       ??_C@_1M@KPOPDDGO@?$AAn?$AAl?$AA?9?$AAn?$AAl?$AA?$AA@ 0000000180037e28     libucrt:lcidtoname_downlevel.obj
 0002:00005e38       ??_C@_1M@LJKPEMLN@?$AAn?$AAn?$AA?9?$AAn?$AAo?$AA?$AA@ 0000000180037e38     libucrt:lcidtoname_downlevel.obj
 0002:00005e48       ??_C@_1M@BDGHHBFL@?$AAn?$AAs?$AA?9?$AAz?$AAa?$AA?$AA@ 0000000180037e48     libucrt:lcidtoname_downlevel.obj
 0002:00005e58       ??_C@_1M@IDEHOAP@?$AAp?$AAa?$AA?9?$AAi?$AAn?$AA?$AA@ 0000000180037e58     libucrt:lcidtoname_downlevel.obj
 0002:00005e68       ??_C@_1M@HDBKGOGH@?$AAp?$AAl?$AA?9?$AAp?$AAl?$AA?$AA@ 0000000180037e68     libucrt:lcidtoname_downlevel.obj
 0002:00005e78       ??_C@_1M@LJLLCMEH@?$AAp?$AAt?$AA?9?$AAb?$AAr?$AA?$AA@ 0000000180037e78     libucrt:lcidtoname_downlevel.obj
 0002:00005e88       ??_C@_1M@NCMONAAL@?$AAp?$AAt?$AA?9?$AAp?$AAt?$AA?$AA@ 0000000180037e88     libucrt:lcidtoname_downlevel.obj
 0002:00005e98       ??_C@_1O@EAKMAJDN@?$AAq?$AAu?$AAz?$AA?9?$AAb?$AAo?$AA?$AA@ 0000000180037e98     libucrt:lcidtoname_downlevel.obj
 0002:00005ea8       ??_C@_1O@BHHPIGDN@?$AAq?$AAu?$AAz?$AA?9?$AAe?$AAc?$AA?$AA@ 0000000180037ea8     libucrt:lcidtoname_downlevel.obj
 0002:00005eb8       ??_C@_1O@GBAPEKMJ@?$AAq?$AAu?$AAz?$AA?9?$AAp?$AAe?$AA?$AA@ 0000000180037eb8     libucrt:lcidtoname_downlevel.obj
 0002:00005ec8       ??_C@_1M@CLGLEFBO@?$AAr?$AAo?$AA?9?$AAr?$AAo?$AA?$AA@ 0000000180037ec8     libucrt:lcidtoname_downlevel.obj
 0002:00005ed8       ??_C@_1M@CEEDODME@?$AAr?$AAu?$AA?9?$AAr?$AAu?$AA?$AA@ 0000000180037ed8     libucrt:lcidtoname_downlevel.obj
 0002:00005ee8       ??_C@_1M@HPKKKMPP@?$AAs?$AAa?$AA?9?$AAi?$AAn?$AA?$AA@ 0000000180037ee8     libucrt:lcidtoname_downlevel.obj
 0002:00005ef8       ??_C@_1M@BKMAIGOJ@?$AAs?$AAe?$AA?9?$AAf?$AAi?$AA?$AA@ 0000000180037ef8     libucrt:lcidtoname_downlevel.obj
 0002:00005f08       ??_C@_1M@NDPIFLFI@?$AAs?$AAe?$AA?9?$AAn?$AAo?$AA?$AA@ 0000000180037f08     libucrt:lcidtoname_downlevel.obj
 0002:00005f18       ??_C@_1M@DANKKHJ@?$AAs?$AAe?$AA?9?$AAs?$AAe?$AA?$AA@ 0000000180037f18     libucrt:lcidtoname_downlevel.obj
 0002:00005f28       ??_C@_1M@PNBLONPJ@?$AAs?$AAk?$AA?9?$AAs?$AAk?$AA?$AA@ 0000000180037f28     libucrt:lcidtoname_downlevel.obj
 0002:00005f38       ??_C@_1M@LFMODOAL@?$AAs?$AAl?$AA?9?$AAs?$AAi?$AA?$AA@ 0000000180037f38     libucrt:lcidtoname_downlevel.obj
 0002:00005f48       ??_C@_1O@DFKOMPG@?$AAs?$AAm?$AAa?$AA?9?$AAn?$AAo?$AA?$AA@ 0000000180037f48     libucrt:lcidtoname_downlevel.obj
 0002:00005f58       ??_C@_1O@NDKPBNNH@?$AAs?$AAm?$AAa?$AA?9?$AAs?$AAe?$AA?$AA@ 0000000180037f58     libucrt:lcidtoname_downlevel.obj
 0002:00005f68       ??_C@_1O@PLLKBHAB@?$AAs?$AAm?$AAj?$AA?9?$AAn?$AAo?$AA?$AA@ 0000000180037f68     libucrt:lcidtoname_downlevel.obj
 0002:00005f78       ??_C@_1O@CLEPOGCA@?$AAs?$AAm?$AAj?$AA?9?$AAs?$AAe?$AA?$AA@ 0000000180037f78     libucrt:lcidtoname_downlevel.obj
 0002:00005f88       ??_C@_1O@DLGJGKMK@?$AAs?$AAm?$AAn?$AA?9?$AAf?$AAi?$AA?$AA@ 0000000180037f88     libucrt:lcidtoname_downlevel.obj
 0002:00005f98       ??_C@_1O@OJDJGAJC@?$AAs?$AAm?$AAs?$AA?9?$AAf?$AAi?$AA?$AA@ 0000000180037f98     libucrt:lcidtoname_downlevel.obj
 0002:00005fa8       ??_C@_1M@BOFOGHPB@?$AAs?$AAq?$AA?9?$AAa?$AAl?$AA?$AA@ 0000000180037fa8     libucrt:lcidtoname_downlevel.obj
 0002:00005fb8       ??_C@_1BG@LJBBIPGB@?$AAs?$AAr?$AA?9?$AAb?$AAa?$AA?9?$AAc?$AAy?$AAr?$AAl?$AA?$AA@ 0000000180037fb8     libucrt:lcidtoname_downlevel.obj
 0002:00005fd0       ??_C@_1BG@JLBENFOE@?$AAs?$AAr?$AA?9?$AAb?$AAa?$AA?9?$AAl?$AAa?$AAt?$AAn?$AA?$AA@ 0000000180037fd0     libucrt:lcidtoname_downlevel.obj
 0002:00005fe8       ??_C@_1BG@KODPNHE@?$AAs?$AAr?$AA?9?$AAs?$AAp?$AA?9?$AAc?$AAy?$AAr?$AAl?$AA?$AA@ 0000000180037fe8     libucrt:lcidtoname_downlevel.obj
 0002:00006000       ??_C@_1BG@CIOGKHPB@?$AAs?$AAr?$AA?9?$AAs?$AAp?$AA?9?$AAl?$AAa?$AAt?$AAn?$AA?$AA@ 0000000180038000     libucrt:lcidtoname_downlevel.obj
 0002:00006018       ??_C@_1M@NGFJLMAC@?$AAs?$AAv?$AA?9?$AAf?$AAi?$AA?$AA@ 0000000180038018     libucrt:lcidtoname_downlevel.obj
 0002:00006028       ??_C@_1M@MPJEJAJC@?$AAs?$AAv?$AA?9?$AAs?$AAe?$AA?$AA@ 0000000180038028     libucrt:lcidtoname_downlevel.obj
 0002:00006038       ??_C@_1M@MPNDHLFK@?$AAs?$AAw?$AA?9?$AAk?$AAe?$AA?$AA@ 0000000180038038     libucrt:lcidtoname_downlevel.obj
 0002:00006048       ??_C@_1O@KOHBJJI@?$AAs?$AAy?$AAr?$AA?9?$AAs?$AAy?$AA?$AA@ 0000000180038048     libucrt:lcidtoname_downlevel.obj
 0002:00006058       ??_C@_1M@LDCEFHA@?$AAt?$AAa?$AA?9?$AAi?$AAn?$AA?$AA@ 0000000180038058     libucrt:lcidtoname_downlevel.obj
 0002:00006068       ??_C@_1M@CNJOFAK@?$AAt?$AAe?$AA?9?$AAi?$AAn?$AA?$AA@ 0000000180038068     libucrt:lcidtoname_downlevel.obj
 0002:00006078       ??_C@_1M@GNAECACD@?$AAt?$AAh?$AA?9?$AAt?$AAh?$AA?$AA@ 0000000180038078     libucrt:lcidtoname_downlevel.obj
 0002:00006088       ??_C@_1M@CHBIHOJO@?$AAt?$AAn?$AA?9?$AAz?$AAa?$AA?$AA@ 0000000180038088     libucrt:lcidtoname_downlevel.obj
 0002:00006098       ??_C@_1M@GCCMIGPJ@?$AAt?$AAr?$AA?9?$AAt?$AAr?$AA?$AA@ 0000000180038098     libucrt:lcidtoname_downlevel.obj
 0002:000060a8       ??_C@_1M@CELMCNBK@?$AAt?$AAt?$AA?9?$AAr?$AAu?$AA?$AA@ 00000001800380a8     libucrt:lcidtoname_downlevel.obj
 0002:000060b8       ??_C@_1M@KLMCELGA@?$AAu?$AAk?$AA?9?$AAu?$AAa?$AA?$AA@ 00000001800380b8     libucrt:lcidtoname_downlevel.obj
 0002:000060c8       ??_C@_1M@EPAJJAJF@?$AAu?$AAr?$AA?9?$AAp?$AAk?$AA?$AA@ 00000001800380c8     libucrt:lcidtoname_downlevel.obj
 0002:000060d8       ??_C@_1BG@GEGPMCDJ@?$AAu?$AAz?$AA?9?$AAu?$AAz?$AA?9?$AAc?$AAy?$AAr?$AAl?$AA?$AA@ 00000001800380d8     libucrt:lcidtoname_downlevel.obj
 0002:000060f0       ??_C@_1BG@EGGKJILM@?$AAu?$AAz?$AA?9?$AAu?$AAz?$AA?9?$AAl?$AAa?$AAt?$AAn?$AA?$AA@ 00000001800380f0     libucrt:lcidtoname_downlevel.obj
 0002:00006108       ??_C@_1M@GFOCLFF@?$AAv?$AAi?$AA?9?$AAv?$AAn?$AA?$AA@ 0000000180038108     libucrt:lcidtoname_downlevel.obj
 0002:00006118       ??_C@_1M@CPAMEDFI@?$AAx?$AAh?$AA?9?$AAz?$AAa?$AA?$AA@ 0000000180038118     libucrt:lcidtoname_downlevel.obj
 0002:00006128       ??_C@_1O@EBKIFIGN@?$AAz?$AAh?$AA?9?$AAc?$AAh?$AAs?$AA?$AA@ 0000000180038128     libucrt:lcidtoname_downlevel.obj
 0002:00006138       ??_C@_1O@NMHPGANE@?$AAz?$AAh?$AA?9?$AAc?$AAh?$AAt?$AA?$AA@ 0000000180038138     libucrt:lcidtoname_downlevel.obj
 0002:00006148       ??_C@_1M@LPINJOMC@?$AAz?$AAh?$AA?9?$AAc?$AAn?$AA?$AA@ 0000000180038148     libucrt:lcidtoname_downlevel.obj
 0002:00006158       ??_C@_1M@OCJEJODD@?$AAz?$AAh?$AA?9?$AAh?$AAk?$AA?$AA@ 0000000180038158     libucrt:lcidtoname_downlevel.obj
 0002:00006168       ??_C@_1M@DNDLJINH@?$AAz?$AAh?$AA?9?$AAm?$AAo?$AA?$AA@ 0000000180038168     libucrt:lcidtoname_downlevel.obj
 0002:00006178       ??_C@_1M@MBFDNDND@?$AAz?$AAh?$AA?9?$AAs?$AAg?$AA?$AA@ 0000000180038178     libucrt:lcidtoname_downlevel.obj
 0002:00006188       ??_C@_1M@IMEPLEPE@?$AAz?$AAh?$AA?9?$AAt?$AAw?$AA?$AA@ 0000000180038188     libucrt:lcidtoname_downlevel.obj
 0002:00006198       ??_C@_1M@BBGHNHJP@?$AAz?$AAu?$AA?9?$AAz?$AAa?$AA?$AA@ 0000000180038198     libucrt:lcidtoname_downlevel.obj
 0002:000061b0       ?large_power_data@?1??multiply_by_power_of_ten@__crt_strtox@@YA_NAEAUbig_integer@2@I@Z@4QBIB 00000001800381b0     libucrt:cfout.obj
 0002:00006ac0       ?large_power_indices@?1??multiply_by_power_of_ten@__crt_strtox@@YA_NAEAUbig_integer@2@I@Z@4QBUunpack_index@?1??12@YA_N0I@Z@B 0000000180038ac0     libucrt:cfout.obj
 0002:00006b58       ?small_powers_of_ten@?6??multiply_by_power_of_ten@__crt_strtox@@YA_NAEAUbig_integer@2@I@Z@4QBIB 0000000180038b58     libucrt:cfout.obj
 0002:00006b7c       ??_C@_01GBGANLPD@0?$AA@    0000000180038b7c     libucrt:cfout.obj
 0002:00006b80       ??_C@_05DNEBIAHO@1?$CDINF?$AA@ 0000000180038b80     libucrt:cfout.obj
 0002:00006b88       ??_C@_06IMKFLFPG@1?$CDQNAN?$AA@ 0000000180038b88     libucrt:cfout.obj
 0002:00006b90       ??_C@_06PGGFOGJG@1?$CDSNAN?$AA@ 0000000180038b90     libucrt:cfout.obj
 0002:00006b98       ??_C@_05PHHOCPM@1?$CDIND?$AA@ 0000000180038b98     libucrt:cfout.obj
 0002:00006df0       ??_C@_1BA@BALFACEM@?$AAC?$AAO?$AAN?$AAO?$AAU?$AAT?$AA$?$AA?$AA@ 0000000180038df0     libucrt:initcon.obj
 0002:00006e00       __log10_256_lead           0000000180038e00     libucrt:log10_256_lead_tail_table.obj
 0002:00007610       __log10_256_tail           0000000180039610     libucrt:log10_256_lead_tail_table.obj
 0002:00007e20       __log_F_inv_qword          0000000180039e20     libucrt:log_f_inv_qword_table.obj
 0002:00008630       ??_C@_05HGHHAHAP@log10?$AA@ 000000018003a630     libucrt:log_special.obj
 0002:00008650       ??_C@_03BLEJJJBH@sin?$AA@  000000018003a650     libucrt:fpexcept.obj
 0002:00008654       ??_C@_03LALBNOCG@cos?$AA@  000000018003a654     libucrt:fpexcept.obj
 0002:00008658       ??_C@_1BK@DBDEIDLH@?$AAK?$AAE?$AAR?$AAN?$AAE?$AAL?$AA3?$AA2?$AA?4?$AAD?$AAL?$AAL?$AA?$AA@ 000000018003a658     DelayImp:delayhlp.obj
 0002:00008678       ??_C@_0BI@OMNLIJDB@AcquireSRWLockExclusive?$AA@ 000000018003a678     DelayImp:delayhlp.obj
 0002:00008690       ??_C@_0BI@HMIEPCNJ@ReleaseSRWLockExclusive?$AA@ 000000018003a690     DelayImp:delayhlp.obj
 0002:000086b0       _load_config_used          000000018003a6b0     LIBCMT:loadcfg.obj
 0002:00008748       ??_C@_0BG@JLCLBMDJ@?4?4?2src?2image?2init?4cpp?$AA@ 000000018003a748     init.obj
 0002:00008760       ??_C@_0L@MLPPNEHD@lwip_image?$AA@ 000000018003a760     init.obj
 0002:000170a0       ??_7ObjectWrap@node@@6B@   00000001800490a0     image.obj
 0002:000170b8       ??_7CImgException@cimg_library@@6B@ 00000001800490b8     image.obj
 0002:000170b8       ??_7CImgIOException@cimg_library@@6B@ 00000001800490b8     image.obj
 0002:000170b8       ??_7CImgInstanceException@cimg_library@@6B@ 00000001800490b8     image.obj
 0002:000170b8       ??_7CImgArgumentException@cimg_library@@6B@ 00000001800490b8     image.obj
 0002:000170d0       ??_7exception@stdext@@6B@  00000001800490d0     image.obj
 0002:000170e8       ??_7LwipImage@@6B@         00000001800490e8     image.obj
 0002:00017100       ??_C@_0BC@BDKFLDHL@unknown?5exception?$AA@ 0000000180049100     image.obj
 0002:00017112       ??_C@_00CNPNBAHC@?$AA@     0000000180049112     image.obj
 0002:00017120       ??_C@_1HM@OFPLEDJI@?$AAC?$AA?3?$AA?2?$AAU?$AAs?$AAe?$AAr?$AAs?$AA?2?$AAt?$AAg?$AAr?$AAa?$AA?2?$AA?4?$AAn?$AAo?$AAd?$AAe?$AA?9?$AAg?$AAy?$AAp?$AA?2?$AA5?$AA?4?$AA4?$AA?4?$AA0?$AA?2?$AAi?$AAn@ 0000000180049120     image.obj
 0002:000171a0       ??_C@_1DG@OKCGPKIB@?$AAp?$AAe?$AAr?$AAs?$AAi?$AAs?$AAt?$AAe?$AAn?$AAt?$AA?$CI?$AA?$CJ?$AA?4?$AAI?$AAs?$AAN?$AAe?$AAa?$AAr?$AAD?$AAe?$AAa?$AAt?$AAh?$AA?$CI?$AA?$CJ?$AA?$AA@ 00000001800491a0     image.obj
 0002:000171d8       ??_C@_1CO@EGNPJLKI@?$AAp?$AAe?$AAr?$AAs?$AAi?$AAs?$AAt?$AAe?$AAn?$AAt?$AA?$CI?$AA?$CJ?$AA?4?$AAI?$AAs?$AAE?$AAm?$AAp?$AAt?$AAy?$AA?$CI?$AA?$CJ?$AA?$AA@ 00000001800491d8     image.obj
 0002:00017210       ??_C@_1EC@NOLNIHNJ@?$AAh?$AAa?$AAn?$AAd?$AAl?$AAe?$AA?9?$AA?$DO?$AAI?$AAn?$AAt?$AAe?$AAr?$AAn?$AAa?$AAl?$AAF?$AAi?$AAe?$AAl?$AAd?$AAC?$AAo?$AAu?$AAn?$AAt?$AA?$CI?$AA?$CJ?$AA?5?$AA?$DO?$AA?5?$AA0@ 0000000180049210     image.obj
 0002:00017258       ??_C@_1DA@FBGAEOIO@?$AA?$CB?$AAp?$AAe?$AAr?$AAs?$AAi?$AAs?$AAt?$AAe?$AAn?$AAt?$AA?$CI?$AA?$CJ?$AA?4?$AAI?$AAs?$AAE?$AAm?$AAp?$AAt?$AAy?$AA?$CI?$AA?$CJ?$AA?$AA@ 0000000180049258     image.obj
 0002:00017288       ??_C@_1CO@JCKLEFMA@?$AA?$CB?$AAp?$AAe?$AAr?$AAs?$AAi?$AAs?$AAt?$AAe?$AAn?$AAt?$AA?$CI?$AA?$CJ?$AA?4?$AAI?$AAs?$AAW?$AAe?$AAa?$AAk?$AA?$CI?$AA?$CJ?$AA?$AA@ 0000000180049288     image.obj
 0002:000172b8       ??_C@_1BE@GMLLOIPJ@?$AAr?$AAe?$AAf?$AAs?$AA_?$AA?5?$AA?$DO?$AA?5?$AA0?$AA?$AA@ 00000001800492b8     image.obj
 0002:000172d0       ??_C@_1CC@GBFLAAPF@?$AAw?$AAr?$AAa?$AAp?$AA?9?$AA?$DO?$AAr?$AAe?$AAf?$AAs?$AA_?$AA?5?$AA?$DN?$AA?$DN?$AA?5?$AA0?$AA?$AA@ 00000001800492d0     image.obj
 0002:000172f8       ??_C@_1DI@ELDBKNAK@?$AAw?$AAr?$AAa?$AAp?$AA?9?$AA?$DO?$AAh?$AAa?$AAn?$AAd?$AAl?$AAe?$AA_?$AA?4?$AAI?$AAs?$AAN?$AAe?$AAa?$AAr?$AAD?$AAe?$AAa?$AAt?$AAh?$AA?$CI?$AA?$CJ?$AA?$AA@ 00000001800492f8     image.obj
 0002:00017330       ??_C@_1IM@GACIBGHJ@?$AAd?$AAa?$AAt?$AAa?$AA?4?$AAG?$AAe?$AAt?$AAV?$AAa?$AAl?$AAu?$AAe?$AA?$CI?$AA?$CJ?$AA?5?$AA?$DN?$AA?$DN?$AA?5?$AAv?$AA8?$AA?3?$AA?3?$AAL?$AAo?$AAc?$AAa?$AAl?$AA?$DM?$AAv?$AA8?$AA?3@ 0000000180049330     image.obj
 0002:000173c0       ??_C@_1OA@JJKGELEG@?$AAC?$AA?3?$AA?2?$AAP?$AAr?$AAo?$AAg?$AAr?$AAa?$AAm?$AA?5?$AAF?$AAi?$AAl?$AAe?$AAs?$AA?5?$AA?$CI?$AAx?$AA8?$AA6?$AA?$CJ?$AA?2?$AAE?$AAa?$AAs?$AAy?$AAP?$AAH?$AAP?$AA?9?$AAD@ 00000001800493c0     image.obj
 0002:000174a0       ??_C@_1FM@LOELJOFK@?$AAs?$AAi?$AAz?$AAe?$AA?5?$AA?$DM?$AA?$DN?$AA?5?$AAi?$AAm?$AAp?$AA?3?$AA?3?$AAk?$AAM?$AAa?$AAx?$AAL?$AAe?$AAn?$AAg?$AAt?$AAh?$AA?5?$AA?$CG?$AA?$CG?$AA?5?$AA?$CC?$AAt?$AAo?$AAo?$AA?5@ 00000001800494a0     image.obj
 0002:00017500       ??_C@_07CIFAGBMG@unknown?$AA@ 0000000180049500     image.obj
 0002:00017508       ??_C@_0BL@EAGPGGJL@?6?$CFs?$FLCImg?$FN?5?$CK?$CK?$CK?5?$CFs?5?$CK?$CK?$CK?$CFs?5?$CFs?6?$AA@ 0000000180049508     image.obj
 0002:00017528       ??_C@_0BG@KMDADBLO@CImgArgumentException?$AA@ 0000000180049528     image.obj
 0002:00017540       ??_C@_0BG@IOCOPDAE@CImgInstanceException?$AA@ 0000000180049540     image.obj
 0002:00017558       ??_C@_0BA@EFAPIJMM@CImgIOException?$AA@ 0000000180049558     image.obj
 0002:00017568       ??_C@_02DKCKIIND@?$CFs?$AA@ 0000000180049568     image.obj
 0002:00017570       ??_C@_0O@PPAIJIHF@unsigned?5char?$AA@ 0000000180049570     image.obj
 0002:00017580       ??_C@_04ENMBGAPA@char?$AA@ 0000000180049580     image.obj
 0002:00017588       ??_C@_0BO@KMOFCCNE@?6?$CFs?$FLCImg?$FN?5?$CK?$CK?$CK?5Warning?5?$CK?$CK?$CK?$CFs?$CFs?$AA@ 0000000180049588     image.obj
 0002:000175a8       ??_C@_07LDLFNPGN@Windows?$AA@ 00000001800495a8     image.obj
 0002:000175b0       ??_C@_0CK@NEJGLCGN@cimg?3?3fclose?$CI?$CJ?3?5Specified?5file?5i@ 00000001800495b0     image.obj
 0002:000175e0       ??_C@_0DM@IBNMJMCA@cimg?3?3fclose?$CI?$CJ?3?5Error?5code?5?$CFd?5re@ 00000001800495e0     image.obj
 0002:0001761c       ??_C@_02GMLFBBN@wb?$AA@    000000018004961c     image.obj
 0002:00017620       ??_C@_08HHJILKAI@07?352?323?$AA@ 0000000180049620     image.obj
 0002:00017630       ??_C@_0M@EMMDLJAG@Feb?510?52016?$AA@ 0000000180049630     image.obj
 0002:00017640       ??_C@_0EO@PPEPCMLA@?6?5?$CFs?$CFsCImg?5Library?5?$CFu?4?$CFu?4?$CFu?$CFs?0?5c@ 0000000180049640     image.obj
 0002:00017690       ??_C@_0DK@CAOOHPPH@?5?5?$DO?5Operating?5System?3?5?5?5?5?5?5?5?$CFs?$CF?9@ 0000000180049690     image.obj
 0002:000176cc       ??_C@_06HPILLNHM@Little?$AA@ 00000001800496cc     image.obj
 0002:000176d8       ??_C@_0CL@MALEOICL@?5?5?$DO?5CPU?5endianness?3?5?5?5?5?5?5?5?5?5?$CFs?$CFs@ 00000001800496d8     image.obj
 0002:00017704       ??_C@_05PLLMOHAB@Quiet?$AA@ 0000000180049704     image.obj
 0002:00017710       ??_C@_0EB@IDKGNHGM@?5?5?$DO?5Verbosity?5mode?3?5?5?5?5?5?5?5?5?5?$CFs?$CF?9@ 0000000180049710     image.obj
 0002:00017758       ??_C@_09MLGAJAED@undefined?$AA@ 0000000180049758     image.obj
 0002:00017764       ??_C@_02JINPPBEP@No?$AA@   0000000180049764     image.obj
 0002:00017770       ??_C@_0EH@LAGENLPE@?5?5?$DO?5Stricts?5warnings?3?5?5?5?5?5?5?5?$CFs?$CF?9@ 0000000180049770     image.obj
 0002:000177c0       ??_C@_0EB@JAEOMHJH@?5?5?$DO?5Using?5VT100?5messages?3?5?5?5?$CFs?$CF?9@ 00000001800497c0     image.obj
 0002:00017808       ??_C@_0L@EKKILCGA@No?5display?$AA@ 0000000180049808     image.obj
 0002:00017818       ??_C@_0DP@CBALMADN@?5?5?$DO?5Display?5type?3?5?5?5?5?5?5?5?5?5?5?5?$CFs?$CF?9@ 0000000180049818     image.obj
 0002:00017860       ??_C@_0EC@DJMNKPJN@?5?5?$DO?5Using?5OpenMP?3?5?5?5?5?5?5?5?5?5?5?5?$CFs?$CF?9@ 0000000180049860     image.obj
 0002:000178a8       ??_C@_0DP@ELDHPPAH@?5?5?$DO?5Using?5PNG?5library?3?5?5?5?5?5?5?$CFs?$CF?9@ 00000001800498a8     image.obj
 0002:000178f0       ??_C@_0EA@BIPAABKJ@?5?5?$DO?5Using?5JPEG?5library?3?5?5?5?5?5?$CFs?$CF?9@ 00000001800498f0     image.obj
 0002:00017930       ??_C@_0EA@GNPBIGKO@?5?5?$DO?5Using?5TIFF?5library?3?5?5?5?5?5?$CFs?$CF?9@ 0000000180049930     image.obj
 0002:00017970       ??_C@_0EC@LHFPOJJ@?5?5?$DO?5Using?5Magick?$CL?$CL?5library?3?5?$CFs?$CF?9@ 0000000180049970     image.obj
 0002:000179c0       ??_C@_0EB@IMBGEGC@?5?5?$DO?5Using?5FFTW3?5library?3?5?5?5?5?$CFs?$CF?9@ 00000001800499c0     image.obj
 0002:00017a10       ??_C@_0EC@EDAJEHKG@?5?5?$DO?5Using?5LAPACK?5library?3?5?5?5?$CFs?$CF?9@ 0000000180049a10     image.obj
 0002:00017a58       ??_C@_09KDOGNJMJ@?$CC?$CF?41020s?$CC?$AA@ 0000000180049a58     image.obj
 0002:00017a68       ??_C@_0CH@JOMNENBJ@?5?5?$DO?5Path?5of?5ImageMagick?3?5?5?5?5?$CFs?$CF?9@ 0000000180049a68     image.obj
 0002:00017a90       ??_C@_0CH@GJHENCAJ@?5?5?$DO?5Path?5of?5GraphicsMagick?3?5?$CFs?$CF?9@ 0000000180049a90     image.obj
 0002:00017ab8       ??_C@_0CH@DIFINHOM@?5?5?$DO?5Path?5of?5?8medcon?8?3?5?5?5?5?5?5?5?$CFs?$CF?9@ 0000000180049ab8     image.obj
 0002:00017ae0       ??_C@_0CH@NBHEOCD@?5?5?$DO?5Temporary?5path?3?5?5?5?5?5?5?5?5?5?$CFs?$CF?9@ 0000000180049ae0     image.obj
 0002:00017b08       ??_C@_01EEMJAFIK@?6?$AA@   0000000180049b08     image.obj
 0002:00017b0c       ??_C@_06IHDMMOPO@?$CFs?4tmp?$AA@ 0000000180049b0c     image.obj
 0002:00017b14       ??_C@_03FICNPLNB@TMP?$AA@  0000000180049b14     image.obj
 0002:00017b18       ??_C@_04JKHNIKCB@TEMP?$AA@ 0000000180049b18     image.obj
 0002:00017b20       ??_C@_06GIIGBPHC@?$CFs?$CFc?$CFs?$AA@ 0000000180049b20     image.obj
 0002:00017b28       ??_C@_0O@MCLGOIG@C?3?2WINNT?2Temp?$AA@ 0000000180049b28     image.obj
 0002:00017b38       ??_C@_0BA@OBBKBLLO@C?3?2WINDOWS?2Temp?$AA@ 0000000180049b38     image.obj
 0002:00017b48       ??_C@_07OEMLJILH@C?3?2Temp?$AA@ 0000000180049b48     image.obj
 0002:00017b50       ??_C@_02FHMLMLAN@C?3?$AA@  0000000180049b50     image.obj
 0002:00017b58       ??_C@_0O@GJOGMEEG@D?3?2WINNT?2Temp?$AA@ 0000000180049b58     image.obj
 0002:00017b68       ??_C@_0BA@BMODODML@D?3?2WINDOWS?2Temp?$AA@ 0000000180049b68     image.obj
 0002:00017b78       ??_C@_07OOAOJBKO@D?3?2Temp?$AA@ 0000000180049b78     image.obj
 0002:00017b80       ??_C@_02FCIENNII@D?3?$AA@  0000000180049b80     image.obj
 0002:00017b90       ??_C@_0EM@MFNNFKJO@cimg?3?3temporary_path?$CI?$CJ?3?5Failed?5t@ 0000000180049b90     image.obj
 0002:00017be0       ??_C@_0N@DGDPHBCF@PROGRAMFILES?$AA@ 0000000180049be0     image.obj
 0002:00017bf0       ??_C@_0M@JGDMECFM@C?3?2PROGRA?$HO1?$AA@ 0000000180049bf0     image.obj
 0002:00017c00       ??_C@_0O@CINCGHCE@?4?2convert?4exe?$AA@ 0000000180049c00     image.obj
 0002:00017c10       ??_C@_01KDCPPGHE@r?$AA@    0000000180049c10     image.obj
 0002:00017c18       ??_C@_0BO@BEENKDDB@?$CFs?2IMAGEM?$HO1?4?$CF?42d?9?2convert?4exe?$AA@ 0000000180049c18     image.obj
 0002:00017c38       ??_C@_0BN@DEFKOHAO@?$CFs?2IMAGEM?$HO1?4?$CFd?9Q?2convert?4exe?$AA@ 0000000180049c38     image.obj
 0002:00017c58       ??_C@_0BL@MJEIJKFG@?$CFs?2IMAGEM?$HO1?4?$CFd?2convert?4exe?$AA@ 0000000180049c58     image.obj
 0002:00017c78       ??_C@_0CK@IDDGABKN@?$CFs?2IMAGEM?$HO1?4?$CF?42d?9?2VISUA?$HO1?2BIN?2co@ 0000000180049c78     image.obj
 0002:00017ca8       ??_C@_0CJ@MEJJNKIH@?$CFs?2IMAGEM?$HO1?4?$CFd?9Q?2VISUA?$HO1?2BIN?2con@ 0000000180049ca8     image.obj
 0002:00017cd8       ??_C@_0CH@IPLKJMJJ@?$CFs?2IMAGEM?$HO1?4?$CFd?2VISUA?$HO1?2BIN?2conve@ 0000000180049cd8     image.obj
 0002:00017d00       ??_C@_0BO@NPHMEFBN@C?3?2IMAGEM?$HO1?4?$CF?42d?9?2convert?4exe?$AA@ 0000000180049d00     image.obj
 0002:00017d20       ??_C@_0BN@GEAPEHLO@C?3?2IMAGEM?$HO1?4?$CFd?9Q?2convert?4exe?$AA@ 0000000180049d20     image.obj
 0002:00017d40       ??_C@_0BL@BNLFNGCG@C?3?2IMAGEM?$HO1?4?$CFd?2convert?4exe?$AA@ 0000000180049d40     image.obj
 0002:00017d60       ??_C@_0CK@OMCOIKKD@C?3?2IMAGEM?$HO1?4?$CF?42d?9?2VISUA?$HO1?2BIN?2co@ 0000000180049d60     image.obj
 0002:00017d90       ??_C@_0CJ@GMGFDFFB@C?3?2IMAGEM?$HO1?4?$CFd?9Q?2VISUA?$HO1?2BIN?2con@ 0000000180049d90     image.obj
 0002:00017dc0       ??_C@_0CH@NLPLIBFJ@C?3?2IMAGEM?$HO1?4?$CFd?2VISUA?$HO1?2BIN?2conve@ 0000000180049dc0     image.obj
 0002:00017de8       ??_C@_0BO@GKFOOMCF@D?3?2IMAGEM?$HO1?4?$CF?42d?9?2convert?4exe?$AA@ 0000000180049de8     image.obj
 0002:00017e08       ??_C@_0BN@JGGJEOAD@D?3?2IMAGEM?$HO1?4?$CFd?9Q?2convert?4exe?$AA@ 0000000180049e08     image.obj
 0002:00017e28       ??_C@_0BL@MPGAJAKA@D?3?2IMAGEM?$HO1?4?$CFd?2convert?4exe?$AA@ 0000000180049e28     image.obj
 0002:00017e48       ??_C@_0CK@DNGABIKL@D?3?2IMAGEM?$HO1?4?$CF?42d?9?2VISUA?$HO1?2BIN?2co@ 0000000180049e48     image.obj
 0002:00017e78       ??_C@_0CJ@JJJAMMPF@D?3?2IMAGEM?$HO1?4?$CFd?9Q?2VISUA?$HO1?2BIN?2con@ 0000000180049e78     image.obj
 0002:00017ea8       ??_C@_0CH@OJDFLFEH@D?3?2IMAGEM?$HO1?4?$CFd?2VISUA?$HO1?2BIN?2conve@ 0000000180049ea8     image.obj
 0002:00017ed0       ??_C@_0M@BHHDHLFO@convert?4exe?$AA@ 0000000180049ed0     image.obj
 0002:00017ee0       ??_C@_08JLFGAKFI@?4?2gm?4exe?$AA@ 0000000180049ee0     image.obj
 0002:00017ef0       ??_C@_0BJ@KIJEJDFC@?$CFs?2GRAPHI?$HO1?4?$CF?42d?9?2gm?4exe?$AA@ 0000000180049ef0     image.obj
 0002:00017f10       ??_C@_0BI@JLKBGOLD@?$CFs?2GRAPHI?$HO1?4?$CFd?9Q?2gm?4exe?$AA@ 0000000180049f10     image.obj
 0002:00017f28       ??_C@_0BG@NEOPBCGI@?$CFs?2GRAPHI?$HO1?4?$CFd?2gm?4exe?$AA@ 0000000180049f28     image.obj
 0002:00017f40       ??_C@_0CF@HGNIKPKC@?$CFs?2GRAPHI?$HO1?4?$CF?42d?9?2VISUA?$HO1?2BIN?2gm@ 0000000180049f40     image.obj
 0002:00017f68       ??_C@_0CE@HONJHPCF@?$CFs?2GRAPHI?$HO1?4?$CFd?9Q?2VISUA?$HO1?2BIN?2gm?4@ 0000000180049f68     image.obj
 0002:00017f90       ??_C@_0CC@CGJHNFDG@?$CFs?2GRAPHI?$HO1?4?$CFd?2VISUA?$HO1?2BIN?2gm?4ex@ 0000000180049f90     image.obj
 0002:00017fb8       ??_C@_0BJ@LNLIIJPN@C?3?2GRAPHI?$HO1?4?$CF?42d?9?2gm?4exe?$AA@ 0000000180049fb8     image.obj
 0002:00017fd8       ??_C@_0BI@GNJGIIOO@C?3?2GRAPHI?$HO1?4?$CFd?9Q?2gm?4exe?$AA@ 0000000180049fd8     image.obj
 0002:00017ff0       ??_C@_0BG@KKAGDOPF@C?3?2GRAPHI?$HO1?4?$CFd?2gm?4exe?$AA@ 0000000180049ff0     image.obj
 0002:00018008       ??_C@_0CF@IDNFPMOE@C?3?2GRAPHI?$HO1?4?$CF?42d?9?2VISUA?$HO1?2BIN?2gm@ 000000018004a008     image.obj
 0002:00018030       ??_C@_0CE@HMEOGOHC@C?3?2GRAPHI?$HO1?4?$CFd?9Q?2VISUA?$HO1?2BIN?2gm?4@ 000000018004a030     image.obj
 0002:00018058       ??_C@_0CC@KLPHHFCI@C?3?2GRAPHI?$HO1?4?$CFd?2VISUA?$HO1?2BIN?2gm?4ex@ 000000018004a058     image.obj
 0002:00018080       ??_C@_0BJ@HDOIHFFF@D?3?2GRAPHI?$HO1?4?$CF?42d?9?2gm?4exe?$AA@ 000000018004a080     image.obj
 0002:000180a0       ??_C@_0BI@FMIOLPJJ@D?3?2GRAPHI?$HO1?4?$CFd?9Q?2gm?4exe?$AA@ 000000018004a0a0     image.obj
 0002:000180b8       ??_C@_0BG@MPNPAALF@D?3?2GRAPHI?$HO1?4?$CFd?2gm?4exe?$AA@ 000000018004a0b8     image.obj
 0002:000180d0       ??_C@_0CF@LHOHJFDL@D?3?2GRAPHI?$HO1?4?$CF?42d?9?2VISUA?$HO1?2BIN?2gm@ 000000018004a0d0     image.obj
 0002:000180f8       ??_C@_0CE@CAPOENBL@D?3?2GRAPHI?$HO1?4?$CFd?9Q?2VISUA?$HO1?2BIN?2gm?4@ 000000018004a0f8     image.obj
 0002:00018120       ??_C@_0CC@FEHIMCKK@D?3?2GRAPHI?$HO1?4?$CFd?2VISUA?$HO1?2BIN?2gm?4ex@ 000000018004a120     image.obj
 0002:00018144       ??_C@_06KIIJHODA@gm?4exe?$AA@ 000000018004a144     image.obj
 0002:00018150       ??_C@_0N@MGGOIDG@?4?2medcon?4exe?$AA@ 000000018004a150     image.obj
 0002:00018160       ??_C@_0BK@NDJGANHB@?$CFs?2XMedCon?2bin?2medcon?4bat?$AA@ 000000018004a160     image.obj
 0002:00018180       ??_C@_0BK@OGPIOCH@?$CFs?2XMedCon?2bin?2medcon?4exe?$AA@ 000000018004a180     image.obj
 0002:000181a0       ??_C@_0BK@EIBDBMEE@C?3?2XMedCon?2bin?2medcon?4exe?$AA@ 000000018004a1a0     image.obj
 0002:000181c0       ??_C@_0L@BIHMEPJA@medcon?4exe?$AA@ 000000018004a1c0     image.obj
 0002:000181cc       ??_C@_01LKDEMHDF@s?$AA@    000000018004a1cc     image.obj
 0002:000181d0       ??_C@_0L@OBBAIDHB@?$CFlu?5byte?$CFs?$AA@ 000000018004a1d0     image.obj
 0002:000181e0       ??_C@_08MFGCGJIH@?$CF?41f?5Kio?$AA@ 000000018004a1e0     image.obj
 0002:000181f0       ??_C@_08OAAJDGFL@?$CF?41f?5Mio?$AA@ 000000018004a1f0     image.obj
 0002:00018200       ??_C@_08IPLENGDP@?$CF?41f?5Gio?$AA@ 000000018004a200     image.obj
 0002:00018210       ??_C@_09LAIAIPHJ@LwipImage?$AA@ 000000018004a210     image.obj
 0002:0001821c       ??_C@_05IGKADHGO@width?$AA@ 000000018004a21c     image.obj
 0002:00018224       ??_C@_06LNLHEAAG@height?$AA@ 000000018004a224     image.obj
 0002:00018230       ??_C@_08BAKLOFAD@getPixel?$AA@ 000000018004a230     image.obj
 0002:0001823c       ??_C@_06HOHPNJLC@buffer?$AA@ 000000018004a23c     image.obj
 0002:00018244       ??_C@_06PIONCPJI@resize?$AA@ 000000018004a244     image.obj
 0002:0001824c       ??_C@_06CEHMNFAL@rotate?$AA@ 000000018004a24c     image.obj
 0002:00018254       ??_C@_04OEOMNFLL@blur?$AA@ 000000018004a254     image.obj
 0002:0001825c       ??_C@_04EKMNJIID@crop?$AA@ 000000018004a25c     image.obj
 0002:00018264       ??_C@_06LLKPBPOH@mirror?$AA@ 000000018004a264     image.obj
 0002:0001826c       ??_C@_03PNAAIPML@pad?$AA@  000000018004a26c     image.obj
 0002:00018270       ??_C@_07JOLMDEEJ@sharpen?$AA@ 000000018004a270     image.obj
 0002:00018278       ??_C@_07GMFDBPHL@hslaAdj?$AA@ 000000018004a278     image.obj
 0002:00018280       ??_C@_07JGMNFOGM@opacify?$AA@ 000000018004a280     image.obj
 0002:00018288       ??_C@_05NDLFFNHM@paste?$AA@ 000000018004a288     image.obj
 0002:00018290       ??_C@_08OBIHPGHO@setPixel?$AA@ 000000018004a290     image.obj
 0002:0001829c       ??_C@_04BOPJJKFO@non?9?$AA@ 000000018004a29c     image.obj
 0002:000182b0       ??_C@_0GO@IJKBBBF@?$FLinstance?$CI?$CFu?0?$CFu?0?$CFu?0?$CFu?0?$CFp?0?$CFsshare@ 000000018004a2b0     image.obj
 0002:00018320       ??_C@_0IL@FBEMFEEL@?$FLinstance?$CI?$CFu?0?$CFu?0?$CFu?0?$CFu?0?$CFp?0?$CFsshare@ 000000018004a320     image.obj
 0002:000183b0       ??_C@_0HA@LNIOEEDA@?$FLinstance?$CI?$CFu?0?$CFu?0?$CFu?0?$CFu?0?$CFp?0?$CFsshare@ 000000018004a3b0     image.obj
 0002:00018420       ??_C@_1CE@IAEMMFJ@?$AA?$CB?$AAh?$AAa?$AAn?$AAd?$AAl?$AAe?$AA?4?$AAI?$AAs?$AAE?$AAm?$AAp?$AAt?$AAy?$AA?$CI?$AA?$CJ?$AA?$AA@ 000000018004a420     image.obj
 0002:00018448       ??_C@_0N@OFHMGPAL@unsigned?5int?$AA@ 000000018004a448     resize_worker.obj
 0002:00018458       ??_C@_0O@NMGGJGDE@unsigned?5long?$AA@ 000000018004a458     resize_worker.obj
 0002:00018468       ??_C@_05KNFBNCOH@float?$AA@ 000000018004a468     resize_worker.obj
 0002:00018470       ??_C@_0BH@HOEBJHNE@Unable?5to?5resize?5image?$AA@ 000000018004a470     resize_worker.obj
 0002:00018490       ??_C@_0HN@LNNNGPDL@?$FLinstance?$CI?$CFu?0?$CFu?0?$CFu?0?$CFu?0?$CFp?0?$CFsshare@ 000000018004a490     resize_worker.obj
 0002:00018510       ??_C@_0LO@CIICCCPG@?$FLinstance?$CI?$CFu?0?$CFu?0?$CFu?0?$CFu?0?$CFp?0?$CFsshare@ 000000018004a510     resize_worker.obj
 0002:000185d0       ??_C@_0EG@MMNHNNC@?$FLinstance?$CI?$CFu?0?$CFu?0?$CFu?0?$CFu?0?$CFp?0?$CFsshare@ 000000018004a5d0     resize_worker.obj
 0002:00018620       ??_C@_0GG@IFNNPGGA@?$FLinstance?$CI?$CFu?0?$CFu?0?$CFu?0?$CFu?0?$CFp?0?$CFsshare@ 000000018004a620     resize_worker.obj
 0002:00018688       ??_7AsyncWorker@Nan@@6B@   000000018004a688     resize_worker.obj
 0002:000186b8       ??_7ResizeWorker@@6B@      000000018004a6b8     resize_worker.obj
 0002:000186e8       ??_7RotateWorker@@6B@      000000018004a6e8     rotate_worker.obj
 0002:00018718       ??_C@_0O@NALGGDJF@Out?5of?5memory?$AA@ 000000018004a718     rotate_worker.obj
 0002:00018728       ??_C@_0BH@GGFIPBFA@Unable?5to?5rotate?5image?$AA@ 000000018004a728     rotate_worker.obj
 0002:00018740       ??_7BlurWorker@@6B@        000000018004a740     blur_worker.obj
 0002:00018770       ??_7CropWorker@@6B@        000000018004a770     crop_worker.obj
 0002:000187a0       ??_C@_0BF@EIGNCFLG@Unable?5to?5crop?5image?$AA@ 000000018004a7a0     crop_worker.obj
 0002:000187b8       ??_C@_0BA@JFNIOLAK@string?5too?5long?$AA@ 000000018004a7b8     mirror_worker.obj
 0002:000187c8       ??_C@_01FJMABOPO@x?$AA@    000000018004a7c8     mirror_worker.obj
 0002:000187cc       ??_C@_01EANLCPLP@y?$AA@    000000018004a7cc     mirror_worker.obj
 0002:000187d0       ??_C@_0BH@GGNFDDGJ@Unable?5to?5mirror?5image?$AA@ 000000018004a7d0     mirror_worker.obj
 0002:000187f0       ??_C@_0FF@BEMAOOFG@?$FLinstance?$CI?$CFu?0?$CFu?0?$CFu?0?$CFu?0?$CFp?0?$CFsshare@ 000000018004a7f0     mirror_worker.obj
 0002:00018848       ??_C@_0BI@CFPLBAOH@invalid?5string?5position?$AA@ 000000018004a848     mirror_worker.obj
 0002:00018860       ??_7MirrorWorker@@6B@      000000018004a860     mirror_worker.obj
 0002:00018890       ??_7PadWorker@@6B@         000000018004a890     pad_worker.obj
 0002:000188c0       ??_C@_0BI@KMLFCNEF@Unable?5to?5sharpen?5image?$AA@ 000000018004a8c0     sharpen_worker.obj
 0002:000188e0       ??_C@_0EF@BOBPDEID@?$FLinstance?$CI?$CFu?0?$CFu?0?$CFu?0?$CFu?0?$CFp?0?$CFsshare@ 000000018004a8e0     sharpen_worker.obj
 0002:00018928       ??_7SharpenWorker@@6B@     000000018004a928     sharpen_worker.obj
 0002:00018958       ??_7HSLAWorker@@6B@        000000018004a958     hsla_worker.obj
 0002:00018988       ??_7OpacifyWorker@@6B@     000000018004a988     opacify_worker.obj
 0002:000189b8       ??_7PasteWorker@@6B@       000000018004a9b8     paste_worker.obj
 0002:000189e8       ??_C@_06JIBAFMCE@pixbuf?$AA@ 000000018004a9e8     paste_worker.obj
 0002:000189f0       ??_C@_0BG@NOEMJBFE@Unable?5to?5paste?5image?$AA@ 000000018004a9f0     paste_worker.obj
 0002:00018a08       ??_7SetPixelWorker@@6B@    000000018004aa08     setpixel_worker.obj
 0002:00018a38       ??_C@_08HCOMDCCD@iojs?4exe?$AA@ 000000018004aa38     win_delay_load_hook.obj
 0002:00018a48       ??_C@_08JDDNMFDB@node?4exe?$AA@ 000000018004aa48     win_delay_load_hook.obj
 0002:00018a54       __real@30800000            000000018004aa54     image.obj
 0002:00018a58       __real@35800000            000000018004aa58     image.obj
 0002:00018a5c       __real@3a800000            000000018004aa5c     image.obj
 0002:00018a60       __real@3eaaaaab            000000018004aa60     hsla_worker.obj
 0002:00018a64       __real@3f000000            000000018004aa64     hsla_worker.obj
 0002:00018a68       __real@3f2aaaab            000000018004aa68     hsla_worker.obj
 0002:00018a6c       __real@3f800000            000000018004aa6c     hsla_worker.obj
 0002:00018a70       __real@3facb923a29c779a    000000018004aa70     sharpen_worker.obj
 0002:00018a78       __real@3fd06f694467381d    000000018004aa78     sharpen_worker.obj
 0002:00018a80       __real@3fe28240b780346e    000000018004aa80     sharpen_worker.obj
 0002:00018a88       __real@3fef5f6fd21ff2e5    000000018004aa88     sharpen_worker.obj
 0002:00018a90       __real@3ff0000000000000    000000018004aa90     sharpen_worker.obj
 0002:00018a98       __real@3ff2ab367a0f9097    000000018004aa98     sharpen_worker.obj
 0002:00018aa0       __real@40000000            000000018004aaa0     hsla_worker.obj
 0002:00018aa8       __real@4001b9abf3387161    000000018004aaa8     sharpen_worker.obj
 0002:00018ab0       __real@400412a305532618    000000018004aab0     sharpen_worker.obj
 0002:00018ab8       __real@4008000000000000    000000018004aab8     sharpen_worker.obj
 0002:00018ac0       __real@400921fb54442d18    000000018004aac0     rotate_worker.obj
 0002:00018ac8       __real@4009a13d028c43be    000000018004aac8     sharpen_worker.obj
 0002:00018ad0       __real@400b0f47304039ac    000000018004aad0     sharpen_worker.obj
 0002:00018ad8       __real@400c72b020c49ba6    000000018004aad8     sharpen_worker.obj
 0002:00018ae0       __real@400de7a7229d4fdd    000000018004aae0     sharpen_worker.obj
 0002:00018ae8       __real@401727e595e04062    000000018004aae8     sharpen_worker.obj
 0002:00018af0       __real@401b0f47304039ac    000000018004aaf0     sharpen_worker.obj
 0002:00018af8       __real@40400000            000000018004aaf8     hsla_worker.obj
 0002:00018afc       __real@40490fdb            000000018004aafc     resize_worker.obj
 0002:00018b00       __real@4056800000000000    000000018004ab00     rotate_worker.obj
 0002:00018b08       __real@4059000000000000    000000018004ab08     paste_worker.obj
 0002:00018b10       __real@4066800000000000    000000018004ab10     rotate_worker.obj
 0002:00018b18       __real@406fe00000000000    000000018004ab18     hsla_worker.obj
 0002:00018b20       __real@4076800000000000    000000018004ab20     hsla_worker.obj
 0002:00018b28       __real@40800000            000000018004ab28     rotate_worker.obj
 0002:00018b2c       __real@40a00000            000000018004ab2c     hsla_worker.obj
 0002:00018b30       __real@40c00000            000000018004ab30     hsla_worker.obj
 0002:00018b34       __real@42700000            000000018004ab34     hsla_worker.obj
 0002:00018b38       __real@42c80000            000000018004ab38     hsla_worker.obj
 0002:00018b3c       __real@437f0000            000000018004ab3c     hsla_worker.obj
 0002:00018b40       __real@43b40000            000000018004ab40     hsla_worker.obj
 0002:00018b48       __real@43e0000000000000    000000018004ab48     image.obj
 0002:00018b50       __real@c0000000            000000018004ab50     resize_worker.obj
 0002:00018b54       __real@c2c80000            000000018004ab54     sharpen_worker.obj
 0002:00018b60       __xmm@7fffffffffffffff7fffffffffffffff 000000018004ab60     sharpen_worker.obj
 0002:00018b70       __xmm@80000000000000008000000000000000 000000018004ab70     sharpen_worker.obj
 0002:00018b80       __xmm@80000000800000008000000080000000 000000018004ab80     sharpen_worker.obj
 0002:00019778       __real@bff0000000000000    000000018004b778     libucrt:floor.obj
 0002:0001a290       __Lcosarray                000000018004c290     libucrt:lsincos_array.obj
 0002:0001a2f0       __Lsinarray                000000018004c2f0     libucrt:lsincos_array.obj
 0002:0001a670       ??_C@_04LAGPAAHP@sinf?$AA@ 000000018004c670     libucrt:sincos_special.obj
 0002:0001a678       ??_C@_04OBBKPIAC@cosf?$AA@ 000000018004c678     libucrt:sincos_special.obj
 0002:0001a690       __Lcosfarray               000000018004c690     libucrt:lsincosf_array.obj
 0002:0001a6c0       __Lsinfarray               000000018004c6c0     libucrt:lsincosf_array.obj
 0002:0001a6e0       __two_to_jby64_table       000000018004c6e0     libucrt:two_to_jby64_table.obj
 0002:0001a8e0       ??_C@_04KBNCNMNN@expf?$AA@ 000000018004c8e0     libucrt:exp_special.obj
 0002:0001a8e8       ??_C@_04MBFDLNIM@powf?$AA@ 000000018004c8e8     libucrt:pow_special.obj
 0002:0001a8f0       __L_2_by_pi_bits           000000018004c8f0     libucrt:l2_by_pi_bits.obj
 0002:0001aa98       _tls_used                  000000018004ca98     LIBCMT:tlssup.obj
 0002:0001aac0       ??_R4exception@std@@6B@    000000018004cac0     libcpmt:xthrow.obj
 0002:0001aae8       ??_R3exception@std@@8      000000018004cae8     libcpmt:xthrow.obj
 0002:0001ab00       ??_R2exception@std@@8      000000018004cb00     libcpmt:xthrow.obj
 0002:0001ab10       ??_R1A@?0A@EA@exception@std@@8 000000018004cb10     libcpmt:xthrow.obj
 0002:0001ab38       ??_R4bad_alloc@std@@6B@    000000018004cb38     libcpmt:xthrow.obj
 0002:0001ab60       ??_R3bad_alloc@std@@8      000000018004cb60     libcpmt:xthrow.obj
 0002:0001ab78       ??_R2bad_alloc@std@@8      000000018004cb78     libcpmt:xthrow.obj
 0002:0001ab90       ??_R1A@?0A@EA@bad_alloc@std@@8 000000018004cb90     libcpmt:xthrow.obj
 0002:0001abb8       ??_R4logic_error@std@@6B@  000000018004cbb8     libcpmt:xthrow.obj
 0002:0001abe0       ??_R3logic_error@std@@8    000000018004cbe0     libcpmt:xthrow.obj
 0002:0001abf8       ??_R2logic_error@std@@8    000000018004cbf8     libcpmt:xthrow.obj
 0002:0001ac10       ??_R1A@?0A@EA@logic_error@std@@8 000000018004cc10     libcpmt:xthrow.obj
 0002:0001ac38       ??_R4length_error@std@@6B@ 000000018004cc38     libcpmt:xthrow.obj
 0002:0001ac60       ??_R3length_error@std@@8   000000018004cc60     libcpmt:xthrow.obj
 0002:0001ac78       ??_R2length_error@std@@8   000000018004cc78     libcpmt:xthrow.obj
 0002:0001ac98       ??_R1A@?0A@EA@length_error@std@@8 000000018004cc98     libcpmt:xthrow.obj
 0002:0001acc0       ??_R4out_of_range@std@@6B@ 000000018004ccc0     libcpmt:xthrow.obj
 0002:0001ace8       ??_R3out_of_range@std@@8   000000018004cce8     libcpmt:xthrow.obj
 0002:0001ad00       ??_R2out_of_range@std@@8   000000018004cd00     libcpmt:xthrow.obj
 0002:0001ad20       ??_R1A@?0A@EA@out_of_range@std@@8 000000018004cd20     libcpmt:xthrow.obj
 0002:0001ad48       ??_R4type_info@@6B@        000000018004cd48     LIBCMT:std_type_info_static.obj
 0002:0001ad70       ??_R3type_info@@8          000000018004cd70     LIBCMT:std_type_info_static.obj
 0002:0001ad88       ??_R2type_info@@8          000000018004cd88     LIBCMT:std_type_info_static.obj
 0002:0001ad98       ??_R1A@?0A@EA@type_info@@8 000000018004cd98     LIBCMT:std_type_info_static.obj
 0002:0001adc0       ??_R4bad_array_new_length@std@@6B@ 000000018004cdc0     LIBCMT:throw_bad_alloc.obj
 0002:0001ade8       ??_R3bad_array_new_length@std@@8 000000018004cde8     LIBCMT:throw_bad_alloc.obj
 0002:0001ae00       ??_R2bad_array_new_length@std@@8 000000018004ce00     LIBCMT:throw_bad_alloc.obj
 0002:0001ae20       ??_R1A@?0A@EA@bad_array_new_length@std@@8 000000018004ce20     LIBCMT:throw_bad_alloc.obj
 0002:0001ae48       ??_R4bad_exception@std@@6B@ 000000018004ce48     libvcruntime:frame.obj
 0002:0001ae70       ??_R3bad_exception@std@@8  000000018004ce70     libvcruntime:frame.obj
 0002:0001ae88       ??_R2bad_exception@std@@8  000000018004ce88     libvcruntime:frame.obj
 0002:0001aea0       ??_R1A@?0A@EA@bad_exception@std@@8 000000018004cea0     libvcruntime:frame.obj
 0002:0001aec8       ?_TraceLoggingMetadata@?1??_TlgWrite@__vcrt_trace_logging_provider@@YAJPEBU_TlgProvider_t@2@PEFBXPEBU_GUID@@2IPEAU_EVENT_DATA_DESCRIPTOR@@@Z@4U_TraceLoggingMetadata_t@2@B 000000018004cec8     libvcruntime:telemetry.obj
 0002:0001af7b       ?_TraceLoggingMetadataEnd@?1??_TlgWrite@__vcrt_trace_logging_provider@@YAJPEBU_TlgProvider_t@2@PEFBXPEBU_GUID@@2IPEAU_EVENT_DATA_DESCRIPTOR@@@Z@4EB 000000018004cf7b     libvcruntime:telemetry.obj
 0002:0001b478       __rtc_iaa                  000000018004d478     LIBCMT:_initsect_.obj
 0002:0001b480       __rtc_izz                  000000018004d480     LIBCMT:_initsect_.obj
 0002:0001b488       __rtc_taa                  000000018004d488     LIBCMT:_initsect_.obj
 0002:0001b490       __rtc_tzz                  000000018004d490     LIBCMT:_initsect_.obj
 0002:0001efe8       _TI2?AVbad_alloc@std@@     0000000180050fe8     libcpmt:xthrow.obj
 0002:0001f008       _CTA2?AVbad_alloc@std@@    0000000180051008     libcpmt:xthrow.obj
 0002:0001f020       _CT??_R0?AVbad_alloc@std@@@8??0bad_alloc@std@@QEAA@AEBV01@@Z24 0000000180051020     libcpmt:xthrow.obj
 0002:0001f048       _CT??_R0?AVexception@std@@@8??0exception@std@@QEAA@AEBV01@@Z24 0000000180051048     libcpmt:xthrow.obj
 0002:0001f070       _CT??_R0?AVlogic_error@std@@@8??0logic_error@std@@QEAA@AEBV01@@Z24 0000000180051070     libcpmt:xthrow.obj
 0002:0001f098       _TI3?AVlength_error@std@@  0000000180051098     libcpmt:xthrow.obj
 0002:0001f0b8       _CTA3?AVlength_error@std@@ 00000001800510b8     libcpmt:xthrow.obj
 0002:0001f0d8       _CT??_R0?AVlength_error@std@@@8??0length_error@std@@QEAA@AEBV01@@Z24 00000001800510d8     libcpmt:xthrow.obj
 0002:0001f100       _TI3?AVout_of_range@std@@  0000000180051100     libcpmt:xthrow.obj
 0002:0001f120       _CTA3?AVout_of_range@std@@ 0000000180051120     libcpmt:xthrow.obj
 0002:0001f140       _CT??_R0?AVout_of_range@std@@@8??0out_of_range@std@@QEAA@AEBV01@@Z24 0000000180051140     libcpmt:xthrow.obj
 0002:0001f168       _TI3?AVbad_array_new_length@std@@ 0000000180051168     LIBCMT:throw_bad_alloc.obj
 0002:0001f188       _CTA3?AVbad_array_new_length@std@@ 0000000180051188     LIBCMT:throw_bad_alloc.obj
 0002:0001f1a8       _CT??_R0?AVbad_array_new_length@std@@@8??0bad_array_new_length@std@@QEAA@AEBV01@@Z24 00000001800511a8     LIBCMT:throw_bad_alloc.obj
 0002:0001f1d0       _TI2?AVbad_exception@std@@ 00000001800511d0     libvcruntime:frame.obj
 0002:0001f1f0       _CTA2?AVbad_exception@std@@ 00000001800511f0     libvcruntime:frame.obj
 0002:0001f208       _CT??_R0?AVbad_exception@std@@@8??0bad_exception@std@@QEAA@AEBV01@@Z24 0000000180051208     libvcruntime:frame.obj
 0002:0001f230       _CT??_R0?AUCImgInstanceException@cimg_library@@@824 0000000180051230     image.obj
 0002:0001f258       _TI3?AUCImgInstanceException@cimg_library@@ 0000000180051258     image.obj
 0002:0001f278       _TI3?AUCImgIOException@cimg_library@@ 0000000180051278     image.obj
 0002:0001f298       _CTA3?AUCImgIOException@cimg_library@@ 0000000180051298     image.obj
 0002:0001f2b8       _CTA3?AUCImgArgumentException@cimg_library@@ 00000001800512b8     image.obj
 0002:0001f2d8       _CT??_R0?AUCImgArgumentException@cimg_library@@@824 00000001800512d8     image.obj
 0002:0001f300       _CT??_R0?AUCImgException@cimg_library@@@824 0000000180051300     image.obj
 0002:0001f328       _CT??_R0?AUCImgIOException@cimg_library@@@824 0000000180051328     image.obj
 0002:0001f350       _CTA3?AUCImgInstanceException@cimg_library@@ 0000000180051350     image.obj
 0002:0001f370       _CT??_R0?AVexception@stdext@@@816 0000000180051370     image.obj
 0002:0001f398       _TI3?AUCImgArgumentException@cimg_library@@ 0000000180051398     image.obj
 0002:0001f3b4       __DELAY_IMPORT_DESCRIPTOR_node_exe 00000001800513b4     node:node.exe
 0002:0001f3d4       __NULL_DELAY_IMPORT_DESCRIPTOR 00000001800513d4     node:node.exe
 0002:0001f5b0       \177node_NULL_THUNK_DATA_DLN 00000001800515b0     node:node.exe
 0002:000203f0       \177node_NULL_THUNK_DATA_DLB 00000001800523f0     node:node.exe
 0002:00020608       __IMPORT_DESCRIPTOR_KERNEL32 0000000180052608     kernel32:KERNEL32.dll
 0002:0002061c       __IMPORT_DESCRIPTOR_SHELL32 000000018005261c     shell32:SHELL32.dll
 0002:00020630       __IMPORT_DESCRIPTOR_ADVAPI32 0000000180052630     advapi32:ADVAPI32.dll
 0002:00020644       __NULL_IMPORT_DESCRIPTOR   0000000180052644     kernel32:KERNEL32.dll
 0003:00000000       _Init_global_epoch         0000000180053000     LIBCMT:thread_safe_statics.obj
 0003:00000004       __scrt_native_dllmain_reason 0000000180053004     LIBCMT:utility.obj
 0003:00000008       __security_cookie          0000000180053008     LIBCMT:gs_cookie.obj
 0003:00000010       __security_cookie_complement 0000000180053010     LIBCMT:gs_cookie.obj
 0003:00000018       __isa_available            0000000180053018     LIBCMT:_cpu_disp_.obj
 0003:0000001c       __isa_enabled              000000018005301c     LIBCMT:_cpu_disp_.obj
 0003:00000020       __memcpy_nt_iters          0000000180053020     LIBCMT:_cpu_disp_.obj
 0003:00000090       _iob                       0000000180053090     libucrt:_file.obj
 0003:000001a0       __abort_behavior           00000001800531a0     libucrt:abort.obj
 0003:000001b0       __badioinfo                00000001800531b0     libucrt:ioinit.obj
 0003:000001f0       __acrt_initial_locale_data 00000001800531f0     libucrt:nlsdata.obj
 0003:00000348       __acrt_initial_locale_pointers 0000000180053348     libucrt:nlsdata.obj
 0003:00000358       __acrt_wide_c_locale_string 0000000180053358     libucrt:nlsdata.obj
 0003:00000360       __acrt_initial_multibyte_data 0000000180053360     libucrt:mbctype.obj
 0003:00000588       __acrt_current_multibyte_data 0000000180053588     libucrt:mbctype.obj
 0003:00000690       _mbctype                   0000000180053690     libucrt:mbctype.obj
 0003:000007a0       _mbcasemap                 00000001800537a0     libucrt:mbctype.obj
 0003:000008a0       _pwctype                   00000001800538a0     libucrt:ctype.obj
 0003:000008b0       __globallocalestatus       00000001800538b0     libucrt:glstatus.obj
 0003:000008c0       __acrt_lconv_c             00000001800538c0     libucrt:localeconv.obj
 0003:00000958       __acrt_lconv_static_decimal 0000000180053958     libucrt:localeconv.obj
 0003:0000095c       __acrt_lconv_static_W_decimal 000000018005395c     libucrt:localeconv.obj
 0003:00000960       _lookuptrailbytes          0000000180053960     libucrt:read.obj
 0003:00000a60       __dcrt_lowio_console_output_handle 0000000180053a60     libucrt:initcon.obj
 0003:00000a80       _fltused                   0000000180053a80     LIBCMT:fltused.obj
 0003:00000ad0       __pfnDliNotifyHook2        0000000180053ad0     win_delay_load_hook.obj
 0003:00000ae0       ??_R0?AVbad_alloc@std@@@8  0000000180053ae0     libcpmt:xthrow.obj
 0003:00000b08       ??_R0?AVexception@std@@@8  0000000180053b08     libcpmt:xthrow.obj
 0003:00000b30       ??_R0?AVlogic_error@std@@@8 0000000180053b30     libcpmt:xthrow.obj
 0003:00000b58       ??_R0?AVlength_error@std@@@8 0000000180053b58     libcpmt:xthrow.obj
 0003:00000b80       ??_R0?AVout_of_range@std@@@8 0000000180053b80     libcpmt:xthrow.obj
 0003:00000ba8       ??_R0?AVtype_info@@@8      0000000180053ba8     LIBCMT:std_type_info_static.obj
 0003:00000bc8       ??_R0?AVbad_array_new_length@std@@@8 0000000180053bc8     LIBCMT:throw_bad_alloc.obj
 0003:00000bf8       ??_R0?AVbad_exception@std@@@8 0000000180053bf8     libvcruntime:frame.obj
 0003:00000c20       ??_R0?AVexception@stdext@@@8 0000000180053c20     image.obj
 0003:00000c48       ??_R0?AUCImgIOException@cimg_library@@@8 0000000180053c48     image.obj
 0003:00000c80       ??_R0?AUCImgArgumentException@cimg_library@@@8 0000000180053c80     image.obj
 0003:00000cc0       ??_R0?AUCImgException@cimg_library@@@8 0000000180053cc0     image.obj
 0003:00000cf8       ??_R0?AUCImgInstanceException@cimg_library@@@8 0000000180053cf8     image.obj
 0003:00000d38       __imp_node_module_register 0000000180053d38     node:node.exe
 0003:00000d40       __imp_uv_queue_work        0000000180053d40     node:node.exe
 0003:00000d48       __imp_?Value@External@v8@@QEBAPEAXXZ 0000000180053d48     node:node.exe
 0003:00000d50       __imp_?New@External@v8@@SA?AV?$Local@VExternal@v8@@@2@PEAVIsolate@2@PEAX@Z 0000000180053d50     node:node.exe
 0003:00000d58       __imp_?Value@Integer@v8@@QEBA_JXZ 0000000180053d58     node:node.exe
 0003:00000d60       __imp_?New@Integer@v8@@SA?AV?$Local@VInteger@v8@@@2@PEAVIsolate@2@H@Z 0000000180053d60     node:node.exe
 0003:00000d68       __imp_?New@Signature@v8@@SA?AV?$Local@VSignature@v8@@@2@PEAVIsolate@2@V?$Local@VFunctionTemplate@v8@@@2@@Z 0000000180053d68     node:node.exe
 0003:00000d70       __imp_?GetCurrentContext@Isolate@v8@@QEAA?AV?$Local@VContext@v8@@@2@XZ 0000000180053d70     node:node.exe
 0003:00000d78       __imp_?GetCurrent@Isolate@v8@@SAPEAV12@XZ 0000000180053d78     node:node.exe
 0003:00000d80       __imp_?CreateHandle@HandleScope@v8@@KAPEAPEAVObject@internal@2@PEAVIsolate@42@PEAV342@@Z 0000000180053d80     node:node.exe
 0003:00000d88       __imp_?CreateHandle@HandleScope@v8@@CAPEAPEAVObject@internal@2@PEAVHeapObject@42@PEAV342@@Z 0000000180053d88     node:node.exe
 0003:00000d90       __imp_??1HandleScope@v8@@QEAA@XZ 0000000180053d90     node:node.exe
 0003:00000d98       __imp_??0HandleScope@v8@@QEAA@PEAVIsolate@1@@Z 0000000180053d98     node:node.exe
 0003:00000da0       __imp_?Set@Template@v8@@QEAAXV?$Local@VName@v8@@@2@V?$Local@VData@v8@@@2@W4PropertyAttribute@2@@Z 0000000180053da0     node:node.exe
 0003:00000da8       __imp_?New@Array@v8@@SA?AV?$Local@VArray@v8@@@2@PEAVIsolate@2@H@Z 0000000180053da8     node:node.exe
 0003:00000db0       __imp_?SetClassName@FunctionTemplate@v8@@QEAAXV?$Local@VString@v8@@@2@@Z 0000000180053db0     node:node.exe
 0003:00000db8       __imp_?PrototypeTemplate@FunctionTemplate@v8@@QEAA?AV?$Local@VObjectTemplate@v8@@@2@XZ 0000000180053db8     node:node.exe
 0003:00000dc0       __imp_?InstanceTemplate@FunctionTemplate@v8@@QEAA?AV?$Local@VObjectTemplate@v8@@@2@XZ 0000000180053dc0     node:node.exe
 0003:00000dc8       __imp_?GetFunction@FunctionTemplate@v8@@QEAA?AV?$Local@VFunction@v8@@@2@XZ 0000000180053dc8     node:node.exe
 0003:00000dd0       __imp_?GetFunction@FunctionTemplate@v8@@QEAA?AV?$MaybeLocal@VFunction@v8@@@2@V?$Local@VContext@v8@@@2@@Z 0000000180053dd0     node:node.exe
 0003:00000dd8       __imp_?New@FunctionTemplate@v8@@SA?AV?$Local@VFunctionTemplate@v8@@@2@PEAVIsolate@2@P6AXAEBV?$FunctionCallbackInfo@VValue@v8@@@2@@ZV?$Local@VValue@v8@@@2@V?$Local@VSignature@v8@@@2@H@Z 0000000180053dd8     node:node.exe
 0003:00000de0       __imp_?ToLocalEmpty@V8@v8@@CAXXZ 0000000180053de0     node:node.exe
 0003:00000de8       __imp_?ClearWeak@V8@v8@@CAPEAXPEAPEAVObject@internal@2@@Z 0000000180053de8     node:node.exe
 0003:00000df0       __imp_?MakeWeak@V8@v8@@CAXPEAPEAVObject@internal@2@PEAXP6AXAEBV?$WeakCallbackData@VValue@v8@@X@2@@Z@Z 0000000180053df0     node:node.exe
 0003:00000df8       __imp_?DisposeGlobal@V8@v8@@CAXPEAPEAVObject@internal@2@@Z 0000000180053df8     node:node.exe
 0003:00000e00       __imp_?GlobalizeReference@V8@v8@@CAPEAPEAVObject@internal@2@PEAVIsolate@42@PEAPEAV342@@Z 0000000180053e00     node:node.exe
 0003:00000e08       __imp_?NumberValue@Value@v8@@QEBANXZ 0000000180053e08     node:node.exe
 0003:00000e10       __imp_?BooleanValue@Value@v8@@QEBA_NXZ 0000000180053e10     node:node.exe
 0003:00000e18       __imp_?ToInt32@Value@v8@@QEBA?AV?$MaybeLocal@VInt32@v8@@@2@V?$Local@VContext@v8@@@2@@Z 0000000180053e18     node:node.exe
 0003:00000e20       __imp_?Escape@EscapableHandleScope@v8@@AEAAPEAPEAVObject@internal@2@PEAPEAV342@@Z 0000000180053e20     node:node.exe
 0003:00000e28       __imp_??0EscapableHandleScope@v8@@QEAA@PEAVIsolate@1@@Z 0000000180053e28     node:node.exe
 0003:00000e30       __imp_?NewFromUtf8@String@v8@@SA?AV?$MaybeLocal@VString@v8@@@2@PEAVIsolate@2@PEBDW4NewStringType@2@H@Z 0000000180053e30     node:node.exe
 0003:00000e38       __imp_?New@Number@v8@@SA?AV?$Local@VNumber@v8@@@2@PEAVIsolate@2@N@Z 0000000180053e38     node:node.exe
 0003:00000e40       __imp_?Value@Number@v8@@QEBANXZ 0000000180053e40     node:node.exe
 0003:00000e48       __imp_?SlowGetAlignedPointerFromInternalField@Object@v8@@AEAAPEAXH@Z 0000000180053e48     node:node.exe
 0003:00000e50       __imp_?SlowGetInternalField@Object@v8@@AEAA?AV?$Local@VValue@v8@@@2@H@Z 0000000180053e50     node:node.exe
 0003:00000e58       __imp_?New@Object@v8@@SA?AV?$Local@VObject@v8@@@2@PEAVIsolate@2@@Z 0000000180053e58     node:node.exe
 0003:00000e60       __imp_?SetAlignedPointerInInternalField@Object@v8@@QEAAXHPEAX@Z 0000000180053e60     node:node.exe
 0003:00000e68       __imp_?SetInternalField@Object@v8@@QEAAXHV?$Local@VValue@v8@@@2@@Z 0000000180053e68     node:node.exe
 0003:00000e70       __imp_?InternalFieldCount@Object@v8@@QEAAHXZ 0000000180053e70     node:node.exe
 0003:00000e78       __imp_?Set@Object@v8@@QEAA_NV?$Local@VValue@v8@@@2@0@Z 0000000180053e78     node:node.exe
 0003:00000e80       __imp_?Set@Object@v8@@QEAA_NIV?$Local@VValue@v8@@@2@@Z 0000000180053e80     node:node.exe
 0003:00000e88       __imp_?Set@Object@v8@@QEAA?AV?$Maybe@_N@2@V?$Local@VContext@v8@@@2@IV?$Local@VValue@v8@@@2@@Z 0000000180053e88     node:node.exe
 0003:00000e90       __imp_?SetName@Function@v8@@QEAAXV?$Local@VString@v8@@@2@@Z 0000000180053e90     node:node.exe
 0003:00000e98       __imp_?SetInternalFieldCount@ObjectTemplate@v8@@QEAAXH@Z 0000000180053e98     node:node.exe
 0003:00000ea0       __imp_?NewInstance@ObjectTemplate@v8@@QEAA?AV?$MaybeLocal@VObject@v8@@@2@V?$Local@VContext@v8@@@2@@Z 0000000180053ea0     node:node.exe
 0003:00000ea8       __imp_?New@ObjectTemplate@v8@@SA?AV?$Local@VObjectTemplate@v8@@@2@PEAVIsolate@2@V?$Local@VFunctionTemplate@v8@@@2@@Z 0000000180053ea8     node:node.exe
 0003:00000eb0       __imp_?Data@Buffer@node@@YAPEADV?$Local@VObject@v8@@@v8@@@Z 0000000180053eb0     node:node.exe
 0003:00000eb8       __imp_?Copy@Buffer@node@@YA?AV?$MaybeLocal@VObject@v8@@@v8@@PEAVIsolate@4@PEBD_K@Z 0000000180053eb8     node:node.exe
 0003:00000ec0       __imp_uv_default_loop      0000000180053ec0     node:node.exe
 0003:00000ec8       __imp_??1EscapableHandleScope@v8@@QEAA@XZ 0000000180053ec8     node:node.exe
 0003:00000ed0       __imp_?Global@Context@v8@@QEAA?AV?$Local@VObject@v8@@@2@XZ 0000000180053ed0     node:node.exe
 0003:00000ed8       __imp_?Error@Exception@v8@@SA?AV?$Local@VValue@v8@@@2@V?$Local@VString@v8@@@2@@Z 0000000180053ed8     node:node.exe
 0003:00000ee0       __imp_?Get@Object@v8@@QEAA?AV?$Local@VValue@v8@@@2@I@Z 0000000180053ee0     node:node.exe
 0003:00000ee8       __imp_?MakeCallback@node@@YA?AV?$Local@VValue@v8@@@v8@@PEAVIsolate@3@V?$Local@VObject@v8@@@3@V?$Local@VFunction@v8@@@3@HPEAV23@@Z 0000000180053ee8     node:node.exe
 0003:00000ef0       \177node_NULL_THUNK_DATA_DLA 0000000180053ef0     node:node.exe
 0003:00000f00       __hmod__node_exe           0000000180053f00     node:node.exe
 0003:00000f50       __scrt_current_native_startup_state 0000000180053f50     LIBCMT:utility.obj
 0003:00000f58       __scrt_native_startup_lock 0000000180053f58     LIBCMT:utility.obj
 0003:00001510       __scrt_debugger_hook_flag  0000000180054510     LIBCMT:utility_desktop.obj
 0003:00001514       _tls_index                 0000000180054514     LIBCMT:tlssup.obj
 0003:00001518       __favor                    0000000180054518     LIBCMT:_cpu_disp_.obj
 0003:00001520       ?__type_info_root_node@@3U__type_info_node@@A 0000000180054520     LIBCMT:tncleanup.obj
 0003:00001530       ?_OptionsStorage@?1??__local_stdio_scanf_options@@9@4_KA 0000000180054530     LIBCMT:default_local_stdio_options.obj
 0003:00001538       ?g_OutOfMemoryExceptionCallback@@3P6APEAXXZEA 0000000180054538     libvcruntime:frame.obj
 0003:00001628       __pPurecall                0000000180054628     libvcruntime:purevirt_data.obj
 0003:00001660       ?pArgList@UnDecorator@@0PEAVReplicator@@EA 0000000180054660     libvcruntime:undname.obj
 0003:00001668       ?pZNameList@UnDecorator@@0PEAVReplicator@@EA 0000000180054668     libvcruntime:undname.obj
 0003:00001670       ?pTemplateArgList@UnDecorator@@0PEAVReplicator@@EA 0000000180054670     libvcruntime:undname.obj
 0003:00001678       ?gName@UnDecorator@@0PEBDEB 0000000180054678     libvcruntime:undname.obj
 0003:00001680       ?name@UnDecorator@@0PEBDEB 0000000180054680     libvcruntime:undname.obj
 0003:00001688       ?outputString@UnDecorator@@0PEADEA 0000000180054688     libvcruntime:undname.obj
 0003:00001690       ?maxStringLength@UnDecorator@@0HA 0000000180054690     libvcruntime:undname.obj
 0003:00001694       ?disableFlags@UnDecorator@@0KA 0000000180054694     libvcruntime:undname.obj
 0003:00001698       ?fExplicitTemplateParams@UnDecorator@@0_NA 0000000180054698     libvcruntime:undname.obj
 0003:00001699       ?fGetTemplateArgumentList@UnDecorator@@0_NA 0000000180054699     libvcruntime:undname.obj
 0003:000016a0       ?m_pGetParameter@UnDecorator@@0P6APEADJ@ZEA 00000001800546a0     libvcruntime:undname.obj
 0003:000016d0       _nstream                   00000001800546d0     libucrt:_file.obj
 0003:000016d8       __piob                     00000001800546d8     libucrt:_file.obj
 0003:000016e0       _cflush                    00000001800546e0     libucrt:_file.obj
 0003:00001710       _environ_table             0000000180054710     libucrt:environment_initialization.obj
 0003:00001718       _wenviron_table            0000000180054718     libucrt:environment_initialization.obj
 0003:00001720       __dcrt_initial_wide_environment 0000000180054720     libucrt:environment_initialization.obj
 0003:00001728       __dcrt_initial_narrow_environment 0000000180054728     libucrt:environment_initialization.obj
 0003:00001730       __acrt_atexit_table        0000000180054730     libucrt:onexit.obj
 0003:00001748       __acrt_at_quick_exit_table 0000000180054748     libucrt:onexit.obj
 0003:00001910       __pioinfo                  0000000180054910     libucrt:ioinit.obj
 0003:00001d10       _nhandle                   0000000180054d10     libucrt:ioinit.obj
 0003:00001d20       __acrt_stdout_buffer       0000000180054d20     libucrt:_sftbuf.obj
 0003:00001d28       __acrt_stderr_buffer       0000000180054d28     libucrt:_sftbuf.obj
 0003:00001d30       __acrt_locale_changed_data 0000000180054d30     libucrt:wsetlocale.obj
 0003:00001d38       __acrt_current_locale_data 0000000180054d38     libucrt:nlsdata.obj
 0003:00001f7c       __mbcodepage               0000000180054f7c     libucrt:mbctype.obj
 0003:00001f80       __ismbcodepage             0000000180054f80     libucrt:mbctype.obj
 0003:00001f88       __mbulinfo                 0000000180054f88     libucrt:mbctype.obj
 0003:00001f98       __mblocalename             0000000180054f98     libucrt:mbctype.obj
 0003:00001fa8       __acrt_heap                0000000180054fa8     libucrt:heap_handle.obj
 0003:00001fb0       __argv                     0000000180054fb0     libucrt:argv_data.obj
 0003:00001fb8       __wargv                    0000000180054fb8     libucrt:argv_data.obj
 0003:00001fc0       _acmdln                    0000000180054fc0     libucrt:argv_data.obj
 0003:00001fc8       _wcmdln                    0000000180054fc8     libucrt:argv_data.obj
 0003:00001fdc       _commode                   0000000180054fdc     libucrt:ncommode.obj
 0003:00001fe0       __acrt_lconv_static_null   0000000180054fe0     libucrt:localeconv.obj
 0003:00001fe4       __acrt_lconv_static_W_null 0000000180054fe4     libucrt:localeconv.obj
 0003:00001fe8       _umaskval                  0000000180054fe8     libucrt:umask.obj
 0003:00001fec       _fmode                     0000000180054fec     libucrt:txtmode.obj
 0003:00001ff0       __fma3_is_available        0000000180054ff0     libucrt:fma3_available.obj
 0003:00001ff4       __use_fma3_lib             0000000180054ff4     libucrt:fma3_available.obj
 0003:00001ff8       ?DloadKernel32@@3PEAUHINSTANCE__@@EA 0000000180054ff8     DelayImp:delayhlp.obj
 0003:00002000       ?DloadAcquireSRWLockExclusive@@3P6AXPEA_K@ZEA 0000000180055000     DelayImp:delayhlp.obj
 0003:00002008       ?DloadReleaseSRWLockExclusive@@3P6AXPEA_K@ZEA 0000000180055008     DelayImp:delayhlp.obj
 0003:00002010       ?DloadSrwLock@@3_KA        0000000180055010     DelayImp:delayhlp.obj
 0003:00002018       ?DloadSectionLockCount@@3KA 0000000180055018     DelayImp:delayhlp.obj
 0003:0000201c       ?DloadSectionOldProtection@@3KA 000000018005501c     DelayImp:delayhlp.obj
 0003:00002020       ?DloadSectionCommitPermanent@@3KA 0000000180055020     DelayImp:delayhlp.obj
 0003:00002028       __pfnDliFailureHook2       0000000180055028     DelayImp:delayhk1.obj
 0003:00002030       ?mode@?1??_exception_mode@cimg@cimg_library@@YAAEAII_N@Z@4IA 0000000180055030     image.obj
 0003:00002034       ?$TSS0@?1??Mutex_attr@cimg@cimg_library@@YAAEAUMutex_info@23@XZ@4HA 0000000180055034     image.obj
 0003:00002038       ?$TSS0@?1??output@cimg@cimg_library@@YAPEAU_iobuf@@PEAU4@@Z@4HA 0000000180055038     image.obj
 0003:00002040       ?s_path@?1??temporary_path@cimg@cimg_library@@YAPEBDQEBD_N@Z@4U?$CImg@D@3@A 0000000180055040     image.obj
 0003:00002060       ?val@?1??Mutex_attr@cimg@cimg_library@@YAAEAUMutex_info@23@XZ@4U423@A 0000000180055060     image.obj
 0003:00002160       ?$TSS0@?1??medcon_path@cimg@cimg_library@@YAPEBDQEBD_N@Z@4HA 0000000180055160     image.obj
 0003:00002164       ?$TSS0@?1??imagemagick_path@cimg@cimg_library@@YAPEBDQEBD_N@Z@4HA 0000000180055164     image.obj
 0003:00002168       ?_OptionsStorage@?1??__local_stdio_printf_options@@9@4_KA 0000000180055168     image.obj
 0003:00002170       ?s_path@?1??graphicsmagick_path@cimg@cimg_library@@YAPEBDQEBD_N@Z@4U?$CImg@D@3@A 0000000180055170     image.obj
 0003:00002190       ?randomid@?1??filenamerand@cimg@cimg_library@@YAPEBDXZ@4PADA 0000000180055190     image.obj
 0003:0000219c       ?$TSS0@?1??temporary_path@cimg@cimg_library@@YAPEBDQEBD_N@Z@4HA 000000018005519c     image.obj
 0003:000021a0       ?$TSS0@?1??graphicsmagick_path@cimg@cimg_library@@YAPEBDQEBD_N@Z@4HA 00000001800551a0     image.obj
 0003:000021a8       ?res@?1??strbuffersize@cimg@cimg_library@@YAPEBDK@Z@4U?$CImg@D@3@A 00000001800551a8     image.obj
 0003:000021c8       ?$TSS0@?1??strbuffersize@cimg@cimg_library@@YAPEBDK@Z@4HA 00000001800551c8     image.obj
 0003:000021d0       ?s_path@?1??imagemagick_path@cimg@cimg_library@@YAPEBDQEBD_N@Z@4U?$CImg@D@3@A 00000001800551d0     image.obj
 0003:000021f0       ?$TSS0@?1??programfiles_path@cimg@cimg_library@@YAPEBDQEBD_N@Z@4HA 00000001800551f0     image.obj
 0003:000021f8       ?s_path@?1??programfiles_path@cimg@cimg_library@@YAPEBDQEBD_N@Z@4U?$CImg@D@3@A 00000001800551f8     image.obj
 0003:00002218       ?s_path@?1??medcon_path@cimg@cimg_library@@YAPEBDQEBD_N@Z@4U?$CImg@D@3@A 0000000180055218     image.obj
 0003:00002238       ?res@?1??output@cimg@cimg_library@@YAPEAU_iobuf@@PEAU4@@Z@4PEAU4@EA 0000000180055238     image.obj
 0003:00002240       ?constructor@LwipImage@@0V?$Persistent@VFunctionTemplate@v8@@V?$NonCopyablePersistentTraits@VFunctionTemplate@v8@@@2@@Nan@@A 0000000180055240     image.obj
 0003:00002248       __dyn_tls_init_callback    0000000180055248     <common>
 0003:00002250       __scrt_ucrt_dll_is_in_use  0000000180055250     <common>
 0005:00000000       _tls_start                 0000000180059000     LIBCMT:tlssup.obj
 0005:00000004       _Init_thread_epoch         0000000180059004     LIBCMT:thread_safe_statics.obj
 0005:00000008       _tls_end                   0000000180059008     LIBCMT:tlssup.obj

 entry point at        0001:0001319c

 Static symbols

 0000:fffa4000       .debug$S                   0000000180000000     node:node.exe
 0000:fffa4000       .debug$S                   0000000180000000     node:node.exe
 0000:fffa4000       .debug$S                   0000000180000000     node:node.exe
 0000:fffa4000       .debug$S                   0000000180000000     node:node.exe
 0000:fffa4000       .debug$S                   0000000180000000     node:node.exe
 0000:fffa4000       .debug$S                   0000000180000000     node:node.exe
 0000:fffa4000       .debug$S                   0000000180000000     node:node.exe
 0000:fffa4000       .debug$S                   0000000180000000     node:node.exe
 0000:fffa4000       .debug$S                   0000000180000000     node:node.exe
 0000:fffa4000       .debug$S                   0000000180000000     node:node.exe
 0000:fffa4000       .debug$S                   0000000180000000     node:node.exe
 0000:fffa4000       .debug$S                   0000000180000000     node:node.exe
 0000:fffa4000       .debug$S                   0000000180000000     node:node.exe
 0000:fffa4000       .debug$S                   0000000180000000     node:node.exe
 0000:fffa4000       .debug$S                   0000000180000000     node:node.exe
 0000:fffa4000       .debug$S                   0000000180000000     node:node.exe
 0000:fffa4000       .debug$S                   0000000180000000     node:node.exe
 0000:fffa4000       .debug$S                   0000000180000000     node:node.exe
 0000:fffa4000       .debug$S                   0000000180000000     node:node.exe
 0000:fffa4000       .debug$S                   0000000180000000     node:node.exe
 0000:fffa4000       .debug$S                   0000000180000000     node:node.exe
 0000:fffa4000       .debug$S                   0000000180000000     node:node.exe
 0000:fffa4000       .debug$S                   0000000180000000     node:node.exe
 0000:fffa4000       .debug$S                   0000000180000000     node:node.exe
 0000:fffa4000       .debug$S                   0000000180000000     node:node.exe
 0000:fffa4000       .debug$S                   0000000180000000     node:node.exe
 0000:fffa4000       .debug$S                   0000000180000000     node:node.exe
 0000:fffa4000       .debug$S                   0000000180000000     node:node.exe
 0000:fffa4000       .debug$S                   0000000180000000     node:node.exe
 0000:fffa4000       .debug$S                   0000000180000000     node:node.exe
 0000:fffa4000       .debug$S                   0000000180000000     node:node.exe
 0000:fffa4000       .debug$S                   0000000180000000     node:node.exe
 0000:fffa4000       .debug$S                   0000000180000000     node:node.exe
 0000:fffa4000       .debug$S                   0000000180000000     node:node.exe
 0000:fffa4000       .debug$S                   0000000180000000     node:node.exe
 0000:fffa4000       .debug$S                   0000000180000000     node:node.exe
 0000:fffa4000       .debug$S                   0000000180000000     node:node.exe
 0000:fffa4000       .debug$S                   0000000180000000     node:node.exe
 0000:fffa4000       .debug$S                   0000000180000000     node:node.exe
 0000:fffa4000       .debug$S                   0000000180000000     node:node.exe
 0000:fffa4000       .debug$S                   0000000180000000     node:node.exe
 0000:fffa4000       .debug$S                   0000000180000000     node:node.exe
 0000:fffa4000       .debug$S                   0000000180000000     node:node.exe
 0000:fffa4000       .debug$S                   0000000180000000     node:node.exe
 0000:fffa4000       .debug$S                   0000000180000000     node:node.exe
 0000:fffa4000       .debug$S                   0000000180000000     node:node.exe
 0000:fffa4000       .debug$S                   0000000180000000     node:node.exe
 0000:fffa4000       .debug$S                   0000000180000000     node:node.exe
 0000:fffa4000       .debug$S                   0000000180000000     lwip_image.exp
 0000:fffa4000       .debug$S                   0000000180000000     kernel32:KERNEL32.dll
 0000:fffa4000       .debug$S                   0000000180000000     kernel32:KERNEL32.dll
 0000:fffa4000       .debug$S                   0000000180000000     kernel32:KERNEL32.dll
 0000:fffa4000       .debug$S                   0000000180000000     node:node.exe
 0000:fffa4000       .debug$S                   0000000180000000     kernel32:KERNEL32.dll
 0000:fffa4000       .debug$S                   0000000180000000     kernel32:KERNEL32.dll
 0000:fffa4000       .debug$S                   0000000180000000     kernel32:KERNEL32.dll
 0000:fffa4000       .debug$S                   0000000180000000     node:node.exe
 0000:fffa4000       .debug$S                   0000000180000000     node:node.exe
 0000:fffa4000       .debug$S                   0000000180000000     node:node.exe
 0000:fffa4000       .debug$S                   0000000180000000     node:node.exe
 0000:fffa4000       .debug$S                   0000000180000000     node:node.exe
 0000:fffa4000       .debug$S                   0000000180000000     node:node.exe
 0000:fffa4000       .debug$S                   0000000180000000     node:node.exe
 0000:fffa4000       .debug$S                   0000000180000000     node:node.exe
 0000:fffa4000       .debug$S                   0000000180000000     node:node.exe
 0000:fffa4000       .debug$S                   0000000180000000     node:node.exe
 0000:fffa4000       .debug$S                   0000000180000000     node:node.exe
 0000:fffa4000       .debug$S                   0000000180000000     node:node.exe
 0000:fffa4000       .debug$S                   0000000180000000     node:node.exe
 0000:fffa4000       .debug$S                   0000000180000000     shell32:SHELL32.dll
 0000:fffa4000       .debug$S                   0000000180000000     advapi32:ADVAPI32.dll
 0000:fffa4000       .debug$S                   0000000180000000     kernel32:KERNEL32.dll
 0000:fffa4000       .debug$S                   0000000180000000     kernel32:KERNEL32.dll
 0000:fffa4000       .debug$S                   0000000180000000     kernel32:KERNEL32.dll
 0000:fffa4000       .debug$S                   0000000180000000     kernel32:KERNEL32.dll
 0000:fffa4000       .debug$S                   0000000180000000     kernel32:KERNEL32.dll
 0000:fffa4000       .debug$S                   0000000180000000     kernel32:KERNEL32.dll
 0000:fffa4000       .debug$S                   0000000180000000     kernel32:KERNEL32.dll
 0000:fffa4000       .debug$S                   0000000180000000     kernel32:KERNEL32.dll
 0000:fffa4000       .debug$S                   0000000180000000     kernel32:KERNEL32.dll
 0000:fffa4000       .debug$S                   0000000180000000     kernel32:KERNEL32.dll
 0000:fffa4000       .debug$S                   0000000180000000     kernel32:KERNEL32.dll
 0000:fffa4000       .debug$S                   0000000180000000     kernel32:KERNEL32.dll
 0000:fffa4000       .debug$S                   0000000180000000     kernel32:KERNEL32.dll
 0000:fffa4000       .debug$S                   0000000180000000     kernel32:KERNEL32.dll
 0000:fffa4000       .debug$S                   0000000180000000     kernel32:KERNEL32.dll
 0000:fffa4000       .debug$S                   0000000180000000     kernel32:KERNEL32.dll
 0000:fffa4000       .debug$S                   0000000180000000     kernel32:KERNEL32.dll
 0000:fffa4000       .debug$S                   0000000180000000     kernel32:KERNEL32.dll
 0000:fffa4000       .debug$S                   0000000180000000     kernel32:KERNEL32.dll
 0000:fffa4000       .debug$S                   0000000180000000     kernel32:KERNEL32.dll
 0000:fffa4000       .debug$S                   0000000180000000     kernel32:KERNEL32.dll
 0000:fffa4000       .debug$S                   0000000180000000     kernel32:KERNEL32.dll
 0000:fffa4000       .debug$S                   0000000180000000     kernel32:KERNEL32.dll
 0000:fffa4000       .debug$S                   0000000180000000     kernel32:KERNEL32.dll
 0000:fffa4000       .debug$S                   0000000180000000     kernel32:KERNEL32.dll
 0000:fffa4000       .debug$S                   0000000180000000     kernel32:KERNEL32.dll
 0000:fffa4000       .debug$S                   0000000180000000     kernel32:KERNEL32.dll
 0000:fffa4000       .debug$S                   0000000180000000     kernel32:KERNEL32.dll
 0000:fffa4000       .debug$S                   0000000180000000     kernel32:KERNEL32.dll
 0000:fffa4000       .debug$S                   0000000180000000     kernel32:KERNEL32.dll
 0000:fffa4000       .debug$S                   0000000180000000     kernel32:KERNEL32.dll
 0000:fffa4000       .debug$S                   0000000180000000     kernel32:KERNEL32.dll
 0000:fffa4000       .debug$S                   0000000180000000     kernel32:KERNEL32.dll
 0000:fffa4000       .debug$S                   0000000180000000     kernel32:KERNEL32.dll
 0000:fffa4000       .debug$S                   0000000180000000     kernel32:KERNEL32.dll
 0000:fffa4000       .debug$S                   0000000180000000     kernel32:KERNEL32.dll
 0000:fffa4000       .debug$S                   0000000180000000     kernel32:KERNEL32.dll
 0000:fffa4000       .debug$S                   0000000180000000     kernel32:KERNEL32.dll
 0000:fffa4000       .debug$S                   0000000180000000     kernel32:KERNEL32.dll
 0000:fffa4000       .debug$S                   0000000180000000     kernel32:KERNEL32.dll
 0000:fffa4000       .debug$S                   0000000180000000     kernel32:KERNEL32.dll
 0000:fffa4000       .debug$S                   0000000180000000     kernel32:KERNEL32.dll
 0000:fffa4000       .debug$S                   0000000180000000     kernel32:KERNEL32.dll
 0000:fffa4000       .debug$S                   0000000180000000     kernel32:KERNEL32.dll
 0000:fffa4000       .debug$S                   0000000180000000     kernel32:KERNEL32.dll
 0000:fffa4000       .debug$S                   0000000180000000     kernel32:KERNEL32.dll
 0000:fffa4000       .debug$S                   0000000180000000     kernel32:KERNEL32.dll
 0000:fffa4000       .debug$S                   0000000180000000     kernel32:KERNEL32.dll
 0000:fffa4000       .debug$S                   0000000180000000     kernel32:KERNEL32.dll
 0000:fffa4000       .debug$S                   0000000180000000     kernel32:KERNEL32.dll
 0000:fffa4000       .debug$S                   0000000180000000     kernel32:KERNEL32.dll
 0000:fffa4000       .debug$S                   0000000180000000     kernel32:KERNEL32.dll
 0000:fffa4000       .debug$S                   0000000180000000     kernel32:KERNEL32.dll
 0000:fffa4000       .debug$S                   0000000180000000     kernel32:KERNEL32.dll
 0000:fffa4000       .debug$S                   0000000180000000     kernel32:KERNEL32.dll
 0000:fffa4000       .debug$S                   0000000180000000     kernel32:KERNEL32.dll
 0000:fffa4000       .debug$S                   0000000180000000     kernel32:KERNEL32.dll
 0000:fffa4000       .debug$S                   0000000180000000     kernel32:KERNEL32.dll
 0000:fffa4000       .debug$S                   0000000180000000     kernel32:KERNEL32.dll
 0000:fffa4000       .debug$S                   0000000180000000     kernel32:KERNEL32.dll
 0000:fffa4000       .debug$S                   0000000180000000     kernel32:KERNEL32.dll
 0000:fffa4000       .debug$S                   0000000180000000     kernel32:KERNEL32.dll
 0000:fffa4000       .debug$S                   0000000180000000     kernel32:KERNEL32.dll
 0000:fffa4000       .debug$S                   0000000180000000     kernel32:KERNEL32.dll
 0000:fffa4000       .debug$S                   0000000180000000     kernel32:KERNEL32.dll
 0000:fffa4000       .debug$S                   0000000180000000     kernel32:KERNEL32.dll
 0000:fffa4000       .debug$S                   0000000180000000     kernel32:KERNEL32.dll
 0000:fffa4000       .debug$S                   0000000180000000     kernel32:KERNEL32.dll
 0000:fffa4000       .debug$S                   0000000180000000     kernel32:KERNEL32.dll
 0000:fffa4000       .debug$S                   0000000180000000     kernel32:KERNEL32.dll
 0000:fffa4000       .debug$S                   0000000180000000     kernel32:KERNEL32.dll
 0000:fffa4000       .debug$S                   0000000180000000     kernel32:KERNEL32.dll
 0000:fffa4000       .debug$S                   0000000180000000     kernel32:KERNEL32.dll
 0000:fffa4000       .debug$S                   0000000180000000     kernel32:KERNEL32.dll
 0000:fffa4000       .debug$S                   0000000180000000     kernel32:KERNEL32.dll
 0000:fffa4000       .debug$S                   0000000180000000     kernel32:KERNEL32.dll
 0000:fffa4000       .debug$S                   0000000180000000     kernel32:KERNEL32.dll
 0000:fffa4000       .debug$S                   0000000180000000     kernel32:KERNEL32.dll
 0000:fffa4000       .debug$S                   0000000180000000     kernel32:KERNEL32.dll
 0000:fffa4000       .debug$S                   0000000180000000     kernel32:KERNEL32.dll
 0000:fffa4000       .debug$S                   0000000180000000     kernel32:KERNEL32.dll
 0000:fffa4000       .debug$S                   0000000180000000     kernel32:KERNEL32.dll
 0000:fffa4000       .debug$S                   0000000180000000     kernel32:KERNEL32.dll
 0000:fffa4000       .debug$S                   0000000180000000     kernel32:KERNEL32.dll
 0000:fffa4000       .debug$S                   0000000180000000     kernel32:KERNEL32.dll
 0000:fffa4000       .debug$S                   0000000180000000     kernel32:KERNEL32.dll
 0000:fffa4000       .debug$S                   0000000180000000     kernel32:KERNEL32.dll
 0000:fffa4000       .debug$S                   0000000180000000     kernel32:KERNEL32.dll
 0000:fffa4000       .debug$S                   0000000180000000     kernel32:KERNEL32.dll
 0000:fffa4000       .debug$S                   0000000180000000     kernel32:KERNEL32.dll
 0000:fffa4000       .debug$S                   0000000180000000     kernel32:KERNEL32.dll
 0000:fffa4000       .debug$S                   0000000180000000     kernel32:KERNEL32.dll
 0000:fffa4000       .debug$S                   0000000180000000     kernel32:KERNEL32.dll
 0000:fffa4000       .debug$S                   0000000180000000     node:node.exe
 0001:000001e0       ??__E?constructor@LwipImage@@0V?$Persistent@VFunctionTemplate@v8@@V?$NonCopyablePersistentTraits@VFunctionTemplate@v8@@@2@@Nan@@A@@YAXXZ 00000001800011e0 f   image.obj
 0001:00000210       _register_lwip_image       0000000180001210 f   init.obj
 0001:000006c0       ?FunctionCallbackWrapper@imp@Nan@@YAXAEBV?$FunctionCallbackInfo@VValue@v8@@@v8@@@Z 00000001800016c0 f   image.obj
 0001:0000ce54       $LN2521                    000000018000de54     resize_worker.obj
 0001:000120e0       load_exe_hook              00000001800130e0 f   win_delay_load_hook.obj
 0001:000126c0       $$000000                   00000001800136c0     LIBCMT:_amdsecgs_.obj
 0001:000126fc       ?__scrt_initialize_thread_safe_statics@@YAHXZ 00000001800136fc f   LIBCMT:thread_safe_statics.obj
 0001:0001281c       ?__scrt_uninitialize_thread_safe_statics@@YAXXZ 000000018001381c f   LIBCMT:thread_safe_statics.obj
 0001:00012e40       ?dllmain_crt_dispatch@@YAHQEAUHINSTANCE__@@KQEAX@Z 0000000180013e40 f   LIBCMT:dll_dllmain.obj
 0001:00012e90       ?dllmain_crt_process_attach@@YAHQEAUHINSTANCE__@@QEAX@Z 0000000180013e90 f   LIBCMT:dll_dllmain.obj
 0001:00012fbc       ?dllmain_crt_process_detach@@YAH_N@Z 0000000180013fbc f   LIBCMT:dll_dllmain.obj
 0001:00013040       ?dllmain_dispatch@@YAHQEAUHINSTANCE__@@KQEAX@Z 0000000180014040 f   LIBCMT:dll_dllmain.obj
 0001:00013148       ?dllmain_raw@@YAHQEAUHINSTANCE__@@KQEAX@Z 0000000180014148 f   LIBCMT:dll_dllmain.obj
 0001:000132e4       capture_previous_context   00000001800142e4 f   LIBCMT:gs_report.obj
 0001:000139cc       ?CatchIt@@YAXPEAUEHExceptionRecord@@PEA_KPEAU_CONTEXT@@PEAU_xDISPATCHER_CONTEXT@@PEBU_s_FuncInfo@@PEBU_s_HandlerType@@PEBU_s_CatchableType@@PEBU_s_TryBlockMapEntry@@H1EE@Z 00000001800149cc f   libvcruntime:frame.obj
 0001:00013a90       ?ExFilterRethrow@@YAHPEAU_EXCEPTION_POINTERS@@PEAUEHExceptionRecord@@PEAH@Z 0000000180014a90 f   libvcruntime:frame.obj
 0001:00013b18       ?FindHandler@@YAXPEAUEHExceptionRecord@@PEA_KPEAU_CONTEXT@@PEAU_xDISPATCHER_CONTEXT@@PEBU_s_FuncInfo@@EH1@Z 0000000180014b18 f   libvcruntime:frame.obj
 0001:00013fc8       ?FindHandlerForForeignException@@YAXPEAUEHExceptionRecord@@PEA_KPEAU_CONTEXT@@PEAU_xDISPATCHER_CONTEXT@@PEBU_s_FuncInfo@@HH1@Z 0000000180014fc8 f   libvcruntime:frame.obj
 0001:00014220       ?IsInExceptionSpec@@YAEPEAUEHExceptionRecord@@PEBU_s_ESTypeList@@@Z 0000000180015220 f   libvcruntime:frame.obj
 0001:00014d60       $$000000                   0000000180015d60     libvcruntime:memcpy.obj
 0001:00014e07       MoveSmall                  0000000180015e07     libvcruntime:memcpy.obj
 0001:00015564       ?try_get_function@@YAPEAXW4function_id@?A0xece66f1d@@QEBDQEBW4module_id@2@2@Z 0000000180016564 f   libvcruntime:winapi_downlevel.obj
 0001:00015c10       _TlgDefineProvider_annotation__Tlg_Microsoft_CRTProviderProv 0000000180016c10 f   libvcruntime:telemetry.obj
 0001:00015e80       $$000000                   0000000180016e80     libvcruntime:memset.obj
 0001:00015f6c       MsetTab                    0000000180016f6c     libvcruntime:memset.obj
 0001:00016330       $$000000                   0000000180017330     libvcruntime:handlers.obj
 0001:000169c0       $$000000                   00000001800179c0     libvcruntime:_jmpuwind_.obj
 0001:00016b1c       ??$common_fsopen@D@@YAPEAU_iobuf@@QEBD0H@Z 0000000180017b1c f   libucrt:fopen.obj
 0001:00016f64       ??$common_vsprintf@Vformat_validation_base@__crt_stdio_output@@D@@YAH_KQEAD0QEBDQEAU__crt_locale_pointers@@1@Z 0000000180017f64 f   libucrt:output.obj
 0001:000176d0       ??R<lambda_0a64b6a4deda75c01876f29c44fc5eb3>@@QEBAHXZ 00000001800186d0 f   libucrt:output.obj
 0001:000177c0       ??R<lambda_dd75445284c072d0bd3768540cc698fa>@@QEBAHXZ 00000001800187c0 f   libucrt:output.obj
 0001:0001b130       $$000000                   000000018001c130     libucrt:strncpy.obj
 0001:0001b2a4       ??$common_assert_to_message_box@_W@@YAXQEB_W0IQEAX@Z 000000018001c2a4 f   libucrt:assert.obj
 0001:0001b368       ??$common_assert_to_message_box_build_string@_W@@YAXQEA_W_KQEB_W2IQEAX@Z 000000018001c368 f   libucrt:assert.obj
 0001:0001bb3c       ??$common_assert_to_stderr@_W@@YAXQEB_W0I@Z 000000018001cb3c f   libucrt:assert.obj
 0001:0001bcac       ?get_assert_format@@YAPEB_W_W@Z 000000018001ccac f   libucrt:assert.obj
 0001:0001bdd0       ??$common_getenv@D@@YAPEADQEBD@Z 000000018001cdd0 f   libucrt:getenv.obj
 0001:0001be3c       ??$common_getenv_nolock@D@@YAPEADQEBD@Z 000000018001ce3c f   libucrt:getenv.obj
 0001:0001c4f8       ?atexit_exception_filter@@YAHK@Z 000000018001d4f8 f   libucrt:exit.obj
 0001:0001c504       ?common_exit@@YAXHW4_crt_exit_cleanup_mode@@W4_crt_exit_return_mode@@@Z 000000018001d504 f   libucrt:exit.obj
 0001:0001c670       ?exit_or_terminate_process@@YAXI@Z 000000018001d670 f   libucrt:exit.obj
 0001:0001c6bc       ?try_cor_exit_process@@YAXI@Z 000000018001d6bc f   libucrt:exit.obj
 0001:0001c754       ??$common_get_or_create_environment_nolock@D@@YAPEAPEADXZ 000000018001d754 f   libucrt:environment_initialization.obj
 0001:0001c79c       ??$common_initialize_environment_nolock@D@@YAHXZ 000000018001d79c f   libucrt:environment_initialization.obj
 0001:0001c808       ??$create_environment@D@@YAQEAPEADQEAD@Z 000000018001d808 f   libucrt:environment_initialization.obj
 0001:0001c904       ??$free_environment@_W@@YAXQEAPEA_W@Z 000000018001d904 f   libucrt:environment_initialization.obj
 0001:0001c904       ??$free_environment@D@@YAXQEAPEAD@Z 000000018001d904 f   libucrt:environment_initialization.obj
 0001:0001c948       ??$initialize_environment_by_cloning_nolock@D@@YAHXZ 000000018001d948 f   libucrt:environment_initialization.obj
 0001:0001ca1c       ??$uninitialize_environment_internal@D@@YAXAEAPEAPEAD@Z 000000018001da1c f   libucrt:environment_initialization.obj
 0001:0001ca38       ??$uninitialize_environment_internal@_W@@YAXAEAPEAPEA_W@Z 000000018001da38 f   libucrt:environment_initialization.obj
 0001:0001cc78       ??R<lambda_4e60a939b0d047cfe11ddc22648dfba9>@@QEBAHXZ 000000018001dc78 f   libucrt:onexit.obj
 0001:0001cf28       initialize_global_variables 000000018001df28 f   libucrt:initialization.obj
 0001:0001cf3c       initialize_c               000000018001df3c f   libucrt:initialization.obj
 0001:0001cf60       uninitialize_environment   000000018001df60 f   libucrt:initialization.obj
 0001:0001cf70       initialize_pointers        000000018001df70 f   libucrt:initialization.obj
 0001:0001cfc4       uninitialize_vcruntime     000000018001dfc4 f   libucrt:initialization.obj
 0001:0001cfcc       uninitialize_allocated_memory 000000018001dfcc f   libucrt:initialization.obj
 0001:0001de90       ?construct_ptd_array@@YAXQEAU__acrt_ptd@@@Z 000000018001ee90 f   libucrt:per_thread_data.obj
 0001:0001df60       ?destroy_fls@@YAXPEAX@Z    000000018001ef60 f   libucrt:per_thread_data.obj
 0001:0001df80       ?destroy_ptd_array@@YAXQEAU__acrt_ptd@@@Z 000000018001ef80 f   libucrt:per_thread_data.obj
 0001:0001e078       ?replace_current_thread_locale_nolock@@YAXQEAU__acrt_ptd@@QEAU__crt_locale_data@@@Z 000000018001f078 f   libucrt:per_thread_data.obj
 0001:0001e430       ?find_or_allocate_unused_stream_nolock@@YA?AV__crt_stdio_stream@@XZ 000000018001f430 f   libucrt:stream.obj
 0001:0001e854       ?try_get_function@@YAPEAXW4function_id@?A0x1dd686d3@@QEBDQEBW4module_id@2@2@Z 000000018001f854 f   libucrt:winapi_thunks.obj
 0001:0001f340       common_flush_all           0000000180020340 f   libucrt:fflush.obj
 0001:0001f4a8       ?initialize_inherited_file_handles_nolock@@YAXXZ 00000001800204a8 f   libucrt:ioinit.obj
 0001:0001f594       ?initialize_stdio_handles_nolock@@YAXXZ 0000000180020594 f   libucrt:ioinit.obj
 0001:0001fa9c       ?internal_isupper_l@@YA_NHQEAU__crt_locale_pointers@@@Z 0000000180020a9c f   libucrt:tolower_toupper.obj
 0001:000203d0       ?fp_format_a@@YAHQEBNPEAD_KQEAD2H_NIQEAU__crt_locale_pointers@@@Z 00000001800213d0 f   libucrt:cvt.obj
 0001:00020730       ?fp_format_e@@YAHQEBNQEAD_K12H_NIQEAU__crt_locale_pointers@@@Z 0000000180021730 f   libucrt:cvt.obj
 0001:00020800       ?fp_format_e_internal@@YAHQEAD_KH_NIQEAU_strflt@@2QEAU__crt_locale_pointers@@@Z 0000000180021800 f   libucrt:cvt.obj
 0001:000209dc       ?fp_format_f_internal@@YAHQEAD_KHQEAU_strflt@@_NQEAU__crt_locale_pointers@@@Z 00000001800219dc f   libucrt:cvt.obj
 0001:00020b24       ?fp_format_g@@YAHQEBNQEAD_K12H_NIQEAU__crt_locale_pointers@@@Z 0000000180021b24 f   libucrt:cvt.obj
 0001:00020c5c       ?fp_format_nan_or_infinity@@YAHW4__acrt_fp_class@@_NPEAD_K1@Z 0000000180021c5c f   libucrt:cvt.obj
 0001:000212f8       ??$common_xtox@K_W@@YAHKQEA_W_KI_N@Z 00000001800222f8 f   libucrt:xtoa.obj
 0001:000213a4       ??$common_xtox_s@K_W@@YAHKQEA_W_KI_N@Z 00000001800223a4 f   libucrt:xtoa.obj
 0001:00021668       ??$message_box_wait_thread@_W@@YAKQEAX@Z 0000000180022668 f   libucrt:crtmbox.obj
 0001:000217ec       ??R<lambda_b721fa326cdb32351d23dfa67958c160>@@QEBAHXZ 00000001800227ec f   libucrt:setvbuf.obj
 0001:00021eb8       ??R<lambda_ad1ced32f4ac17aa236e5ef05d6b3b7c>@@QEBAXXZ 0000000180022eb8 f   libucrt:mbctype.obj
 0001:000220d0       ?getSystemCP@@YAHH@Z       00000001800230d0 f   libucrt:mbctype.obj
 0001:00022150       ?setSBCS@@YAXPEAU__crt_multibyte_data@@@Z 0000000180023150 f   libucrt:mbctype.obj
 0001:000221e0       ?setSBUpLow@@YAXPEAU__crt_multibyte_data@@@Z 00000001800231e0 f   libucrt:mbctype.obj
 0001:000223c4       ?setmbcp_internal@@YAHH_N@Z 00000001800233c4 f   libucrt:mbctype.obj
 0001:00022a10       ??$common_set_variable_in_environment_nolock@D@@YAHQEADH@Z 0000000180023a10 f   libucrt:setenv.obj
 0001:00022d00       ??$copy_environment@D@@YAPEAPEADQEAPEAD@Z 0000000180023d00 f   libucrt:setenv.obj
 0001:00022ee4       initialize_environment     0000000180023ee4 f   libucrt:initialization.obj
 0001:00022ee4       uninitialize_global_state_isolation 0000000180023ee4 f   libucrt:initialization.obj
 0001:00022ee4       uninitialize_c             0000000180023ee4 f   libucrt:initialization.obj
 0001:00022ee4       report_memory_leaks        0000000180023ee4 f   libucrt:initialization.obj
 0001:00022ee4       initialize_global_state_isolation 0000000180023ee4 f   libucrt:initialization.obj
 0001:00023600       $$000000                   0000000180024600     libucrt:strncmp.obj
 0001:00023804       ??$common_sopen_dispatch@D@@YAHQEBDHHHQEAHH@Z 0000000180024804 f   libucrt:open.obj
 0001:000238e4       ?configure_text_mode@@YAHHUfile_options@?A0xc3dee958@@HAEAW4__crt_lowio_text_mode@@@Z 00000001800248e4 f   libucrt:open.obj
 0001:00023b78       ?decode_options@@YA?AUfile_options@?A0xc3dee958@@HHH@Z 0000000180024b78 f   libucrt:open.obj
 0001:00023d84       ?truncate_ctrl_z_if_present@@YAHH@Z 0000000180024d84 f   libucrt:open.obj
 0001:000242fc       ?GetTableIndexFromLocaleName@@YAHPEB_W@Z 00000001800252fc f   libucrt:lcidtoname_downlevel.obj
 0001:00024518       ?write_double_translated_ansi_nolock@@YA?AUwrite_result@?A0x4392dfaa@@HQEBDI@Z 0000000180025518 f   libucrt:write.obj
 0001:00024720       ?write_text_ansi_nolock@@YA?AUwrite_result@?A0x4392dfaa@@HQEBDI@Z 0000000180025720 f   libucrt:write.obj
 0001:00024828       ?write_text_utf16le_nolock@@YA?AUwrite_result@?A0x4392dfaa@@HQEBDI@Z 0000000180025828 f   libucrt:write.obj
 0001:00024944       ?write_text_utf8_nolock@@YA?AUwrite_result@?A0x4392dfaa@@HQEBDI@Z 0000000180025944 f   libucrt:write.obj
 0001:000253d4       ?__acrt_LCMapStringA_stat@@YAHPEAU__crt_locale_pointers@@PEB_WKPEBDHPEADHHH@Z 00000001800263d4 f   libucrt:lcmapstringa.obj
 0001:000270cc       memcpy_s                   00000001800280cc f   libucrt:cfout.obj
 0001:00027154       ??$write_buffer_nolock@D@@YA_NDV__crt_stdio_stream@@@Z 0000000180028154 f   libucrt:_flsbuf.obj
 0001:00027258       ??$write_buffer_nolock@_W@@YA_N_WV__crt_stdio_stream@@@Z 0000000180028258 f   libucrt:_flsbuf.obj
 0001:00027710       ?free_crt_array_internal@@YAXQEAPEBX_K@Z 0000000180028710 f   libucrt:inittime.obj
 0001:00027a24       ?InternalCompareStringA@@YAHPEAU__crt_locale_pointers@@PEB_WKPEBDH2HH@Z 0000000180028a24 f   libucrt:comparestringa.obj
 0001:00027e44       ?initialize_multibyte@@YAHXZ 0000000180028e44 f   libucrt:multibyte_initializer.obj
 0001:000281a8       ??$translate_text_mode_nolock@_W@@YAHHQEA_W_K@Z 00000001800291a8 f   libucrt:read.obj
 0001:000283d8       ?translate_ansi_or_utf8_nolock@@YAHHQEAD_KQEA_W1@Z 00000001800293d8 f   libucrt:read.obj
 0001:00028b40       ??$common_lseek@_J@@YA_JH_JH@Z 0000000180029b40 f   libucrt:lseek.obj
 0001:00028c30       ??$common_lseek_nolock@_J@@YA_JH_JH@Z 0000000180029c30 f   libucrt:lseek.obj
 0001:00028ed0       $$000000                   0000000180029ed0     libucrt:log10.obj
 0001:0002966c       common_control87           000000018002a66c f   libucrt:ieee.obj
 0001:00029904       _call_matherr              000000018002a904 f   libucrt:libm_error.obj
 0001:0002996c       _exception_enabled         000000018002a96c f   libucrt:libm_error.obj
 0001:00029d40       _log_special_common        000000018002ad40 f   libucrt:log_special.obj
 0001:00029de0       $$000000                   000000018002ade0     libucrt:fpsr.obj
 0001:0002aac0       $$000000                   000000018002bac0     LIBCMT:_chkstk_.obj
 0001:0002ac70       $$000000                   000000018002bc70     libvcruntime:memcmp.obj
 0001:0002ae70       $$000000                   000000018002be70     libucrt:cos.obj
 0001:0002b3f0       $$000000                   000000018002c3f0     libucrt:cosf.obj
 0001:0002b8f0       $$000000                   000000018002c8f0     libucrt:expf.obj
 0001:0002bc50       $$000000                   000000018002cc50     libucrt:powf.obj
 0001:0002cb20       $$000000                   000000018002db20     libucrt:sin.obj
 0001:0002d090       $$000000                   000000018002e090     libucrt:sinf.obj
 0001:0002d790       $$000000                   000000018002e790     libucrt:remainder_piby2_forasm.obj
 0001:0002dae0       $$000000                   000000018002eae0     libucrt:remainder_piby2_forfma3.obj
 0001:0002dd84       _sincos_special            000000018002ed84 f   libucrt:sincos_special.obj
 0001:0002de28       _sincosf_special           000000018002ee28 f   libucrt:sincos_special.obj
 0001:0002ded0       $$000000                   000000018002eed0     libucrt:remainder_piby2f_forasm.obj
 0001:0002e260       $$000000                   000000018002f260     libucrt:remainder_piby2f_forc.obj
 0001:0002e3f0       $$000000                   000000018002f3f0     LIBCMT:_guard_dispatch_.obj
 0001:0002e410       ?dtor$0@?0???1ObjectWrap@node@@UEAA@XZ@4HA 000000018002f410 f   image.obj
 0001:0002e410       ?dtor$0@?0???1?$Persistent@VObject@v8@@V?$NonCopyablePersistentTraits@VObject@v8@@@2@@Nan@@QEAA@XZ@4HA 000000018002f410 f   image.obj
 0001:0002e420       ?dtor$0@?0??WeakCallback@ObjectWrap@node@@CAXAEBV?$WeakCallbackData@VObject@v8@@VObjectWrap@node@@@v8@@@Z@4HA 000000018002f420 f   image.obj
 0001:0002e430       ?dtor$0@?0??New@?$Factory@VFunctionTemplate@v8@@@imp@Nan@@SA?AV?$Local@VFunctionTemplate@v8@@@v8@@P6AXAEBV?$FunctionCallbackInfo@VValue@v8@@@3@@ZV?$Local@VValue@v8@@@5@V?$Local@VSignature@v8@@@5@@Z@4HA 000000018002f430 f   image.obj
 0001:0002e440       ?dtor$0@?0???0Callback@Nan@@QEAA@AEBV?$Local@VFunction@v8@@@v8@@@Z@4HA 000000018002f440 f   image.obj
 0001:0002e44c       ?dtor$1@?0???0Callback@Nan@@QEAA@AEBV?$Local@VFunction@v8@@@v8@@@Z@4HA 000000018002f44c f   image.obj
 0001:0002e458       ?dtor$3@?0???0Callback@Nan@@QEAA@AEBV?$Local@VFunction@v8@@@v8@@@Z@4HA 000000018002f458 f   image.obj
 0001:0002e470       ?dtor$1@?0???0CImgArgumentException@cimg_library@@QEAA@AEBU01@@Z@4HA 000000018002f470 f   image.obj
 0001:0002e470       ?dtor$1@?0???0CImgIOException@cimg_library@@QEAA@AEBU01@@Z@4HA 000000018002f470 f   image.obj
 0001:0002e470       ?dtor$0@?0???0CImgException@cimg_library@@QEAA@AEBU01@@Z@4HA 000000018002f470 f   image.obj
 0001:0002e470       ?dtor$1@?0???0CImgInstanceException@cimg_library@@QEAA@AEBU01@@Z@4HA 000000018002f470 f   image.obj
 0001:0002e480       ?dtor$1@?0???0CImgInstanceException@cimg_library@@QEAA@QEBDZZ@4HA 000000018002f480 f   image.obj
 0001:0002e480       ?dtor$1@?0???0CImgArgumentException@cimg_library@@QEAA@QEBDZZ@4HA 000000018002f480 f   image.obj
 0001:0002e480       ?dtor$1@?0???0CImgIOException@cimg_library@@QEAA@QEBDZZ@4HA 000000018002f480 f   image.obj
 0001:0002e48c       ?dtor$0@?0???0CImgInstanceException@cimg_library@@QEAA@QEBDZZ@4HA 000000018002f48c f   image.obj
 0001:0002e48c       ?dtor$0@?0???0CImgIOException@cimg_library@@QEAA@QEBDZZ@4HA 000000018002f48c f   image.obj
 0001:0002e48c       ?dtor$0@?0???0CImgArgumentException@cimg_library@@QEAA@QEBDZZ@4HA 000000018002f48c f   image.obj
 0001:0002e4a0       ?dtor$0@?0??temporary_path@cimg@cimg_library@@YAPEBDQEBD_N@Z@4HA 000000018002f4a0 f   image.obj
 0001:0002e4ac       ?dtor$1@?0??temporary_path@cimg@cimg_library@@YAPEBDQEBD_N@Z@4HA 000000018002f4ac f   image.obj
 0001:0002e4c0       ?dtor$0@?0???__F?constructor@LwipImage@@0V?$Persistent@VFunctionTemplate@v8@@V?$NonCopyablePersistentTraits@VFunctionTemplate@v8@@@2@@Nan@@A@@YAXXZ@4HA 000000018002f4c0 f   image.obj
 0001:0002e4c5       ?dtor$1@?0???__F?constructor@LwipImage@@0V?$Persistent@VFunctionTemplate@v8@@V?$NonCopyablePersistentTraits@VFunctionTemplate@v8@@@2@@Nan@@A@@YAXXZ@4HA 000000018002f4c5 f   image.obj
 0001:0002e4d0       ?dtor$0@?0??Init@LwipImage@@SAXV?$Local@VObject@v8@@@v8@@@Z@4HA 000000018002f4d0 f   image.obj
 0001:0002e4dc       ?dtor$3@?0??Init@LwipImage@@SAXV?$Local@VObject@v8@@@v8@@@Z@4HA 000000018002f4dc f   image.obj
 0001:0002e4e8       ?dtor$6@?0??Init@LwipImage@@SAXV?$Local@VObject@v8@@@v8@@@Z@4HA 000000018002f4e8 f   image.obj
 0001:0002e4f4       ?dtor$9@?0??Init@LwipImage@@SAXV?$Local@VObject@v8@@@v8@@@Z@4HA 000000018002f4f4 f   image.obj
 0001:0002e500       ?dtor$12@?0??Init@LwipImage@@SAXV?$Local@VObject@v8@@@v8@@@Z@4HA 000000018002f500 f   image.obj
 0001:0002e50c       ?dtor$15@?0??Init@LwipImage@@SAXV?$Local@VObject@v8@@@v8@@@Z@4HA 000000018002f50c f   image.obj
 0001:0002e518       ?dtor$18@?0??Init@LwipImage@@SAXV?$Local@VObject@v8@@@v8@@@Z@4HA 000000018002f518 f   image.obj
 0001:0002e524       ?dtor$21@?0??Init@LwipImage@@SAXV?$Local@VObject@v8@@@v8@@@Z@4HA 000000018002f524 f   image.obj
 0001:0002e530       ?dtor$24@?0??Init@LwipImage@@SAXV?$Local@VObject@v8@@@v8@@@Z@4HA 000000018002f530 f   image.obj
 0001:0002e53c       ?dtor$27@?0??Init@LwipImage@@SAXV?$Local@VObject@v8@@@v8@@@Z@4HA 000000018002f53c f   image.obj
 0001:0002e548       ?dtor$30@?0??Init@LwipImage@@SAXV?$Local@VObject@v8@@@v8@@@Z@4HA 000000018002f548 f   image.obj
 0001:0002e554       ?dtor$33@?0??Init@LwipImage@@SAXV?$Local@VObject@v8@@@v8@@@Z@4HA 000000018002f554 f   image.obj
 0001:0002e560       ?dtor$36@?0??Init@LwipImage@@SAXV?$Local@VObject@v8@@@v8@@@Z@4HA 000000018002f560 f   image.obj
 0001:0002e56c       ?dtor$39@?0??Init@LwipImage@@SAXV?$Local@VObject@v8@@@v8@@@Z@4HA 000000018002f56c f   image.obj
 0001:0002e578       ?dtor$42@?0??Init@LwipImage@@SAXV?$Local@VObject@v8@@@v8@@@Z@4HA 000000018002f578 f   image.obj
 0001:0002e590       ?dtor$0@?0???0LwipImage@@QEAA@PEAE_K1@Z@4HA 000000018002f590 f   image.obj
 0001:0002e59c       ?dtor$1@?0???0LwipImage@@QEAA@PEAE_K1@Z@4HA 000000018002f59c f   image.obj
 0001:0002e5c0       ?dtor$1@?0??New@LwipImage@@SAXAEBV?$FunctionCallbackInfo@VValue@v8@@@Nan@@@Z@4HA 000000018002f5c0 f   image.obj
 0001:0002e5e0       ?dtor$1@?0??resize@LwipImage@@SAXAEBV?$FunctionCallbackInfo@VValue@v8@@@Nan@@@Z@4HA 000000018002f5e0 f   image.obj
 0001:0002e5fd       ?dtor$2@?0??resize@LwipImage@@SAXAEBV?$FunctionCallbackInfo@VValue@v8@@@Nan@@@Z@4HA 000000018002f5fd f   image.obj
 0001:0002e620       ?dtor$1@?0??rotate@LwipImage@@SAXAEBV?$FunctionCallbackInfo@VValue@v8@@@Nan@@@Z@4HA 000000018002f620 f   image.obj
 0001:0002e640       ?dtor$2@?0??rotate@LwipImage@@SAXAEBV?$FunctionCallbackInfo@VValue@v8@@@Nan@@@Z@4HA 000000018002f640 f   image.obj
 0001:0002e660       ?dtor$1@?0??blur@LwipImage@@SAXAEBV?$FunctionCallbackInfo@VValue@v8@@@Nan@@@Z@4HA 000000018002f660 f   image.obj
 0001:0002e660       ?dtor$1@?0??sharpen@LwipImage@@SAXAEBV?$FunctionCallbackInfo@VValue@v8@@@Nan@@@Z@4HA 000000018002f660 f   image.obj
 0001:0002e660       ?dtor$1@?0??mirror@LwipImage@@SAXAEBV?$FunctionCallbackInfo@VValue@v8@@@Nan@@@Z@4HA 000000018002f660 f   image.obj
 0001:0002e67d       ?dtor$2@?0??sharpen@LwipImage@@SAXAEBV?$FunctionCallbackInfo@VValue@v8@@@Nan@@@Z@4HA 000000018002f67d f   image.obj
 0001:0002e67d       ?dtor$2@?0??blur@LwipImage@@SAXAEBV?$FunctionCallbackInfo@VValue@v8@@@Nan@@@Z@4HA 000000018002f67d f   image.obj
 0001:0002e67d       ?dtor$2@?0??mirror@LwipImage@@SAXAEBV?$FunctionCallbackInfo@VValue@v8@@@Nan@@@Z@4HA 000000018002f67d f   image.obj
 0001:0002e6a0       ?dtor$1@?0??crop@LwipImage@@SAXAEBV?$FunctionCallbackInfo@VValue@v8@@@Nan@@@Z@4HA 000000018002f6a0 f   image.obj
 0001:0002e6c0       ?dtor$2@?0??crop@LwipImage@@SAXAEBV?$FunctionCallbackInfo@VValue@v8@@@Nan@@@Z@4HA 000000018002f6c0 f   image.obj
 0001:0002e6e0       ?dtor$1@?0??pad@LwipImage@@SAXAEBV?$FunctionCallbackInfo@VValue@v8@@@Nan@@@Z@4HA 000000018002f6e0 f   image.obj
 0001:0002e6fd       ?dtor$2@?0??pad@LwipImage@@SAXAEBV?$FunctionCallbackInfo@VValue@v8@@@Nan@@@Z@4HA 000000018002f6fd f   image.obj
 0001:0002e720       ?dtor$1@?0??hslaAdj@LwipImage@@SAXAEBV?$FunctionCallbackInfo@VValue@v8@@@Nan@@@Z@4HA 000000018002f720 f   image.obj
 0001:0002e740       ?dtor$2@?0??hslaAdj@LwipImage@@SAXAEBV?$FunctionCallbackInfo@VValue@v8@@@Nan@@@Z@4HA 000000018002f740 f   image.obj
 0001:0002e760       ?dtor$1@?0??opacify@LwipImage@@SAXAEBV?$FunctionCallbackInfo@VValue@v8@@@Nan@@@Z@4HA 000000018002f760 f   image.obj
 0001:0002e77d       ?dtor$2@?0??opacify@LwipImage@@SAXAEBV?$FunctionCallbackInfo@VValue@v8@@@Nan@@@Z@4HA 000000018002f77d f   image.obj
 0001:0002e7a0       ?dtor$1@?0??paste@LwipImage@@SAXAEBV?$FunctionCallbackInfo@VValue@v8@@@Nan@@@Z@4HA 000000018002f7a0 f   image.obj
 0001:0002e7c0       ?dtor$2@?0??paste@LwipImage@@SAXAEBV?$FunctionCallbackInfo@VValue@v8@@@Nan@@@Z@4HA 000000018002f7c0 f   image.obj
 0001:0002e7e0       ?dtor$1@?0??setPixel@LwipImage@@SAXAEBV?$FunctionCallbackInfo@VValue@v8@@@Nan@@@Z@4HA 000000018002f7e0 f   image.obj
 0001:0002e800       ?dtor$2@?0??setPixel@LwipImage@@SAXAEBV?$FunctionCallbackInfo@VValue@v8@@@Nan@@@Z@4HA 000000018002f800 f   image.obj
 0001:0002e820       ?catch$0@?0???0?$CImg@E@cimg_library@@QEAA@QEBEIIII_N@Z@4HA 000000018002f820 f   image.obj
 0001:0002e830       __catch$??0?$CImg@E@cimg_library@@QEAA@QEBEIIII_N@Z$0 000000018002f830 f   image.obj
 0001:0002e8f0       ?catch$0@?0??assign@?$CImg@D@cimg_library@@QEAAAEAU12@IIII@Z@4HA 000000018002f8f0 f   image.obj
 0001:0002e8ff       __catch$?assign@?$CImg@D@cimg_library@@QEAAAEAU12@IIII@Z$0 000000018002f8ff f   image.obj
 0001:0002e9c0       ?catch$0@?0???0?$CImg@D@cimg_library@@QEAA@IIII@Z@4HA 000000018002f9c0 f   image.obj
 0001:0002e9cf       __catch$??0?$CImg@D@cimg_library@@QEAA@IIII@Z$0 000000018002f9cf f   image.obj
 0001:0002ea90       ?catch$0@?0???0?$CImg@E@cimg_library@@QEAA@AEBU01@@Z@4HA 000000018002fa90 f   image.obj
 0001:0002eaa4       __catch$??0?$CImg@E@cimg_library@@QEAA@AEBU01@@Z$0 000000018002faa4 f   image.obj
 0001:0002eb70       ?catch$0@?0???0?$CImg@E@cimg_library@@QEAA@IIII@Z@4HA 000000018002fb70 f   image.obj
 0001:0002eb84       __catch$??0?$CImg@E@cimg_library@@QEAA@IIII@Z$0 000000018002fb84 f   image.obj
 0001:0002ec50       ?dtor$0@?0??Call_@Callback@Nan@@AEBA?AV?$Local@VValue@v8@@@v8@@PEAVIsolate@4@V?$Local@VObject@v8@@@4@HQEAV34@@Z@4HA 000000018002fc50 f   resize_worker.obj
 0001:0002ec50       ?dtor$0@?0??HandleErrorCallback@AsyncWorker@Nan@@MEAAXXZ@4HA 000000018002fc50 f   resize_worker.obj
 0001:0002ec60       ?dtor$0@?0???0AsyncWorker@Nan@@QEAA@PEAVCallback@1@@Z@4HA 000000018002fc60 f   resize_worker.obj
 0001:0002ec73       ?dtor$1@?0???0AsyncWorker@Nan@@QEAA@PEAVCallback@1@@Z@4HA 000000018002fc73 f   resize_worker.obj
 0001:0002ec80       ?dtor$0@?0???1AsyncWorker@Nan@@UEAA@XZ@4HA 000000018002fc80 f   resize_worker.obj
 0001:0002ec85       ?dtor$1@?0???1AsyncWorker@Nan@@UEAA@XZ@4HA 000000018002fc85 f   resize_worker.obj
 0001:0002ec8a       ?dtor$2@?0???1AsyncWorker@Nan@@UEAA@XZ@4HA 000000018002fc8a f   resize_worker.obj
 0001:0002ec8f       ?dtor$3@?0???1AsyncWorker@Nan@@UEAA@XZ@4HA 000000018002fc8f f   resize_worker.obj
 0001:0002ec94       ?dtor$5@?0???1AsyncWorker@Nan@@UEAA@XZ@4HA 000000018002fc94 f   resize_worker.obj
 0001:0002ec99       ?dtor$6@?0???1AsyncWorker@Nan@@UEAA@XZ@4HA 000000018002fc99 f   resize_worker.obj
 0001:0002eca0       ?dtor$0@?0??WorkComplete@AsyncWorker@Nan@@UEAAXXZ@4HA 000000018002fca0 f   resize_worker.obj
 0001:0002ecac       ?dtor$2@?0??WorkComplete@AsyncWorker@Nan@@UEAAXXZ@4HA 000000018002fcac f   resize_worker.obj
 0001:0002ecb1       ?dtor$3@?0??WorkComplete@AsyncWorker@Nan@@UEAAXXZ@4HA 000000018002fcb1 f   resize_worker.obj
 0001:0002ecb6       ?dtor$4@?0??WorkComplete@AsyncWorker@Nan@@UEAAXXZ@4HA 000000018002fcb6 f   resize_worker.obj
 0001:0002ecbb       ?dtor$5@?0??WorkComplete@AsyncWorker@Nan@@UEAAXXZ@4HA 000000018002fcbb f   resize_worker.obj
 0001:0002ecc0       ?catch$0@?0??Execute@ResizeWorker@@UEAAXXZ@4HA 000000018002fcc0 f   resize_worker.obj
 0001:0002eccd       __catch$?Execute@ResizeWorker@@UEAAXXZ$0 000000018002fccd f   resize_worker.obj
 0001:0002ecf9       ?dtor$0@?0??Execute@ResizeWorker@@UEAAXXZ@4HA 000000018002fcf9 f   resize_worker.obj
 0001:0002ed10       ?dtor$0@?0??resize@?$CImg@E@cimg_library@@QEAAAEAU12@HHHHHIMMMM@Z@4HA 000000018002fd10 f   resize_worker.obj
 0001:0002ed10       ?dtor$0@?0??crop@?$CImg@E@cimg_library@@QEAAAEAU12@HHHHHHHH_N@Z@4HA 000000018002fd10 f   crop_worker.obj
 0001:0002ed20       ?catch$0@?0???0?$CImg@K@cimg_library@@QEAA@IIII@Z@4HA 000000018002fd20 f   resize_worker.obj
 0001:0002ed2f       __catch$??0?$CImg@K@cimg_library@@QEAA@IIII@Z$0 000000018002fd2f f   resize_worker.obj
 0001:0002edf0       ?dtor$1@?0??get_resize@?$CImg@E@cimg_library@@QEBA?AU12@HHHHHIMMMM@Z@4HA 000000018002fdf0 f   resize_worker.obj
 0001:0002edfc       ?dtor$11@?0??get_resize@?$CImg@E@cimg_library@@QEBA?AU12@HHHHHIMMMM@Z@4HA 000000018002fdfc f   resize_worker.obj
 0001:0002ee08       ?dtor$12@?0??get_resize@?$CImg@E@cimg_library@@QEBA?AU12@HHHHHIMMMM@Z@4HA 000000018002fe08 f   resize_worker.obj
 0001:0002ee14       ?dtor$13@?0??get_resize@?$CImg@E@cimg_library@@QEBA?AU12@HHHHHIMMMM@Z@4HA 000000018002fe14 f   resize_worker.obj
 0001:0002ee20       ?dtor$15@?0??get_resize@?$CImg@E@cimg_library@@QEBA?AU12@HHHHHIMMMM@Z@4HA 000000018002fe20 f   resize_worker.obj
 0001:0002ee2c       ?dtor$16@?0??get_resize@?$CImg@E@cimg_library@@QEBA?AU12@HHHHHIMMMM@Z@4HA 000000018002fe2c f   resize_worker.obj
 0001:0002ee38       ?dtor$17@?0??get_resize@?$CImg@E@cimg_library@@QEBA?AU12@HHHHHIMMMM@Z@4HA 000000018002fe38 f   resize_worker.obj
 0001:0002ee44       ?dtor$18@?0??get_resize@?$CImg@E@cimg_library@@QEBA?AU12@HHHHHIMMMM@Z@4HA 000000018002fe44 f   resize_worker.obj
 0001:0002ee50       ?dtor$19@?0??get_resize@?$CImg@E@cimg_library@@QEBA?AU12@HHHHHIMMMM@Z@4HA 000000018002fe50 f   resize_worker.obj
 0001:0002ee5c       ?dtor$20@?0??get_resize@?$CImg@E@cimg_library@@QEBA?AU12@HHHHHIMMMM@Z@4HA 000000018002fe5c f   resize_worker.obj
 0001:0002ee68       ?dtor$21@?0??get_resize@?$CImg@E@cimg_library@@QEBA?AU12@HHHHHIMMMM@Z@4HA 000000018002fe68 f   resize_worker.obj
 0001:0002ee74       ?dtor$22@?0??get_resize@?$CImg@E@cimg_library@@QEBA?AU12@HHHHHIMMMM@Z@4HA 000000018002fe74 f   resize_worker.obj
 0001:0002ee80       ?dtor$23@?0??get_resize@?$CImg@E@cimg_library@@QEBA?AU12@HHHHHIMMMM@Z@4HA 000000018002fe80 f   resize_worker.obj
 0001:0002ee8c       ?dtor$24@?0??get_resize@?$CImg@E@cimg_library@@QEBA?AU12@HHHHHIMMMM@Z@4HA 000000018002fe8c f   resize_worker.obj
 0001:0002ee98       ?dtor$25@?0??get_resize@?$CImg@E@cimg_library@@QEBA?AU12@HHHHHIMMMM@Z@4HA 000000018002fe98 f   resize_worker.obj
 0001:0002eea4       ?dtor$26@?0??get_resize@?$CImg@E@cimg_library@@QEBA?AU12@HHHHHIMMMM@Z@4HA 000000018002fea4 f   resize_worker.obj
 0001:0002eeb0       ?dtor$27@?0??get_resize@?$CImg@E@cimg_library@@QEBA?AU12@HHHHHIMMMM@Z@4HA 000000018002feb0 f   resize_worker.obj
 0001:0002eebc       ?dtor$28@?0??get_resize@?$CImg@E@cimg_library@@QEBA?AU12@HHHHHIMMMM@Z@4HA 000000018002febc f   resize_worker.obj
 0001:0002eec8       ?dtor$29@?0??get_resize@?$CImg@E@cimg_library@@QEBA?AU12@HHHHHIMMMM@Z@4HA 000000018002fec8 f   resize_worker.obj
 0001:0002eed4       ?dtor$30@?0??get_resize@?$CImg@E@cimg_library@@QEBA?AU12@HHHHHIMMMM@Z@4HA 000000018002fed4 f   resize_worker.obj
 0001:0002eee0       ?dtor$31@?0??get_resize@?$CImg@E@cimg_library@@QEBA?AU12@HHHHHIMMMM@Z@4HA 000000018002fee0 f   resize_worker.obj
 0001:0002eeec       ?dtor$32@?0??get_resize@?$CImg@E@cimg_library@@QEBA?AU12@HHHHHIMMMM@Z@4HA 000000018002feec f   resize_worker.obj
 0001:0002eef8       ?dtor$33@?0??get_resize@?$CImg@E@cimg_library@@QEBA?AU12@HHHHHIMMMM@Z@4HA 000000018002fef8 f   resize_worker.obj
 0001:0002ef21       ?dtor$34@?0??get_resize@?$CImg@E@cimg_library@@QEBA?AU12@HHHHHIMMMM@Z@4HA 000000018002ff21 f   resize_worker.obj
 0001:0002ef4a       ?dtor$35@?0??get_resize@?$CImg@E@cimg_library@@QEBA?AU12@HHHHHIMMMM@Z@4HA 000000018002ff4a f   resize_worker.obj
 0001:0002ef73       ?dtor$36@?0??get_resize@?$CImg@E@cimg_library@@QEBA?AU12@HHHHHIMMMM@Z@4HA 000000018002ff73 f   resize_worker.obj
 0001:0002ef9c       ?dtor$37@?0??get_resize@?$CImg@E@cimg_library@@QEBA?AU12@HHHHHIMMMM@Z@4HA 000000018002ff9c f   resize_worker.obj
 0001:0002efc5       ?dtor$38@?0??get_resize@?$CImg@E@cimg_library@@QEBA?AU12@HHHHHIMMMM@Z@4HA 000000018002ffc5 f   resize_worker.obj
 0001:0002efee       ?dtor$39@?0??get_resize@?$CImg@E@cimg_library@@QEBA?AU12@HHHHHIMMMM@Z@4HA 000000018002ffee f   resize_worker.obj
 0001:0002f01c       ?dtor$40@?0??get_resize@?$CImg@E@cimg_library@@QEBA?AU12@HHHHHIMMMM@Z@4HA 000000018003001c f   resize_worker.obj
 0001:0002f04a       ?dtor$41@?0??get_resize@?$CImg@E@cimg_library@@QEBA?AU12@HHHHHIMMMM@Z@4HA 000000018003004a f   resize_worker.obj
 0001:0002f056       ?dtor$42@?0??get_resize@?$CImg@E@cimg_library@@QEBA?AU12@HHHHHIMMMM@Z@4HA 0000000180030056 f   resize_worker.obj
 0001:0002f062       ?dtor$43@?0??get_resize@?$CImg@E@cimg_library@@QEBA?AU12@HHHHHIMMMM@Z@4HA 0000000180030062 f   resize_worker.obj
 0001:0002f06e       ?dtor$44@?0??get_resize@?$CImg@E@cimg_library@@QEBA?AU12@HHHHHIMMMM@Z@4HA 000000018003006e f   resize_worker.obj
 0001:0002f07a       ?dtor$45@?0??get_resize@?$CImg@E@cimg_library@@QEBA?AU12@HHHHHIMMMM@Z@4HA 000000018003007a f   resize_worker.obj
 0001:0002f086       ?dtor$46@?0??get_resize@?$CImg@E@cimg_library@@QEBA?AU12@HHHHHIMMMM@Z@4HA 0000000180030086 f   resize_worker.obj
 0001:0002f092       ?dtor$47@?0??get_resize@?$CImg@E@cimg_library@@QEBA?AU12@HHHHHIMMMM@Z@4HA 0000000180030092 f   resize_worker.obj
 0001:0002f09e       ?dtor$48@?0??get_resize@?$CImg@E@cimg_library@@QEBA?AU12@HHHHHIMMMM@Z@4HA 000000018003009e f   resize_worker.obj
 0001:0002f0aa       ?dtor$49@?0??get_resize@?$CImg@E@cimg_library@@QEBA?AU12@HHHHHIMMMM@Z@4HA 00000001800300aa f   resize_worker.obj
 0001:0002f0d8       ?dtor$50@?0??get_resize@?$CImg@E@cimg_library@@QEBA?AU12@HHHHHIMMMM@Z@4HA 00000001800300d8 f   resize_worker.obj
 0001:0002f106       ?dtor$51@?0??get_resize@?$CImg@E@cimg_library@@QEBA?AU12@HHHHHIMMMM@Z@4HA 0000000180030106 f   resize_worker.obj
 0001:0002f134       ?dtor$52@?0??get_resize@?$CImg@E@cimg_library@@QEBA?AU12@HHHHHIMMMM@Z@4HA 0000000180030134 f   resize_worker.obj
 0001:0002f162       ?dtor$53@?0??get_resize@?$CImg@E@cimg_library@@QEBA?AU12@HHHHHIMMMM@Z@4HA 0000000180030162 f   resize_worker.obj
 0001:0002f190       ?dtor$54@?0??get_resize@?$CImg@E@cimg_library@@QEBA?AU12@HHHHHIMMMM@Z@4HA 0000000180030190 f   resize_worker.obj
 0001:0002f1be       ?dtor$55@?0??get_resize@?$CImg@E@cimg_library@@QEBA?AU12@HHHHHIMMMM@Z@4HA 00000001800301be f   resize_worker.obj
 0001:0002f1ec       ?dtor$56@?0??get_resize@?$CImg@E@cimg_library@@QEBA?AU12@HHHHHIMMMM@Z@4HA 00000001800301ec f   resize_worker.obj
 0001:0002f21a       ?dtor$57@?0??get_resize@?$CImg@E@cimg_library@@QEBA?AU12@HHHHHIMMMM@Z@4HA 000000018003021a f   resize_worker.obj
 0001:0002f226       ?dtor$58@?0??get_resize@?$CImg@E@cimg_library@@QEBA?AU12@HHHHHIMMMM@Z@4HA 0000000180030226 f   resize_worker.obj
 0001:0002f232       ?dtor$59@?0??get_resize@?$CImg@E@cimg_library@@QEBA?AU12@HHHHHIMMMM@Z@4HA 0000000180030232 f   resize_worker.obj
 0001:0002f23e       ?dtor$60@?0??get_resize@?$CImg@E@cimg_library@@QEBA?AU12@HHHHHIMMMM@Z@4HA 000000018003023e f   resize_worker.obj
 0001:0002f24a       ?dtor$61@?0??get_resize@?$CImg@E@cimg_library@@QEBA?AU12@HHHHHIMMMM@Z@4HA 000000018003024a f   resize_worker.obj
 0001:0002f256       ?dtor$62@?0??get_resize@?$CImg@E@cimg_library@@QEBA?AU12@HHHHHIMMMM@Z@4HA 0000000180030256 f   resize_worker.obj
 0001:0002f262       ?dtor$63@?0??get_resize@?$CImg@E@cimg_library@@QEBA?AU12@HHHHHIMMMM@Z@4HA 0000000180030262 f   resize_worker.obj
 0001:0002f26e       ?dtor$64@?0??get_resize@?$CImg@E@cimg_library@@QEBA?AU12@HHHHHIMMMM@Z@4HA 000000018003026e f   resize_worker.obj
 0001:0002f27a       ?dtor$65@?0??get_resize@?$CImg@E@cimg_library@@QEBA?AU12@HHHHHIMMMM@Z@4HA 000000018003027a f   resize_worker.obj
 0001:0002f286       ?dtor$66@?0??get_resize@?$CImg@E@cimg_library@@QEBA?AU12@HHHHHIMMMM@Z@4HA 0000000180030286 f   resize_worker.obj
 0001:0002f292       ?dtor$67@?0??get_resize@?$CImg@E@cimg_library@@QEBA?AU12@HHHHHIMMMM@Z@4HA 0000000180030292 f   resize_worker.obj
 0001:0002f29e       ?dtor$68@?0??get_resize@?$CImg@E@cimg_library@@QEBA?AU12@HHHHHIMMMM@Z@4HA 000000018003029e f   resize_worker.obj
 0001:0002f2aa       ?dtor$69@?0??get_resize@?$CImg@E@cimg_library@@QEBA?AU12@HHHHHIMMMM@Z@4HA 00000001800302aa f   resize_worker.obj
 0001:0002f2b6       ?dtor$70@?0??get_resize@?$CImg@E@cimg_library@@QEBA?AU12@HHHHHIMMMM@Z@4HA 00000001800302b6 f   resize_worker.obj
 0001:0002f2c2       ?dtor$71@?0??get_resize@?$CImg@E@cimg_library@@QEBA?AU12@HHHHHIMMMM@Z@4HA 00000001800302c2 f   resize_worker.obj
 0001:0002f2f0       ?dtor$72@?0??get_resize@?$CImg@E@cimg_library@@QEBA?AU12@HHHHHIMMMM@Z@4HA 00000001800302f0 f   resize_worker.obj
 0001:0002f31e       ?dtor$73@?0??get_resize@?$CImg@E@cimg_library@@QEBA?AU12@HHHHHIMMMM@Z@4HA 000000018003031e f   resize_worker.obj
 0001:0002f34c       ?dtor$74@?0??get_resize@?$CImg@E@cimg_library@@QEBA?AU12@HHHHHIMMMM@Z@4HA 000000018003034c f   resize_worker.obj
 0001:0002f37a       ?dtor$75@?0??get_resize@?$CImg@E@cimg_library@@QEBA?AU12@HHHHHIMMMM@Z@4HA 000000018003037a f   resize_worker.obj
 0001:0002f3a8       ?dtor$76@?0??get_resize@?$CImg@E@cimg_library@@QEBA?AU12@HHHHHIMMMM@Z@4HA 00000001800303a8 f   resize_worker.obj
 0001:0002f3d6       ?dtor$77@?0??get_resize@?$CImg@E@cimg_library@@QEBA?AU12@HHHHHIMMMM@Z@4HA 00000001800303d6 f   resize_worker.obj
 0001:0002f404       ?dtor$78@?0??get_resize@?$CImg@E@cimg_library@@QEBA?AU12@HHHHHIMMMM@Z@4HA 0000000180030404 f   resize_worker.obj
 0001:0002f432       ?dtor$79@?0??get_resize@?$CImg@E@cimg_library@@QEBA?AU12@HHHHHIMMMM@Z@4HA 0000000180030432 f   resize_worker.obj
 0001:0002f43e       ?dtor$80@?0??get_resize@?$CImg@E@cimg_library@@QEBA?AU12@HHHHHIMMMM@Z@4HA 000000018003043e f   resize_worker.obj
 0001:0002f44a       ?dtor$81@?0??get_resize@?$CImg@E@cimg_library@@QEBA?AU12@HHHHHIMMMM@Z@4HA 000000018003044a f   resize_worker.obj
 0001:0002f456       ?dtor$82@?0??get_resize@?$CImg@E@cimg_library@@QEBA?AU12@HHHHHIMMMM@Z@4HA 0000000180030456 f   resize_worker.obj
 0001:0002f462       ?dtor$83@?0??get_resize@?$CImg@E@cimg_library@@QEBA?AU12@HHHHHIMMMM@Z@4HA 0000000180030462 f   resize_worker.obj
 0001:0002f46e       ?dtor$84@?0??get_resize@?$CImg@E@cimg_library@@QEBA?AU12@HHHHHIMMMM@Z@4HA 000000018003046e f   resize_worker.obj
 0001:0002f47a       ?dtor$85@?0??get_resize@?$CImg@E@cimg_library@@QEBA?AU12@HHHHHIMMMM@Z@4HA 000000018003047a f   resize_worker.obj
 0001:0002f486       ?dtor$86@?0??get_resize@?$CImg@E@cimg_library@@QEBA?AU12@HHHHHIMMMM@Z@4HA 0000000180030486 f   resize_worker.obj
 0001:0002f492       ?dtor$87@?0??get_resize@?$CImg@E@cimg_library@@QEBA?AU12@HHHHHIMMMM@Z@4HA 0000000180030492 f   resize_worker.obj
 0001:0002f49e       ?dtor$88@?0??get_resize@?$CImg@E@cimg_library@@QEBA?AU12@HHHHHIMMMM@Z@4HA 000000018003049e f   resize_worker.obj
 0001:0002f4aa       ?dtor$89@?0??get_resize@?$CImg@E@cimg_library@@QEBA?AU12@HHHHHIMMMM@Z@4HA 00000001800304aa f   resize_worker.obj
 0001:0002f4b6       ?dtor$90@?0??get_resize@?$CImg@E@cimg_library@@QEBA?AU12@HHHHHIMMMM@Z@4HA 00000001800304b6 f   resize_worker.obj
 0001:0002f4c2       ?dtor$91@?0??get_resize@?$CImg@E@cimg_library@@QEBA?AU12@HHHHHIMMMM@Z@4HA 00000001800304c2 f   resize_worker.obj
 0001:0002f4ce       ?dtor$92@?0??get_resize@?$CImg@E@cimg_library@@QEBA?AU12@HHHHHIMMMM@Z@4HA 00000001800304ce f   resize_worker.obj
 0001:0002f4da       ?dtor$93@?0??get_resize@?$CImg@E@cimg_library@@QEBA?AU12@HHHHHIMMMM@Z@4HA 00000001800304da f   resize_worker.obj
 0001:0002f508       ?dtor$94@?0??get_resize@?$CImg@E@cimg_library@@QEBA?AU12@HHHHHIMMMM@Z@4HA 0000000180030508 f   resize_worker.obj
 0001:0002f536       ?dtor$95@?0??get_resize@?$CImg@E@cimg_library@@QEBA?AU12@HHHHHIMMMM@Z@4HA 0000000180030536 f   resize_worker.obj
 0001:0002f564       ?dtor$96@?0??get_resize@?$CImg@E@cimg_library@@QEBA?AU12@HHHHHIMMMM@Z@4HA 0000000180030564 f   resize_worker.obj
 0001:0002f592       ?dtor$97@?0??get_resize@?$CImg@E@cimg_library@@QEBA?AU12@HHHHHIMMMM@Z@4HA 0000000180030592 f   resize_worker.obj
 0001:0002f5c0       ?dtor$98@?0??get_resize@?$CImg@E@cimg_library@@QEBA?AU12@HHHHHIMMMM@Z@4HA 00000001800305c0 f   resize_worker.obj
 0001:0002f5ee       ?dtor$99@?0??get_resize@?$CImg@E@cimg_library@@QEBA?AU12@HHHHHIMMMM@Z@4HA 00000001800305ee f   resize_worker.obj
 0001:0002f61c       ?dtor$100@?0??get_resize@?$CImg@E@cimg_library@@QEBA?AU12@HHHHHIMMMM@Z@4HA 000000018003061c f   resize_worker.obj
 0001:0002f650       ?catch$0@?0???0?$CImg@I@cimg_library@@QEAA@IIII@Z@4HA 0000000180030650 f   resize_worker.obj
 0001:0002f65f       __catch$??0?$CImg@I@cimg_library@@QEAA@IIII@Z$0 000000018003065f f   resize_worker.obj
 0001:0002f720       ?dtor$0@?0??draw_image@?$CImg@E@cimg_library@@QEAAAEAU12@HHHHAEBU12@M@Z@4HA 0000000180030720 f   resize_worker.obj
 0001:0002f730       ?dtor$0@?0??get_crop@?$CImg@E@cimg_library@@QEBA?AU12@HHHHHHHH_N@Z@4HA 0000000180030730 f   resize_worker.obj
 0001:0002f760       ?catch$0@?0??assign@?$CImg@E@cimg_library@@QEAAAEAU12@IIII@Z@4HA 0000000180030760 f   resize_worker.obj
 0001:0002f774       __catch$?assign@?$CImg@E@cimg_library@@QEAAAEAU12@IIII@Z$0 0000000180030774 f   resize_worker.obj
 0001:0002f850       ?catch$0@?0???0?$CImg@E@cimg_library@@QEAA@IIIIAEBE@Z@4HA 0000000180030850 f   resize_worker.obj
 0001:0002f864       __catch$??0?$CImg@E@cimg_library@@QEAA@IIIIAEBE@Z$0 0000000180030864 f   resize_worker.obj
 0001:0002f930       ?catch$0@?0???0?$CImg@M@cimg_library@@QEAA@IIIIAEBM@Z@4HA 0000000180030930 f   resize_worker.obj
 0001:0002f944       __catch$??0?$CImg@M@cimg_library@@QEAA@IIIIAEBM@Z$0 0000000180030944 f   resize_worker.obj
 0001:0002fa10       ?catch$0@?0???0?$CImg@M@cimg_library@@QEAA@IIII@Z@4HA 0000000180030a10 f   resize_worker.obj
 0001:0002fa24       __catch$??0?$CImg@M@cimg_library@@QEAA@IIII@Z$0 0000000180030a24 f   resize_worker.obj
 0001:0002faf0       ?catch$0@?0???0?$CImg@E@cimg_library@@QEAA@AEBU01@_N@Z@4HA 0000000180030af0 f   resize_worker.obj
 0001:0002fb04       __catch$??0?$CImg@E@cimg_library@@QEAA@AEBU01@_N@Z$0 0000000180030b04 f   resize_worker.obj
 0001:0002fbd0       ?catch$0@?0??assign@?$CImg@E@cimg_library@@QEAAAEAU12@QEBEIIII@Z@4HA 0000000180030bd0 f   resize_worker.obj
 0001:0002fbe4       __catch$?assign@?$CImg@E@cimg_library@@QEAAAEAU12@QEBEIIII@Z$0 0000000180030be4 f   resize_worker.obj
 0001:0002fcb0       ?dtor$0@?0??Execute@RotateWorker@@UEAAXXZ@4HA 0000000180030cb0 f   rotate_worker.obj
 0001:0002fcd0       ?catch$1@?0??Execute@RotateWorker@@UEAAXXZ@4HA 0000000180030cd0 f   rotate_worker.obj
 0001:0002fcdd       __catch$?Execute@RotateWorker@@UEAAXXZ$0 0000000180030cdd f   rotate_worker.obj
 0001:0002fd09       ?dtor$1@?0??Execute@RotateWorker@@UEAAXXZ@4HA 0000000180030d09 f   rotate_worker.obj
 0001:0002fd15       ?dtor$5@?0??Execute@RotateWorker@@UEAAXXZ@4HA 0000000180030d15 f   rotate_worker.obj
 0001:0002fd21       ?catch$0@?0??Execute@RotateWorker@@UEAAXXZ@4HA 0000000180030d21 f   rotate_worker.obj
 0001:0002fd2e       __catch$?Execute@RotateWorker@@UEAAXXZ$2 0000000180030d2e f   rotate_worker.obj
 0001:0002fd5a       ?dtor$2@?0??Execute@RotateWorker@@UEAAXXZ@4HA 0000000180030d5a f   rotate_worker.obj
 0001:0002fd70       ?dtor$1@?0??get_rotate@?$CImg@E@cimg_library@@QEBA?AU12@MII@Z@4HA 0000000180030d70 f   rotate_worker.obj
 0001:0002fd80       ?catch$0@?0??Execute@CropWorker@@UEAAXXZ@4HA 0000000180030d80 f   crop_worker.obj
 0001:0002fd8d       __catch$?Execute@CropWorker@@UEAAXXZ$0 0000000180030d8d f   crop_worker.obj
 0001:0002fdb9       ?dtor$0@?0??Execute@CropWorker@@UEAAXXZ@4HA 0000000180030db9 f   crop_worker.obj
 0001:0002fdd0       ?dtor$0@?0??Execute@MirrorWorker@@UEAAXXZ@4HA 0000000180030dd0 f   mirror_worker.obj
 0001:0002fddc       ?catch$0@?0??Execute@MirrorWorker@@UEAAXXZ@4HA 0000000180030ddc f   mirror_worker.obj
 0001:0002fde9       __catch$?Execute@MirrorWorker@@UEAAXXZ$0 0000000180030de9 f   mirror_worker.obj
 0001:0002fe12       ?dtor$1@?0??Execute@MirrorWorker@@UEAAXXZ@4HA 0000000180030e12 f   mirror_worker.obj
 0001:0002fe20       ?dtor$0@?0??Execute@PadWorker@@UEAAXXZ@4HA 0000000180030e20 f   pad_worker.obj
 0001:0002fe40       ?catch$0@?0??Execute@PadWorker@@UEAAXXZ@4HA 0000000180030e40 f   pad_worker.obj
 0001:0002fe4d       __catch$?Execute@PadWorker@@UEAAXXZ$0 0000000180030e4d f   pad_worker.obj
 0001:0002fe79       ?dtor$1@?0??Execute@PadWorker@@UEAAXXZ@4HA 0000000180030e79 f   pad_worker.obj
 0001:0002fe90       ?catch$0@?0??Execute@SharpenWorker@@UEAAXXZ@4HA 0000000180030e90 f   sharpen_worker.obj
 0001:0002fe9d       __catch$?Execute@SharpenWorker@@UEAAXXZ$0 0000000180030e9d f   sharpen_worker.obj
 0001:0002fec6       ?dtor$0@?0??Execute@SharpenWorker@@UEAAXXZ@4HA 0000000180030ec6 f   sharpen_worker.obj
 0001:0002fee0       ?dtor$0@?0??sharpen@?$CImg@E@cimg_library@@QEAAAEAU12@M_NMMM@Z@4HA 0000000180030ee0 f   sharpen_worker.obj
 0001:0002feec       ?dtor$1@?0??sharpen@?$CImg@E@cimg_library@@QEAAAEAU12@M_NMMM@Z@4HA 0000000180030eec f   sharpen_worker.obj
 0001:0002ff00       ?dtor$0@?0???$?YE@?$CImg@M@cimg_library@@QEAAAEAU01@AEBU?$CImg@E@1@@Z@4HA 0000000180030f00 f   sharpen_worker.obj
 0001:0002ff10       ?dtor$0@?0???0PasteWorker@@QEAA@_K0AEAV?$Local@VObject@v8@@@v8@@00PEAU?$CImg@E@cimg_library@@PEAVCallback@Nan@@@Z@4HA 0000000180030f10 f   paste_worker.obj
 0001:0002ff1c       ?dtor$1@?0???0PasteWorker@@QEAA@_K0AEAV?$Local@VObject@v8@@@v8@@00PEAU?$CImg@E@cimg_library@@PEAVCallback@Nan@@@Z@4HA 0000000180030f1c f   paste_worker.obj
 0001:0002ff30       ?catch$0@?0??Execute@PasteWorker@@UEAAXXZ@4HA 0000000180030f30 f   paste_worker.obj
 0001:0002ff3d       __catch$?Execute@PasteWorker@@UEAAXXZ$0 0000000180030f3d f   paste_worker.obj
 0001:0002ff69       ?dtor$1@?0??Execute@PasteWorker@@UEAAXXZ@4HA 0000000180030f69 f   paste_worker.obj
 0001:0002ff75       __scrt_is_nonwritable_in_current_image$filt$0 0000000180030f75 f   LIBCMT:utility.obj
 0001:0002ff8d       ?fin$0@?0??dllmain_crt_process_attach@@YAHQEAUHINSTANCE__@@QEAX@Z@4HA 0000000180030f8d f   LIBCMT:dll_dllmain.obj
 0001:0002ffa4       ?fin$0@?0??dllmain_crt_process_detach@@YAH_N@Z@4HA 0000000180030fa4 f   LIBCMT:dll_dllmain.obj
 0001:0002ffc0       ?filt$0@?0??dllmain_dispatch@@YAHQEAUHINSTANCE__@@KQEAX@Z@4HA 0000000180030fc0 f   LIBCMT:dll_dllmain.obj
 0001:0002fff6       __CxxCallCatchBlock$filt$0 0000000180030ff6 f   libvcruntime:frame.obj
 0001:0003001b       __CxxCallCatchBlock$fin$1  000000018003101b f   libvcruntime:frame.obj
 0001:00030093       __DestructExceptionObject$filt$0 0000000180031093 f   libvcruntime:frame.obj
 0001:000300ab       __FrameUnwindToState$filt$0 00000001800310ab f   libvcruntime:frame.obj
 0001:000300c1       __FrameUnwindToState$fin$1 00000001800310c1 f   libvcruntime:frame.obj
 0001:000300e4       _CallSETranslator$filt$0   00000001800310e4 f   libvcruntime:trnsctrl.obj
 0001:00030130       ?fin$0@?0???$common_fsopen@D@@YAPEAU_iobuf@@QEBD0H@Z@4HA 0000000180031130 f   libucrt:fopen.obj
 0001:0003015b       fclose$fin$0               000000018003115b f   libucrt:fclose.obj
 0001:0003015b       fflush$fin$0               000000018003115b f   libucrt:fflush.obj
 0001:00030173       ?fin$0@?0???$?RV<lambda_7a5ef57ff966f610505f1d28a3d40618>@@AEAV<lambda_b721fa326cdb32351d23dfa67958c160>@@V<lambda_5e0fb27672408a07956fe59e48ccb2aa>@@@?$__crt_seh_guarded_call@H@@QEAAH$$QEAV<lambda_7a5ef57ff966f610505f1d28a3d40618>@@AEAV<lambda_b721fa326cdb32351d23dfa67958c160>@@$$QEAV<lambda_5e0fb27672408a07956fe59e48ccb2aa>@@@Z@4HA 0000000180031173 f   libucrt:setvbuf.obj
 0001:00030173       ?fin$0@?0???$?RV<lambda_aa279a7bcb127014629d5b1d62c7325d>@@AEAV<lambda_0a64b6a4deda75c01876f29c44fc5eb3>@@V<lambda_3323e69fbefe9d1a11713e670d47cdfa>@@@?$__crt_seh_guarded_call@H@@QEAAH$$QEAV<lambda_aa279a7bcb127014629d5b1d62c7325d>@@AEAV<lambda_0a64b6a4deda75c01876f29c44fc5eb3>@@$$QEAV<lambda_3323e69fbefe9d1a11713e670d47cdfa>@@@Z@4HA 0000000180031173 f   libucrt:output.obj
 0001:00030173       ?fin$0@?0???$?RV<lambda_7b91131dde12e1c3dfc74ff76b3f2eac>@@AEAV<lambda_dd75445284c072d0bd3768540cc698fa>@@V<lambda_16bc4ecb55b4718497c16bceaea2ceaf>@@@?$__crt_seh_guarded_call@H@@QEAAH$$QEAV<lambda_7b91131dde12e1c3dfc74ff76b3f2eac>@@AEAV<lambda_dd75445284c072d0bd3768540cc698fa>@@$$QEAV<lambda_16bc4ecb55b4718497c16bceaea2ceaf>@@@Z@4HA 0000000180031173 f   libucrt:output.obj
 0001:0003018e       ?fin$0@?0???$common_getenv@D@@YAPEADQEBD@Z@4HA 000000018003118e f   libucrt:getenv.obj
 0001:000301a7       _query_new_handler$fin$0   00000001800311a7 f   libucrt:new_handler.obj
 0001:000301bd       ?filt$0@?0??common_exit@@YAXHW4_crt_exit_cleanup_mode@@W4_crt_exit_return_mode@@@Z@4HA 00000001800311bd f   libucrt:exit.obj
 0001:000301d8       ?fin$1@?0??common_exit@@YAXHW4_crt_exit_cleanup_mode@@W4_crt_exit_return_mode@@@Z@4HA 00000001800311d8 f   libucrt:exit.obj
 0001:000301f1       ?fin$0@?0???$?RV<lambda_e24bbb7b643b32fcea6fa61b31d4c984>@@AEAV<lambda_275893d493268fdec8709772e3fcec0e>@@V<lambda_9d71df4d7cf3f480f8d633942495c3b0>@@@?$__crt_seh_guarded_call@H@@QEAAH$$QEAV<lambda_e24bbb7b643b32fcea6fa61b31d4c984>@@AEAV<lambda_275893d493268fdec8709772e3fcec0e>@@$$QEAV<lambda_9d71df4d7cf3f480f8d633942495c3b0>@@@Z@4HA 00000001800311f1 f   libucrt:onexit.obj
 0001:0003020e       ?fin$0@?0???$?RV<lambda_72d1df2b273a38828b1ce30cbf4cdab5>@@AEAV<lambda_876a65b173b8412d3a47c70a915b0cf4>@@V<lambda_41932305e351933ebe8f8be3ed8bb5dc>@@@?$__crt_seh_guarded_call@X@@QEAAX$$QEAV<lambda_72d1df2b273a38828b1ce30cbf4cdab5>@@AEAV<lambda_876a65b173b8412d3a47c70a915b0cf4>@@$$QEAV<lambda_41932305e351933ebe8f8be3ed8bb5dc>@@@Z@4HA 000000018003120e f   libucrt:per_thread_data.obj
 0001:0003020e       ?fin$0@?0???$?RV<lambda_fb3a7dec4e47f37f22dae91bb15c9095>@@AEAV<lambda_698284760c8add0bfb0756c19673e34b>@@V<lambda_dfb8eca1e75fef3034a8fb18dd509707>@@@?$__crt_seh_guarded_call@X@@QEAAX$$QEAV<lambda_fb3a7dec4e47f37f22dae91bb15c9095>@@AEAV<lambda_698284760c8add0bfb0756c19673e34b>@@$$QEAV<lambda_dfb8eca1e75fef3034a8fb18dd509707>@@@Z@4HA 000000018003120e f   libucrt:per_thread_data.obj
 0001:0003020e       ?fin$0@?0???$?RV<lambda_5e887d1dcbef67a5eb4283622ba103bf>@@AEAV<lambda_4466841279450cc726390878d4a41900>@@V<lambda_341c25c0346d94847f1f3c463c57e077>@@@?$__crt_seh_guarded_call@X@@QEAAX$$QEAV<lambda_5e887d1dcbef67a5eb4283622ba103bf>@@AEAV<lambda_4466841279450cc726390878d4a41900>@@$$QEAV<lambda_341c25c0346d94847f1f3c463c57e077>@@@Z@4HA 000000018003120e f   libucrt:per_thread_data.obj
 0001:0003020e       ?fin$0@?0???$?RV<lambda_b8c45f8f788dd370798f47cfe8ac3a86>@@AEAV<lambda_4e60a939b0d047cfe11ddc22648dfba9>@@V<lambda_332c3edc96d0294ec56c57d38c1cdfd5>@@@?$__crt_seh_guarded_call@H@@QEAAH$$QEAV<lambda_b8c45f8f788dd370798f47cfe8ac3a86>@@AEAV<lambda_4e60a939b0d047cfe11ddc22648dfba9>@@$$QEAV<lambda_332c3edc96d0294ec56c57d38c1cdfd5>@@@Z@4HA 000000018003120e f   libucrt:onexit.obj
 0001:0003020e       ?fin$0@?0???$?RV<lambda_46352004c1216016012b18bd6f87e700>@@AEAV<lambda_3bd07e1a1191394380780325891bf33f>@@V<lambda_334532d3f185bcaa59b5be82d7d22bff>@@@?$__crt_seh_guarded_call@X@@QEAAX$$QEAV<lambda_46352004c1216016012b18bd6f87e700>@@AEAV<lambda_3bd07e1a1191394380780325891bf33f>@@$$QEAV<lambda_334532d3f185bcaa59b5be82d7d22bff>@@@Z@4HA 000000018003120e f   libucrt:per_thread_data.obj
 0001:0003020e       ?fin$0@?0???$?RV<lambda_99476a1ad63dd22509b5d3e65b0ffc95>@@AEAV<lambda_ad1ced32f4ac17aa236e5ef05d6b3b7c>@@V<lambda_f7424dd8d45958661754dc4f2697e9c3>@@@?$__crt_seh_guarded_call@X@@QEAAX$$QEAV<lambda_99476a1ad63dd22509b5d3e65b0ffc95>@@AEAV<lambda_ad1ced32f4ac17aa236e5ef05d6b3b7c>@@$$QEAV<lambda_f7424dd8d45958661754dc4f2697e9c3>@@@Z@4HA 000000018003120e f   libucrt:mbctype.obj
 0001:0003020e       ?fin$0@?0???$?RV<lambda_c36588078e9f5dfd39652860aa6b3aaf>@@AEAV<lambda_ec61778202f4f5fc7e7711acc23c3bca>@@V<lambda_dc9d2797ccde5d239b4a0efae8ebd7db>@@@?$__crt_seh_guarded_call@P6AXH@Z@@QEAAP6AXH@Z$$QEAV<lambda_c36588078e9f5dfd39652860aa6b3aaf>@@AEAV<lambda_ec61778202f4f5fc7e7711acc23c3bca>@@$$QEAV<lambda_dc9d2797ccde5d239b4a0efae8ebd7db>@@@Z@4HA 000000018003120e f   libucrt:signal.obj
 0001:00030228       _fcloseall$fin$0           0000000180031228 f   libucrt:closeall.obj
 0001:00030228       ?fin$0@?0??__acrt_stdio_allocate_stream@@YA?AV__crt_stdio_stream@@XZ@4HA 0000000180031228 f   libucrt:stream.obj
 0001:00030241       common_flush_all$fin$0     0000000180031241 f   libucrt:fflush.obj
 0001:0003025b       common_flush_all$fin$1     000000018003125b f   libucrt:fflush.obj
 0001:00030274       ?fin$0@?0???$?RV<lambda_b521505b218e5242e90febf6bfebc422>@@AEAV<lambda_6978c1fb23f02e42e1d9e99668cc68aa>@@V<lambda_314360699dd331753a4119843814e9a7>@@@?$__crt_seh_guarded_call@H@@QEAAH$$QEAV<lambda_b521505b218e5242e90febf6bfebc422>@@AEAV<lambda_6978c1fb23f02e42e1d9e99668cc68aa>@@$$QEAV<lambda_314360699dd331753a4119843814e9a7>@@@Z@4HA 0000000180031274 f   libucrt:commit.obj
 0001:00030274       ?fin$0@?0???$?RV<lambda_bfedae4ebbf01fab1bb6dcc6a9e276e0>@@AEAV<lambda_2fe9b910cf3cbf4a0ab98a02ba45b3ec>@@V<lambda_237c231691f317818eb88cc1d5d642d6>@@@?$__crt_seh_guarded_call@H@@QEAAH$$QEAV<lambda_bfedae4ebbf01fab1bb6dcc6a9e276e0>@@AEAV<lambda_2fe9b910cf3cbf4a0ab98a02ba45b3ec>@@$$QEAV<lambda_237c231691f317818eb88cc1d5d642d6>@@@Z@4HA 0000000180031274 f   libucrt:close.obj
 0001:0003028e       raise$fin$0                000000018003128e f   libucrt:signal.obj
 0001:000302b2       __acrt_update_thread_multibyte_data$fin$0 00000001800312b2 f   libucrt:mbctype.obj
 0001:000302cb       __acrt_uninitialize_locale$fin$0 00000001800312cb f   libucrt:wsetlocale.obj
 0001:000302cb       __acrt_update_thread_locale_data$fin$0 00000001800312cb f   libucrt:locale_refcounting.obj
 0001:000302e4       ?fin$0@?0???$common_sopen_dispatch@D@@YAHQEBDHHHQEAHH@Z@4HA 00000001800312e4 f   libucrt:open.obj
 0001:00030337       __acrt_initialize_lowio$fin$0 0000000180031337 f   libucrt:ioinit.obj
 0001:00030337       _alloc_osfhnd$fin$0        0000000180031337 f   libucrt:osfinfo.obj
 0001:00030337       __acrt_lowio_ensure_fh_exists$fin$0 0000000180031337 f   libucrt:osfinfo.obj
 0001:00030350       ?fin$0@?0???$common_lseek@_J@@YA_JH_JH@Z@4HA 0000000180031350 f   libucrt:lseek.obj
 0001:00030350       _write$fin$0               0000000180031350 f   libucrt:write.obj
 0001:00030367       _ctrlfp$filt$0             0000000180031367 f   libucrt:fpctrl.obj
 0001:00030367       common_control87$filt$0    0000000180031367 f   libucrt:ieee.obj
 0001:000303a0       _IsNonwritableInCurrentImage$filt$0 00000001800313a0 f   LIBCMT:pesect.obj
 0001:00030480       ??__F?constructor@LwipImage@@0V?$Persistent@VFunctionTemplate@v8@@V?$NonCopyablePersistentTraits@VFunctionTemplate@v8@@@2@@Nan@@A@@YAXXZ 0000000180031480 f   image.obj
 0002:000002f8       ??constructor$initializer$@LwipImage@@0P6AXXZEA@@3P6AXXZEA 00000001800322f8     image.obj
 0002:00000318       ?__scrt_initialize_tss_var@@3P6AHXZEA 0000000180032318     LIBCMT:thread_safe_statics.obj
 0002:000004d8       GS_ExceptionPointers       00000001800324d8     LIBCMT:gs_report.obj
 0002:00000550       ?ExceptionTemplate@?1??_CxxThrowException@@9@4UEHExceptionRecord@@B 0000000180032550     libvcruntime:throw.obj
 0002:00000590       ?module_names@?A0xece66f1d@@3QBQEB_WB 0000000180032590     libvcruntime:winapi_downlevel.obj
 0002:0000065c       ?candidate_modules@?1??try_get_EventRegister@@YAP6AKPEBU_GUID@@P6AX0KE_K1PEAU_EVENT_FILTER_DESCRIPTOR@@PEAX@Z3PEA_K@ZXZ@4QBW4module_id@?A0xece66f1d@@B 000000018003265c     libvcruntime:winapi_downlevel.obj
 0002:00000670       ?candidate_modules@?1??try_get_EventSetInformation@@YAP6AK_KW4_EVENT_INFO_CLASS@@PEAXK@ZXZ@4QBW4module_id@?A0xece66f1d@@B 0000000180032670     libvcruntime:winapi_downlevel.obj
 0002:0000068c       ?candidate_modules@?1??try_get_EventUnregister@@YAP6AK_K@ZXZ@4QBW4module_id@?A0xece66f1d@@B 000000018003268c     libvcruntime:winapi_downlevel.obj
 0002:000006a0       ?candidate_modules@?1??try_get_EventWriteTransfer@@YAP6AK_KPEBU_EVENT_DESCRIPTOR@@PEBU_GUID@@2KPEAU_EVENT_DATA_DESCRIPTOR@@@ZXZ@4QBW4module_id@?A0xece66f1d@@B 00000001800326a0     libvcruntime:winapi_downlevel.obj
 0002:000006c0       ?candidate_modules@?1??try_get_FlsAlloc@@YAP6AKP6AXPEAX@Z@ZXZ@4QBW4module_id@?A0xece66f1d@@B 00000001800326c0     libvcruntime:winapi_downlevel.obj
 0002:000006d8       ?candidate_modules@?1??try_get_FlsFree@@YAP6AHK@ZXZ@4QBW4module_id@?A0xece66f1d@@B 00000001800326d8     libvcruntime:winapi_downlevel.obj
 0002:000006e8       ?candidate_modules@?1??try_get_FlsGetValue@@YAP6APEAXK@ZXZ@4QBW4module_id@?A0xece66f1d@@B 00000001800326e8     libvcruntime:winapi_downlevel.obj
 0002:00000700       ?candidate_modules@?1??try_get_FlsSetValue@@YAP6AHKPEAX@ZXZ@4QBW4module_id@?A0xece66f1d@@B 0000000180032700     libvcruntime:winapi_downlevel.obj
 0002:00000718       ?candidate_modules@?1??try_get_InitializeCriticalSectionEx@@YAP6AHPEAU_RTL_CRITICAL_SECTION@@KK@ZXZ@4QBW4module_id@?A0xece66f1d@@B 0000000180032718     libvcruntime:winapi_downlevel.obj
 0002:00000770       ?ExceptionTemplate@?1??_UnwindNestedFrames@@9@4U_EXCEPTION_RECORD@@B 0000000180032770     libvcruntime:trnsctrl.obj
 0002:00000cb0       ?rttiTable@@3QBQEBDB       0000000180032cb0     libvcruntime:undname.obj
 0002:00000ce0       ?tokenTable@@3QBQEBDB      0000000180032ce0     libvcruntime:undname.obj
 0002:00000d50       ?nameTable@@3QBQEBDB       0000000180032d50     libvcruntime:undname.obj
 0002:00001650       __acrt_initializers        0000000180033650     libucrt:initialization.obj
 0002:00001740       errtable                   0000000180033740     libucrt:errno.obj
 0002:000018d0       module_names               00000001800338d0     libucrt:winapi_thunks.obj
 0002:00001e00       ?candidate_modules@?1??try_get_AreFileApisANSI@@YAP6AHXZXZ@4QBW4module_id@?A0x1dd686d3@@B 0000000180033e00     libucrt:winapi_thunks.obj
 0002:00001e18       ?candidate_modules@?1??try_get_CompareStringEx@@YAP6AHPEB_WK0H0HPEAU_nlsversioninfo@@PEAX_J@ZXZ@4QBW4module_id@?A0x1dd686d3@@B 0000000180033e18     libucrt:winapi_thunks.obj
 0002:00001e30       ?candidate_modules@?1??try_get_FlsAlloc@@YAP6AKP6AXPEAX@Z@ZXZ@4QBW4module_id@?A0x1dd686d3@@B 0000000180033e30     libucrt:winapi_thunks.obj
 0002:00001e38       ?candidate_modules@?1??try_get_FlsFree@@YAP6AHK@ZXZ@4QBW4module_id@?A0x1dd686d3@@B 0000000180033e38     libucrt:winapi_thunks.obj
 0002:00001e40       ?candidate_modules@?1??try_get_FlsGetValue@@YAP6APEAXK@ZXZ@4QBW4module_id@?A0x1dd686d3@@B 0000000180033e40     libucrt:winapi_thunks.obj
 0002:00001e48       ?candidate_modules@?1??try_get_FlsSetValue@@YAP6AHKPEAX@ZXZ@4QBW4module_id@?A0x1dd686d3@@B 0000000180033e48     libucrt:winapi_thunks.obj
 0002:00001e50       ?candidate_modules@?1??try_get_GetActiveWindow@@YAP6APEAUHWND__@@XZXZ@4QBW4module_id@?A0x1dd686d3@@B 0000000180033e50     libucrt:winapi_thunks.obj
 0002:00001e68       ?candidate_modules@?1??try_get_GetCurrentPackageId@@YAP6AJPEAIPEAE@ZXZ@4QBW4module_id@?A0x1dd686d3@@B 0000000180033e68     libucrt:winapi_thunks.obj
 0002:00001e88       ?candidate_modules@?1??try_get_GetLastActivePopup@@YAP6APEAUHWND__@@PEAU2@@ZXZ@4QBW4module_id@?A0x1dd686d3@@B 0000000180033e88     libucrt:winapi_thunks.obj
 0002:00001ea8       ?candidate_modules@?1??try_get_GetProcessWindowStation@@YAP6APEAUHWINSTA__@@XZXZ@4QBW4module_id@?A0x1dd686d3@@B 0000000180033ea8     libucrt:winapi_thunks.obj
 0002:00001ec8       ?candidate_modules@?1??try_get_GetUserObjectInformationW@@YAP6AHPEAXH0KPEAK@ZXZ@4QBW4module_id@?A0x1dd686d3@@B 0000000180033ec8     libucrt:winapi_thunks.obj
 0002:00001ef0       ?candidate_modules@?1??try_get_InitializeCriticalSectionEx@@YAP6AHPEAU_RTL_CRITICAL_SECTION@@KK@ZXZ@4QBW4module_id@?A0x1dd686d3@@B 0000000180033ef0     libucrt:winapi_thunks.obj
 0002:00001ef8       ?candidate_modules@?1??try_get_LCMapStringEx@@YAP6AHPEB_WK0HPEA_WHPEAU_nlsversioninfo@@PEAX_J@ZXZ@4QBW4module_id@?A0x1dd686d3@@B 0000000180033ef8     libucrt:winapi_thunks.obj
 0002:00001f10       ?candidate_modules@?1??try_get_LocaleNameToLCID@@YAP6AKPEB_WK@ZXZ@4QBW4module_id@?A0x1dd686d3@@B 0000000180033f10     libucrt:winapi_thunks.obj
 0002:00001f30       ?candidate_modules@?1??try_get_MessageBoxA@@YAP6AHPEAUHWND__@@PEBD1I@ZXZ@4QBW4module_id@?A0x1dd686d3@@B 0000000180033f30     libucrt:winapi_thunks.obj
 0002:00001f48       ?candidate_modules@?1??try_get_MessageBoxW@@YAP6AHPEAUHWND__@@PEB_W1I@ZXZ@4QBW4module_id@?A0x1dd686d3@@B 0000000180033f48     libucrt:winapi_thunks.obj
 0002:00002640       _mb_locale_names           0000000180034640     libucrt:mbctype.obj
 0002:00002eb0       LcidToLocaleNameTable      0000000180034eb0     libucrt:lcidtoname_downlevel.obj
 0002:00004910       LocaleNameToIndexTable     0000000180036910     libucrt:lcidtoname_downlevel.obj
 0002:00006ba0       __real_ninf                0000000180038ba0     libucrt:log10.obj
 0002:00006bb0       __real_inf                 0000000180038bb0     libucrt:log10.obj
 0002:00006bc0       __real_neg_qnan            0000000180038bc0     libucrt:log10.obj
 0002:00006bd0       __real_qnanbit             0000000180038bd0     libucrt:log10.obj
 0002:00006be0       __int_1023                 0000000180038be0     libucrt:log10.obj
 0002:00006bf0       __mask_001                 0000000180038bf0     libucrt:log10.obj
 0002:00006c00       __mask_mant                0000000180038c00     libucrt:log10.obj
 0002:00006c10       __mask_mant_top8           0000000180038c10     libucrt:log10.obj
 0002:00006c20       __mask_mant9               0000000180038c20     libucrt:log10.obj
 0002:00006c30       __real_log10_e             0000000180038c30     libucrt:log10.obj
 0002:00006c40       __real_log10_e_lead        0000000180038c40     libucrt:log10.obj
 0002:00006c50       __real_log10_e_tail        0000000180038c50     libucrt:log10.obj
 0002:00006c60       __real_log10_2_lead        0000000180038c60     libucrt:log10.obj
 0002:00006c70       __real_log10_2_tail        0000000180038c70     libucrt:log10.obj
 0002:00006c80       __real_two                 0000000180038c80     libucrt:log10.obj
 0002:00006c90       __real_one                 0000000180038c90     libucrt:log10.obj
 0002:00006ca0       __real_half                0000000180038ca0     libucrt:log10.obj
 0002:00006cb0       __mask_100                 0000000180038cb0     libucrt:log10.obj
 0002:00006cc0       __real_1_over_512          0000000180038cc0     libucrt:log10.obj
 0002:00006cd0       __real_1_over_2            0000000180038cd0     libucrt:log10.obj
 0002:00006ce0       __real_1_over_3            0000000180038ce0     libucrt:log10.obj
 0002:00006cf0       __real_1_over_4            0000000180038cf0     libucrt:log10.obj
 0002:00006d00       __real_1_over_5            0000000180038d00     libucrt:log10.obj
 0002:00006d10       __real_1_over_6            0000000180038d10     libucrt:log10.obj
 0002:00006d20       __real_neg_1023            0000000180038d20     libucrt:log10.obj
 0002:00006d30       __mask_2045                0000000180038d30     libucrt:log10.obj
 0002:00006d40       __real_threshold           0000000180038d40     libucrt:log10.obj
 0002:00006d50       __real_near_one_lt         0000000180038d50     libucrt:log10.obj
 0002:00006d60       __real_near_one_gt         0000000180038d60     libucrt:log10.obj
 0002:00006d70       __real_min_norm            0000000180038d70     libucrt:log10.obj
 0002:00006d80       __real_notsign             0000000180038d80     libucrt:log10.obj
 0002:00006d90       __real_ca1                 0000000180038d90     libucrt:log10.obj
 0002:00006da0       __real_ca2                 0000000180038da0     libucrt:log10.obj
 0002:00006db0       __real_ca3                 0000000180038db0     libucrt:log10.obj
 0002:00006dc0       __real_ca4                 0000000180038dc0     libucrt:log10.obj
 0002:00006dd0       __mask_lower               0000000180038dd0     libucrt:log10.obj
 0002:00006de0       __flag_x_zero              0000000180038de0     libucrt:log10.obj
 0002:00006de4       __flag_x_neg               0000000180038de4     libucrt:log10.obj
 0002:00006de8       __flag_x_nan               0000000180038de8     libucrt:log10.obj
 0002:00008640       __real@433fffffffffffff    000000018003a640     libucrt:fpsr.obj
 0002:00008648       __real@c33fffffffffffff    000000018003a648     libucrt:fpsr.obj
 0002:00008770       ?logo40x38@cimg@cimg_library@@3QBEB 000000018003a770     init.obj
 0002:00009950       ?t_normal@cimg@cimg_library@@3QBDB 000000018003b950     init.obj
 0002:00009951       ?t_normal@cimg@cimg_library@@3QBDB 000000018003b951     image.obj
 0002:00009952       ?t_normal@cimg@cimg_library@@3QBDB 000000018003b952     resize_worker.obj
 0002:00009953       ?t_normal@cimg@cimg_library@@3QBDB 000000018003b953     rotate_worker.obj
 0002:00009954       ?t_normal@cimg@cimg_library@@3QBDB 000000018003b954     blur_worker.obj
 0002:00009955       ?t_normal@cimg@cimg_library@@3QBDB 000000018003b955     crop_worker.obj
 0002:00009956       ?t_normal@cimg@cimg_library@@3QBDB 000000018003b956     mirror_worker.obj
 0002:00009957       ?t_normal@cimg@cimg_library@@3QBDB 000000018003b957     pad_worker.obj
 0002:00009958       ?t_red@cimg@cimg_library@@3QEBDEB 000000018003b958     image.obj
 0002:00009960       ?logo40x38@cimg@cimg_library@@3QBEB 000000018003b960     image.obj
 0002:0000ab40       ?t_bold@cimg@cimg_library@@3QEBDEB 000000018003cb40     image.obj
 0002:0000ab48       ?t_green@cimg@cimg_library@@3QEBDEB 000000018003cb48     image.obj
 0002:0000ab50       ?logo40x38@cimg@cimg_library@@3QBEB 000000018003cb50     resize_worker.obj
 0002:0000bd30       ?t_red@cimg@cimg_library@@3QEBDEB 000000018003dd30     resize_worker.obj
 0002:0000bd38       ?t_bold@cimg@cimg_library@@3QEBDEB 000000018003dd38     resize_worker.obj
 0002:0000bd40       ?t_green@cimg@cimg_library@@3QEBDEB 000000018003dd40     resize_worker.obj
 0002:0000bd48       ?t_red@cimg@cimg_library@@3QEBDEB 000000018003dd48     rotate_worker.obj
 0002:0000bd50       ?logo40x38@cimg@cimg_library@@3QBEB 000000018003dd50     rotate_worker.obj
 0002:0000cf30       ?t_bold@cimg@cimg_library@@3QEBDEB 000000018003ef30     rotate_worker.obj
 0002:0000cf38       ?t_green@cimg@cimg_library@@3QEBDEB 000000018003ef38     rotate_worker.obj
 0002:0000cf40       ?logo40x38@cimg@cimg_library@@3QBEB 000000018003ef40     blur_worker.obj
 0002:0000e120       ?logo40x38@cimg@cimg_library@@3QBEB 0000000180040120     crop_worker.obj
 0002:0000f300       ?t_red@cimg@cimg_library@@3QEBDEB 0000000180041300     crop_worker.obj
 0002:0000f308       ?t_bold@cimg@cimg_library@@3QEBDEB 0000000180041308     crop_worker.obj
 0002:0000f310       ?t_green@cimg@cimg_library@@3QEBDEB 0000000180041310     crop_worker.obj
 0002:0000f318       ?t_red@cimg@cimg_library@@3QEBDEB 0000000180041318     mirror_worker.obj
 0002:0000f320       ?logo40x38@cimg@cimg_library@@3QBEB 0000000180041320     mirror_worker.obj
 0002:00010500       ?t_bold@cimg@cimg_library@@3QEBDEB 0000000180042500     mirror_worker.obj
 0002:00010508       ?t_green@cimg@cimg_library@@3QEBDEB 0000000180042508     mirror_worker.obj
 0002:00010510       ?logo40x38@cimg@cimg_library@@3QBEB 0000000180042510     pad_worker.obj
 0002:000116f0       ?t_bold@cimg@cimg_library@@3QEBDEB 00000001800436f0     pad_worker.obj
 0002:000116f8       ?t_red@cimg@cimg_library@@3QEBDEB 00000001800436f8     pad_worker.obj
 0002:00011700       ?t_green@cimg@cimg_library@@3QEBDEB 0000000180043700     pad_worker.obj
 0002:00011708       ?t_red@cimg@cimg_library@@3QEBDEB 0000000180043708     sharpen_worker.obj
 0002:00011710       ?logo40x38@cimg@cimg_library@@3QBEB 0000000180043710     sharpen_worker.obj
 0002:000128f0       ?t_normal@cimg@cimg_library@@3QBDB 00000001800448f0     sharpen_worker.obj
 0002:000128f1       ?t_normal@cimg@cimg_library@@3QBDB 00000001800448f1     hsla_worker.obj
 0002:000128f2       ?t_normal@cimg@cimg_library@@3QBDB 00000001800448f2     opacify_worker.obj
 0002:000128f3       ?t_normal@cimg@cimg_library@@3QBDB 00000001800448f3     paste_worker.obj
 0002:000128f4       ?t_normal@cimg@cimg_library@@3QBDB 00000001800448f4     setpixel_worker.obj
 0002:000128f8       ?t_green@cimg@cimg_library@@3QEBDEB 00000001800448f8     sharpen_worker.obj
 0002:00012900       ?t_bold@cimg@cimg_library@@3QEBDEB 0000000180044900     sharpen_worker.obj
 0002:00012908       ?t_bold@cimg@cimg_library@@3QEBDEB 0000000180044908     paste_worker.obj
 0002:00012910       ?logo40x38@cimg@cimg_library@@3QBEB 0000000180044910     hsla_worker.obj
 0002:00013af0       ?logo40x38@cimg@cimg_library@@3QBEB 0000000180045af0     opacify_worker.obj
 0002:00014cd0       ?logo40x38@cimg@cimg_library@@3QBEB 0000000180046cd0     paste_worker.obj
 0002:00015eb0       ?t_red@cimg@cimg_library@@3QEBDEB 0000000180047eb0     paste_worker.obj
 0002:00015eb8       ?t_green@cimg@cimg_library@@3QEBDEB 0000000180047eb8     paste_worker.obj
 0002:00015ec0       ?logo40x38@cimg@cimg_library@@3QBEB 0000000180047ec0     setpixel_worker.obj
 0002:00018b90       $cppxdata$??0?$CImg@E@cimg_library@@QEAA@IIII@Z 000000018004ab90     image.obj
 0002:00018bb8       $cppxdata$??0?$CImg@E@cimg_library@@QEAA@AEBU01@@Z 000000018004abb8     image.obj
 0002:00018be0       $cppxdata$??0?$CImg@D@cimg_library@@QEAA@IIII@Z 000000018004abe0     image.obj
 0002:00018c08       $cppxdata$?assign@?$CImg@D@cimg_library@@QEAAAEAU12@IIII@Z 000000018004ac08     image.obj
 0002:00018c30       $cppxdata$??0?$CImg@E@cimg_library@@QEAA@QEBEIIII_N@Z 000000018004ac30     image.obj
 0002:00018c58       $cppxdata$?setPixel@LwipImage@@SAXAEBV?$FunctionCallbackInfo@VValue@v8@@@Nan@@@Z 000000018004ac58     image.obj
 0002:00018c80       $cppxdata$?paste@LwipImage@@SAXAEBV?$FunctionCallbackInfo@VValue@v8@@@Nan@@@Z 000000018004ac80     image.obj
 0002:00018ca8       $cppxdata$?opacify@LwipImage@@SAXAEBV?$FunctionCallbackInfo@VValue@v8@@@Nan@@@Z 000000018004aca8     image.obj
 0002:00018cd0       $cppxdata$?hslaAdj@LwipImage@@SAXAEBV?$FunctionCallbackInfo@VValue@v8@@@Nan@@@Z 000000018004acd0     image.obj
 0002:00018cf8       $cppxdata$?sharpen@LwipImage@@SAXAEBV?$FunctionCallbackInfo@VValue@v8@@@Nan@@@Z 000000018004acf8     image.obj
 0002:00018d20       $cppxdata$?pad@LwipImage@@SAXAEBV?$FunctionCallbackInfo@VValue@v8@@@Nan@@@Z 000000018004ad20     image.obj
 0002:00018d48       $cppxdata$?mirror@LwipImage@@SAXAEBV?$FunctionCallbackInfo@VValue@v8@@@Nan@@@Z 000000018004ad48     image.obj
 0002:00018d70       $cppxdata$?crop@LwipImage@@SAXAEBV?$FunctionCallbackInfo@VValue@v8@@@Nan@@@Z 000000018004ad70     image.obj
 0002:00018d98       $cppxdata$?blur@LwipImage@@SAXAEBV?$FunctionCallbackInfo@VValue@v8@@@Nan@@@Z 000000018004ad98     image.obj
 0002:00018dc0       $cppxdata$?rotate@LwipImage@@SAXAEBV?$FunctionCallbackInfo@VValue@v8@@@Nan@@@Z 000000018004adc0     image.obj
 0002:00018de8       $cppxdata$?resize@LwipImage@@SAXAEBV?$FunctionCallbackInfo@VValue@v8@@@Nan@@@Z 000000018004ade8     image.obj
 0002:00018e10       $cppxdata$?New@LwipImage@@SAXAEBV?$FunctionCallbackInfo@VValue@v8@@@Nan@@@Z 000000018004ae10     image.obj
 0002:00018e38       $cppxdata$??0LwipImage@@QEAA@PEAE_K1@Z 000000018004ae38     image.obj
 0002:00018e60       $cppxdata$??__F?constructor@LwipImage@@0V?$Persistent@VFunctionTemplate@v8@@V?$NonCopyablePersistentTraits@VFunctionTemplate@v8@@@2@@Nan@@A@@YAXXZ 000000018004ae60     image.obj
 0002:00018e88       $cppxdata$?temporary_path@cimg@cimg_library@@YAPEBDQEBD_N@Z 000000018004ae88     image.obj
 0002:00018eb0       $cppxdata$??0CImgInstanceException@cimg_library@@QEAA@AEBU01@@Z 000000018004aeb0     image.obj
 0002:00018eb0       $cppxdata$??0CImgArgumentException@cimg_library@@QEAA@AEBU01@@Z 000000018004aeb0     image.obj
 0002:00018eb0       $cppxdata$??0CImgIOException@cimg_library@@QEAA@AEBU01@@Z 000000018004aeb0     image.obj
 0002:00018ed8       $cppxdata$??0CImgIOException@cimg_library@@QEAA@QEBDZZ 000000018004aed8     image.obj
 0002:00018f00       $cppxdata$??0CImgInstanceException@cimg_library@@QEAA@QEBDZZ 000000018004af00     image.obj
 0002:00018f28       $cppxdata$??0CImgArgumentException@cimg_library@@QEAA@QEBDZZ 000000018004af28     image.obj
 0002:00018f50       $cppxdata$??0CImgException@cimg_library@@QEAA@AEBU01@@Z 000000018004af50     image.obj
 0002:00018f78       $cppxdata$??1?$Persistent@VObject@v8@@V?$NonCopyablePersistentTraits@VObject@v8@@@2@@Nan@@QEAA@XZ 000000018004af78     image.obj
 0002:00018fa0       $cppxdata$??0Callback@Nan@@QEAA@AEBV?$Local@VFunction@v8@@@v8@@@Z 000000018004afa0     image.obj
 0002:00018fc8       $cppxdata$?New@?$Factory@VFunctionTemplate@v8@@@imp@Nan@@SA?AV?$Local@VFunctionTemplate@v8@@@v8@@P6AXAEBV?$FunctionCallbackInfo@VValue@v8@@@3@@ZV?$Local@VValue@v8@@@5@V?$Local@VSignature@v8@@@5@@Z 000000018004afc8     image.obj
 0002:00018ff0       $cppxdata$?WeakCallback@ObjectWrap@node@@CAXAEBV?$WeakCallbackData@VObject@v8@@VObjectWrap@node@@@v8@@@Z 000000018004aff0     image.obj
 0002:00019018       $cppxdata$??1ObjectWrap@node@@UEAA@XZ 000000018004b018     image.obj
 0002:00019040       $cppxdata$?Init@LwipImage@@SAXV?$Local@VObject@v8@@@v8@@@Z 000000018004b040     image.obj
 0002:00019068       $cppxdata$?assign@?$CImg@E@cimg_library@@QEAAAEAU12@QEBEIIII@Z 000000018004b068     resize_worker.obj
 0002:00019090       $cppxdata$??0?$CImg@E@cimg_library@@QEAA@AEBU01@_N@Z 000000018004b090     resize_worker.obj
 0002:000190b8       $cppxdata$??0?$CImg@M@cimg_library@@QEAA@IIII@Z 000000018004b0b8     resize_worker.obj
 0002:000190e0       $cppxdata$??0?$CImg@M@cimg_library@@QEAA@IIIIAEBM@Z 000000018004b0e0     resize_worker.obj
 0002:00019108       $cppxdata$??0?$CImg@E@cimg_library@@QEAA@IIIIAEBE@Z 000000018004b108     resize_worker.obj
 0002:00019130       $cppxdata$?assign@?$CImg@E@cimg_library@@QEAAAEAU12@IIII@Z 000000018004b130     resize_worker.obj
 0002:00019158       $cppxdata$?get_crop@?$CImg@E@cimg_library@@QEBA?AU12@HHHHHHHH_N@Z 000000018004b158     resize_worker.obj
 0002:00019180       $cppxdata$?draw_image@?$CImg@E@cimg_library@@QEAAAEAU12@HHHHAEBU12@M@Z 000000018004b180     resize_worker.obj
 0002:000191a8       $cppxdata$??0?$CImg@I@cimg_library@@QEAA@IIII@Z 000000018004b1a8     resize_worker.obj
 0002:000191d0       $cppxdata$?get_resize@?$CImg@E@cimg_library@@QEBA?AU12@HHHHHIMMMM@Z 000000018004b1d0     resize_worker.obj
 0002:000191f8       $cppxdata$??0?$CImg@K@cimg_library@@QEAA@IIII@Z 000000018004b1f8     resize_worker.obj
 0002:00019220       $cppxdata$?resize@?$CImg@E@cimg_library@@QEAAAEAU12@HHHHHIMMMM@Z 000000018004b220     resize_worker.obj
 0002:00019248       $cppxdata$?Execute@ResizeWorker@@UEAAXXZ 000000018004b248     resize_worker.obj
 0002:00019270       $cppxdata$?HandleErrorCallback@AsyncWorker@Nan@@MEAAXXZ 000000018004b270     resize_worker.obj
 0002:00019298       $cppxdata$?WorkComplete@AsyncWorker@Nan@@UEAAXXZ 000000018004b298     resize_worker.obj
 0002:000192c0       $cppxdata$??1AsyncWorker@Nan@@UEAA@XZ 000000018004b2c0     resize_worker.obj
 0002:000192e8       $cppxdata$??0AsyncWorker@Nan@@QEAA@PEAVCallback@1@@Z 000000018004b2e8     resize_worker.obj
 0002:00019310       $cppxdata$?Call_@Callback@Nan@@AEBA?AV?$Local@VValue@v8@@@v8@@PEAVIsolate@4@V?$Local@VObject@v8@@@4@HQEAV34@@Z 000000018004b310     resize_worker.obj
 0002:00019338       $cppxdata$?get_rotate@?$CImg@E@cimg_library@@QEBA?AU12@MII@Z 000000018004b338     rotate_worker.obj
 0002:00019360       $cppxdata$?Execute@RotateWorker@@UEAAXXZ 000000018004b360     rotate_worker.obj
 0002:00019388       $cppxdata$?crop@?$CImg@E@cimg_library@@QEAAAEAU12@HHHHHHHH_N@Z 000000018004b388     crop_worker.obj
 0002:000193b0       $cppxdata$?Execute@CropWorker@@UEAAXXZ 000000018004b3b0     crop_worker.obj
 0002:000193d8       $cppxdata$?Execute@MirrorWorker@@UEAAXXZ 000000018004b3d8     mirror_worker.obj
 0002:00019400       $cppxdata$?Execute@PadWorker@@UEAAXXZ 000000018004b400     pad_worker.obj
 0002:00019428       $cppxdata$??$?YE@?$CImg@M@cimg_library@@QEAAAEAU01@AEBU?$CImg@E@1@@Z 000000018004b428     sharpen_worker.obj
 0002:00019450       $cppxdata$?sharpen@?$CImg@E@cimg_library@@QEAAAEAU12@M_NMMM@Z 000000018004b450     sharpen_worker.obj
 0002:00019478       $cppxdata$?Execute@SharpenWorker@@UEAAXXZ 000000018004b478     sharpen_worker.obj
 0002:000194a0       $cppxdata$?Execute@PasteWorker@@UEAAXXZ 000000018004b4a0     paste_worker.obj
 0002:000194c8       $cppxdata$??0PasteWorker@@QEAA@_K0AEAV?$Local@VObject@v8@@@v8@@00PEAU?$CImg@E@cimg_library@@PEAVCallback@Nan@@@Z 000000018004b4c8     paste_worker.obj
 0002:000194f0       L_real_piby2_1             000000018004b4f0     libucrt:cos.obj
 0002:00019500       L_real_piby2_1tail         000000018004b500     libucrt:cos.obj
 0002:00019510       L_real_piby2_2             000000018004b510     libucrt:cos.obj
 0002:00019520       L_real_piby2_2tail         000000018004b520     libucrt:cos.obj
 0002:00019530       L_one                      000000018004b530     libucrt:cos.obj
 0002:00019540       L_signbit                  000000018004b540     libucrt:cos.obj
 0002:00019550       L_int_one                  000000018004b550     libucrt:cos.obj
 0002:00019560       L_int_two                  000000018004b560     libucrt:cos.obj
 0002:00019570       L_2_by_pi                  000000018004b570     libucrt:cos.obj
 0002:00019578       L_one_half                 000000018004b578     libucrt:cos.obj
 0002:00019580       L_neg_one_half             000000018004b580     libucrt:cos.obj
 0002:00019588       L_two_to_neg_27            000000018004b588     libucrt:cos.obj
 0002:00019590       L_two_to_neg_13            000000018004b590     libucrt:cos.obj
 0002:00019598       L_piby4                    000000018004b598     libucrt:cos.obj
 0002:000195a0       L_small_arg_cw             000000018004b5a0     libucrt:cos.obj
 0002:000195a8       L_small_arg_bdl            000000018004b5a8     libucrt:cos.obj
 0002:000195b0       L_sign_mask                000000018004b5b0     libucrt:cos.obj
 0002:000195b8       L__inf_mask_64             000000018004b5b8     libucrt:cos.obj
 0002:000195c0       L_2_to_32                  000000018004b5c0     libucrt:cos.obj
 0002:000195d0       L_real_one                 000000018004b5d0     libucrt:cosf.obj
 0002:000195e0       L_one_half                 000000018004b5e0     libucrt:cosf.obj
 0002:000195f0       L_2bypi                    000000018004b5f0     libucrt:cosf.obj
 0002:00019600       L_one_sixth                000000018004b600     libucrt:cosf.obj
 0002:00019610       L_piby2                    000000018004b610     libucrt:cosf.obj
 0002:00019620       L_piby2_1                  000000018004b620     libucrt:cosf.obj
 0002:00019630       L_piby2_1tail              000000018004b630     libucrt:cosf.obj
 0002:00019640       L_piby2_2                  000000018004b640     libucrt:cosf.obj
 0002:00019650       L_piby2_2tail              000000018004b650     libucrt:cosf.obj
 0002:00019660       L_large_x_sse2             000000018004b660     libucrt:cosf.obj
 0002:00019670       L_large_x_fma3             000000018004b670     libucrt:cosf.obj
 0002:00019680       L_sign_mask                000000018004b680     libucrt:cosf.obj
 0002:00019690       L__int_three               000000018004b690     libucrt:cosf.obj
 0002:000196a0       L__min_norm_double         000000018004b6a0     libucrt:cosf.obj
 0002:000196b0       L_two_to_neg_7             000000018004b6b0     libucrt:cosf.obj
 0002:000196c0       L_two_to_neg_13            000000018004b6c0     libucrt:cosf.obj
 0002:000196d0       L_two_to_32_float          000000018004b6d0     libucrt:cosf.obj
 0002:000196d8       L_one_float                000000018004b6d8     libucrt:cosf.obj
 0002:000196e0       L_inf_mask_32              000000018004b6e0     libucrt:cosf.obj
 0002:000196f0       __real_inf                 000000018004b6f0     libucrt:expf.obj
 0002:00019700       __real_p8192               000000018004b700     libucrt:expf.obj
 0002:00019710       __real_m9600               000000018004b710     libucrt:expf.obj
 0002:00019720       __real_64_by_log2          000000018004b720     libucrt:expf.obj
 0002:00019730       __real_log2_by_64          000000018004b730     libucrt:expf.obj
 0002:00019740       __real_1_by_6              000000018004b740     libucrt:expf.obj
 0002:00019750       __real_1_by_2              000000018004b750     libucrt:expf.obj
 0002:00019760       __real_ninf                000000018004b760     libucrt:expf.obj
 0002:00019764       __real_qnanbit             000000018004b764     libucrt:expf.obj
 0002:00019768       __max_exp_arg              000000018004b768     libucrt:expf.obj
 0002:0001976c       __flag_x_nan               000000018004b76c     libucrt:expf.obj
 0002:00019770       __flag_y_zero              000000018004b770     libucrt:expf.obj
 0002:00019774       __flag_y_inf               000000018004b774     libucrt:expf.obj
 0002:00019780       __flag_x_one_y_snan        000000018004b780     libucrt:powf.obj
 0002:00019784       __flag_x_zero_z_inf        000000018004b784     libucrt:powf.obj
 0002:00019788       __flag_x_nan               000000018004b788     libucrt:powf.obj
 0002:0001978c       __flag_y_nan               000000018004b78c     libucrt:powf.obj
 0002:00019790       __flag_x_nan_y_nan         000000018004b790     libucrt:powf.obj
 0002:00019794       __flag_x_neg_y_notint      000000018004b794     libucrt:powf.obj
 0002:00019798       __flag_z_zero              000000018004b798     libucrt:powf.obj
 0002:0001979c       __flag_z_denormal          000000018004b79c     libucrt:powf.obj
 0002:000197a0       __flag_z_inf               000000018004b7a0     libucrt:powf.obj
 0002:000197a4       L__1_by_3                  000000018004b7a4     libucrt:powf.obj
 0002:000197ac       L__log2                    000000018004b7ac     libucrt:powf.obj
 0002:000197b4       L__max_exp_arg             000000018004b7b4     libucrt:powf.obj
 0002:000197bc       L__min_exp_arg             000000018004b7bc     libucrt:powf.obj
 0002:000197c4       L__real_log2_by_64         000000018004b7c4     libucrt:powf.obj
 0002:000197cc       L__1_by_6                  000000018004b7cc     libucrt:powf.obj
 0002:000197d4       L__real_threshold          000000018004b7d4     libucrt:powf.obj
 0002:000197dc       L__real_one                000000018004b7dc     libucrt:powf.obj
 0002:000197e4       L__real_two                000000018004b7e4     libucrt:powf.obj
 0002:000197ec       L__neg_zero                000000018004b7ec     libucrt:powf.obj
 0002:00019800       L__real_ca42               000000018004b800     libucrt:powf.obj
 0002:00019808       L__real_ca4                000000018004b808     libucrt:powf.obj
 0002:00019810       L__real_ca31               000000018004b810     libucrt:powf.obj
 0002:00019818       L__real_ca3                000000018004b818     libucrt:powf.obj
 0002:00019820       L__clear_sign              000000018004b820     libucrt:powf.obj
 0002:00019830       L__real_64_by_log2         000000018004b830     libucrt:powf.obj
 0002:00019840       L__1_by_2                  000000018004b840     libucrt:powf.obj
 0002:00019850       L__1023                    000000018004b850     libucrt:powf.obj
 0002:00019860       L__xexp_bits_xmantissa_bits 000000018004b860     libucrt:powf.obj
 0002:0001a080       L_real_piby2_1             000000018004c080     libucrt:sin.obj
 0002:0001a090       L_real_piby2_1tail         000000018004c090     libucrt:sin.obj
 0002:0001a0a0       L_real_piby2_2             000000018004c0a0     libucrt:sin.obj
 0002:0001a0b0       L_real_piby2_2tail         000000018004c0b0     libucrt:sin.obj
 0002:0001a0c0       L_one                      000000018004c0c0     libucrt:sin.obj
 0002:0001a0d0       L_signbit                  000000018004c0d0     libucrt:sin.obj
 0002:0001a0e0       L_int_one                  000000018004c0e0     libucrt:sin.obj
 0002:0001a0f0       L_int_two                  000000018004c0f0     libucrt:sin.obj
 0002:0001a100       L_int_three                000000018004c100     libucrt:sin.obj
 0002:0001a110       L_2_by_pi                  000000018004c110     libucrt:sin.obj
 0002:0001a118       L_one_half                 000000018004c118     libucrt:sin.obj
 0002:0001a120       L_one_sixth                000000018004c120     libucrt:sin.obj
 0002:0001a128       L_two_to_neg_27            000000018004c128     libucrt:sin.obj
 0002:0001a130       L_two_to_neg_13            000000018004c130     libucrt:sin.obj
 0002:0001a138       L_piby4                    000000018004c138     libucrt:sin.obj
 0002:0001a140       L_small_arg_cw             000000018004c140     libucrt:sin.obj
 0002:0001a148       L_small_arg_bdl            000000018004c148     libucrt:sin.obj
 0002:0001a150       L__inf_mask_64             000000018004c150     libucrt:sin.obj
 0002:0001a158       L_near_one                 000000018004c158     libucrt:sin.obj
 0002:0001a160       L_signbit                  000000018004c160     libucrt:sinf.obj
 0002:0001a170       L_sign_mask                000000018004c170     libucrt:sinf.obj
 0002:0001a180       L_one                      000000018004c180     libucrt:sinf.obj
 0002:0001a190       L_int_three                000000018004c190     libucrt:sinf.obj
 0002:0001a1a0       L_one_half                 000000018004c1a0     libucrt:sinf.obj
 0002:0001a1b0       L_twobypi                  000000018004c1b0     libucrt:sinf.obj
 0002:0001a1c0       L_piby2_1                  000000018004c1c0     libucrt:sinf.obj
 0002:0001a1d0       L_one_sixth                000000018004c1d0     libucrt:sinf.obj
 0002:0001a1e0       L_piby2_1tail              000000018004c1e0     libucrt:sinf.obj
 0002:0001a1f0       L_piby2_2                  000000018004c1f0     libucrt:sinf.obj
 0002:0001a200       L_piby2_2tail              000000018004c200     libucrt:sinf.obj
 0002:0001a210       L_inf_mask_32              000000018004c210     libucrt:sinf.obj
 0002:0001a220       L_int_two                  000000018004c220     libucrt:sinf.obj
 0002:0001a230       L_piby2_lead               000000018004c230     libucrt:sinf.obj
 0002:0001a240       L_piby4                    000000018004c240     libucrt:sinf.obj
 0002:0001a250       L_mask_3f2                 000000018004c250     libucrt:sinf.obj
 0002:0001a260       L_mask_3f8                 000000018004c260     libucrt:sinf.obj
 0002:0001a270       L_large_x_fma3             000000018004c270     libucrt:sinf.obj
 0002:0001a278       L_large_x_sse2             000000018004c278     libucrt:sinf.obj
 0002:0001a280       L_near_one                 000000018004c280     libucrt:sinf.obj
 0002:0001a288       L_two_to_32                000000018004c288     libucrt:sinf.obj
 0002:0001a350       L__piby2_part3_piby2_lead  000000018004c350     libucrt:remainder_piby2_forasm.obj
 0002:0001a360       L__piby2_part1             000000018004c360     libucrt:remainder_piby2_forasm.obj
 0002:0001a370       L__piby2_part2             000000018004c370     libucrt:remainder_piby2_forasm.obj
 0002:0001a380       L_piby2_1                  000000018004c380     libucrt:remainder_piby2_forasm.obj
 0002:0001a390       L_piby2_2                  000000018004c390     libucrt:remainder_piby2_forasm.obj
 0002:0001a3a0       L_piby2_3                  000000018004c3a0     libucrt:remainder_piby2_forasm.obj
 0002:0001a3b0       L_piby2_1tail              000000018004c3b0     libucrt:remainder_piby2_forasm.obj
 0002:0001a3c0       L_piby2_2tail              000000018004c3c0     libucrt:remainder_piby2_forasm.obj
 0002:0001a3d0       L_piby2_3tail              000000018004c3d0     libucrt:remainder_piby2_forasm.obj
 0002:0001a3e0       L_twobypi                  000000018004c3e0     libucrt:remainder_piby2_forasm.obj
 0002:0001a3f0       L_point_five               000000018004c3f0     libucrt:remainder_piby2_forasm.obj
 0002:0001a400       L_int_three                000000018004c400     libucrt:remainder_piby2_forasm.obj
 0002:0001a410       L_inf_mask_64              000000018004c410     libucrt:remainder_piby2_forasm.obj
 0002:0001a420       L_signbit                  000000018004c420     libucrt:remainder_piby2_forasm.obj
 0002:0001a430       L_int_1                    000000018004c430     libucrt:remainder_piby2_forasm.obj
 0002:0001a440       L_int_15                   000000018004c440     libucrt:remainder_piby2_forasm.obj
 0002:0001a448       L_int_48                   000000018004c448     libucrt:remainder_piby2_forasm.obj
 0002:0001a450       L_3pio4                    000000018004c450     libucrt:remainder_piby2_forasm.obj
 0002:0001a458       L_5pio4                    000000018004c458     libucrt:remainder_piby2_forasm.obj
 0002:0001a460       L_7pio4                    000000018004c460     libucrt:remainder_piby2_forasm.obj
 0002:0001a468       L_9pio4                    000000018004c468     libucrt:remainder_piby2_forasm.obj
 0002:0001a470       L__2_by_pi_bits            000000018004c470     libucrt:remainder_piby2_forasm.obj
 0002:0001a510       L_piby2_lead               000000018004c510     libucrt:remainder_piby2_forfma3.obj
 0002:0001a520       L_fff800                   000000018004c520     libucrt:remainder_piby2_forfma3.obj
 0002:0001a530       L_piby2_part1              000000018004c530     libucrt:remainder_piby2_forfma3.obj
 0002:0001a540       L_piby2_part2              000000018004c540     libucrt:remainder_piby2_forfma3.obj
 0002:0001a550       L_piby2_part3              000000018004c550     libucrt:remainder_piby2_forfma3.obj
 0002:0001a560       L_piby2_1                  000000018004c560     libucrt:remainder_piby2_forfma3.obj
 0002:0001a570       L_piby2_2                  000000018004c570     libucrt:remainder_piby2_forfma3.obj
 0002:0001a580       L_piby2_3                  000000018004c580     libucrt:remainder_piby2_forfma3.obj
 0002:0001a590       L_piby2_1tail              000000018004c590     libucrt:remainder_piby2_forfma3.obj
 0002:0001a5a0       L_piby2_2tail              000000018004c5a0     libucrt:remainder_piby2_forfma3.obj
 0002:0001a5b0       L_piby2_3tail              000000018004c5b0     libucrt:remainder_piby2_forfma3.obj
 0002:0001a5c0       L_sign_mask                000000018004c5c0     libucrt:remainder_piby2_forfma3.obj
 0002:0001a5d0       L_twobypi                  000000018004c5d0     libucrt:remainder_piby2_forfma3.obj
 0002:0001a5e0       L_point_five               000000018004c5e0     libucrt:remainder_piby2_forfma3.obj
 0002:0001a5f0       L_int_three                000000018004c5f0     libucrt:remainder_piby2_forfma3.obj
 0002:0001a600       L_inf_mask_64              000000018004c600     libucrt:remainder_piby2_forfma3.obj
 0002:0001a610       L_signbit                  000000018004c610     libucrt:remainder_piby2_forfma3.obj
 0002:0001a620       L_r                        000000018004c620     libucrt:remainder_piby2_forfma3.obj
 0002:0001a630       L_xc1                      000000018004c630     libucrt:remainder_piby2_forfma3.obj
 0002:0001a640       L_xc2                      000000018004c640     libucrt:remainder_piby2_forfma3.obj
 0002:0001a650       L_xc3                      000000018004c650     libucrt:remainder_piby2_forfma3.obj
 0002:0001a660       L_sigma                    000000018004c660     libucrt:remainder_piby2_forfma3.obj
 0002:0001a680       L__piby2                   000000018004c680     libucrt:remainder_piby2f_forasm.obj
 0002:0001a990       L__piby2                   000000018004c990     libucrt:remainder_piby2f_forc.obj
 0002:0001a9a0       L__2_by_pi_bits            000000018004c9a0     libucrt:remainder_piby2f_forc.obj
 0002:0001aed8       ?_TlgEvent@?3??__telemetry_main_invoke_trigger@@9@4U<unnamed-type-_TlgEvent>@?3??1@9@B 000000018004ced8     libvcruntime:telemetry.obj
 0002:0001af14       ?_TlgEvent@?3??__telemetry_main_return_trigger@@9@4U<unnamed-type-_TlgEvent>@?3??1@9@B 000000018004cf14     libvcruntime:telemetry.obj
 0002:0001af4f       ?_Tlg_Microsoft_CRTProviderProv_Meta@@3U<unnamed-type-_Tlg_Microsoft_CRTProviderProv_Meta>@@B 000000018004cf4f     libvcruntime:telemetry.obj
 0002:0001b4a0       $unwind$__vcrt_initialize_ptd 000000018004d4a0     libvcruntime:per_thread_data.obj
 0002:0001b4a0       $unwind$_errno             000000018004d4a0     libucrt:errno.obj
 0002:0001b4a0       $unwind$__acrt_release_locale_ref 000000018004d4a0     libucrt:locale_refcounting.obj
 0002:0001b4a0       $unwind$__vcrt_uninitialize_ptd 000000018004d4a0     libvcruntime:per_thread_data.obj
 0002:0001b4a0       $unwind$_get_osfhandle     000000018004d4a0     libucrt:osfinfo.obj
 0002:0001b4a0       $unwind$__doserrno         000000018004d4a0     libucrt:errno.obj
 0002:0001b4a0       $unwind$__scrt_dllmain_uninitialize_c 000000018004d4a0     LIBCMT:utility.obj
 0002:0001b4a0       $unwind$?state_case_size@?$output_processor@_WV?$stream_output_adapter@_W@__crt_stdio_output@@V?$standard_base@_WV?$stream_output_adapter@_W@__crt_stdio_output@@@2@@__crt_stdio_output@@AEAA_NXZ 000000018004d4a0     libucrt:output.obj
 0002:0001b4a0       $unwind$?__scrt_uninitialize_thread_safe_statics@@YAXXZ 000000018004d4a0     LIBCMT:thread_safe_statics.obj
 0002:0001b4a0       $unwind$__vcrt_thread_detach 000000018004d4a0     libvcruntime:initialization.obj
 0002:0001b4a0       $unwind$__vcrt_thread_attach 000000018004d4a0     libvcruntime:initialization.obj
 0002:0001b4a0       $unwind$__vcrt_freefls     000000018004d4a0     libvcruntime:per_thread_data.obj
 0002:0001b4a0       $unwind$__vcrt_uninitialize_critical 000000018004d4a0     libvcruntime:initialization.obj
 0002:0001b4a0       $unwind$__vcrt_uninitialize_telemetry_provider 000000018004d4a0     libvcruntime:telemetry.obj
 0002:0001b4a0       $unwind$__scrt_acquire_startup_lock 000000018004d4a0     LIBCMT:utility.obj
 0002:0001b4a0       $unwind$?state_case_normal_tchar@?$output_processor@DV?$string_output_adapter@D@__crt_stdio_output@@V?$standard_base@DV?$string_output_adapter@D@__crt_stdio_output@@@2@@__crt_stdio_output@@AEAA_ND@Z 000000018004d4a0     libucrt:output.obj
 0002:0001b4a0       $unwind$?dllmain_crt_dispatch@@YAHQEAUHINSTANCE__@@KQEAX@Z 000000018004d4a0     LIBCMT:dll_dllmain.obj
 0002:0001b4a0       $unwind$initialize_c       000000018004d4a0     libucrt:initialization.obj
 0002:0001b4a0       $unwind$uninitialize_environment 000000018004d4a0     libucrt:initialization.obj
 0002:0001b4a0       $unwind$_wremove           000000018004d4a0     libucrt:wunlink.obj
 0002:0001b4a0       $unwind$?state_case_size@?$output_processor@_WV?$string_output_adapter@_W@__crt_stdio_output@@V?$standard_base@_WV?$string_output_adapter@_W@__crt_stdio_output@@@2@@__crt_stdio_output@@AEAA_NXZ 000000018004d4a0     libucrt:output.obj
 0002:0001b4a0       $unwind$__vcrt_getptd      000000018004d4a0     libvcruntime:per_thread_data.obj
 0002:0001b4a0       $unwind$_get_fmode         000000018004d4a0     libucrt:setmode.obj
 0002:0001b4a0       $unwind$?__GetCurrentState@@YAHPEA_KPEAU_xDISPATCHER_CONTEXT@@PEBU_s_FuncInfo@@@Z 000000018004d4a0     libvcruntime:ehstate.obj
 0002:0001b4a0       $unwind$__acrt_thread_detach 000000018004d4a0     libucrt:initialization.obj
 0002:0001b4a0       $unwind$__acrt_thread_attach 000000018004d4a0     libucrt:initialization.obj
 0002:0001b4a0       $unwind$?initialize_multibyte@@YAHXZ 000000018004d4a0     libucrt:multibyte_initializer.obj
 0002:0001b4a0       $unwind$?state_case_size@?$output_processor@DV?$stream_output_adapter@D@__crt_stdio_output@@V?$standard_base@DV?$stream_output_adapter@D@__crt_stdio_output@@@2@@__crt_stdio_output@@AEAA_NXZ 000000018004d4a0     libucrt:output.obj
 0002:0001b4a0       $unwind$_GetImageBase      000000018004d4a0     libvcruntime:trnsctrl.obj
 0002:0001b4a0       $unwind$_GetThrowImageBase 000000018004d4a0     libvcruntime:trnsctrl.obj
 0002:0001b4a0       $unwind$__acrt_uninitialize_critical 000000018004d4a0     libucrt:initialization.obj
 0002:0001b4a0       $unwind$_invoke_watson     000000018004d4a0     libucrt:invalid_parameter.obj
 0002:0001b4a0       $unwind$?allocate@?$_Wrap_alloc@V?$allocator@D@std@@@std@@QEAAPEAD_K@Z 000000018004d4a0     mirror_worker.obj
 0002:0001b4a0       $unwind$__FrameUnwindFilter 000000018004d4a0     libvcruntime:frame.obj
 0002:0001b4a0       $unwind$atexit             000000018004d4a0     LIBCMT:utility.obj
 0002:0001b4a0       $unwind$?validate_stream_is_ansi_if_required@?$__acrt_stdio_char_traits@D@@SA_NQEAU_iobuf@@@Z 000000018004d4a0     libucrt:output.obj
 0002:0001b4a0       $unwind$__acrt_initialize_multibyte 000000018004d4a0     libucrt:mbctype.obj
 0002:0001b4a0       $unwind$_set_error_mode    000000018004d4a0     libucrt:set_error_mode.obj
 0002:0001b4a0       $unwind$__scrt_initialize_default_local_stdio_options 000000018004d4a0     LIBCMT:default_local_stdio_options.obj
 0002:0001b4a0       $unwind$_set_errno_from_matherr 000000018004d4a0     libucrt:fpexcept.obj
 0002:0001b4a0       $unwind$?state_case_size@?$output_processor@DV?$string_output_adapter@D@__crt_stdio_output@@V?$standard_base@DV?$string_output_adapter@D@__crt_stdio_output@@@2@@__crt_stdio_output@@AEAA_NXZ 000000018004d4a0     libucrt:output.obj
 0002:0001b4a0       $unwind$__vcrt_initialize  000000018004d4a0     libvcruntime:initialization.obj
 0002:0001b4a0       $unwind$_fileno            000000018004d4a0     libucrt:fileno.obj
 0002:0001b4a0       $unwind$_statfp            000000018004d4a0     libucrt:fpctrl.obj
 0002:0001b4a0       $unwind$__GSHandlerCheck   000000018004d4a0     LIBCMT:_gshandler_.obj
 0002:0001b4a0       $unwind$__pctype_func      000000018004d4a0     libucrt:ctype.obj
 0002:0001b4a0       $unwind$tolower            000000018004d4a0     libucrt:tolower_toupper.obj
 0002:0001b4a0       $unwind$_getfpstatusword   000000018004d4a0     libucrt:_fenvutils.obj
 0002:0001b4a0       $unwind$__dcrt_uninitialize_environments_nolock 000000018004d4a0     libucrt:environment_initialization.obj
 0002:0001b4a0       $unwind$__acrt_initialize_command_line 000000018004d4a0     libucrt:argv_data.obj
 0002:0001b4a0       $unwind$?InitAll@@YAXV?$Local@VObject@v8@@@v8@@@Z 000000018004d4a0     init.obj
 0002:0001b4a0       $unwind$__std_terminate    000000018004d4a0     libvcruntime:frame.obj
 0002:0001b4a0       $unwind$??$uninitialize_environment_internal@D@@YAXAEAPEAPEAD@Z 000000018004d4a0     libucrt:environment_initialization.obj
 0002:0001b4a0       $unwind$__acrt_initialize_heap 000000018004d4a0     libucrt:heap_handle.obj
 0002:0001b4a0       $unwind$??$uninitialize_environment_internal@_W@@YAXAEAPEAPEA_W@Z 000000018004d4a0     libucrt:environment_initialization.obj
 0002:0001b4a0       $unwind$_msize             000000018004d4a0     libucrt:msize.obj
 0002:0001b4a0       $unwind$rand               000000018004d4a0     libucrt:rand.obj
 0002:0001b4a0       $unwind$abort              000000018004d4a0     libucrt:abort.obj
 0002:0001b4a0       $unwind$?output@cimg@cimg_library@@YAPEAU_iobuf@@PEAU3@@Z 000000018004d4a0     image.obj
 0002:0001b4a0       $unwind$__acrt_uninitialize_ptd 000000018004d4a0     libucrt:per_thread_data.obj
 0002:0001b4a0       $unwind$_isatty            000000018004d4a0     libucrt:isatty.obj
 0002:0001b4a0       $unwind$_stricmp           000000018004d4a0     libucrt:stricmp.obj
 0002:0001b4a0       $unwind$__acrt_DownlevelLocaleNameToLCID 000000018004d4a0     libucrt:lcidtoname_downlevel.obj
 0002:0001b4a0       $unwind$__scrt_dllmain_before_initialize_c 000000018004d4a0     LIBCMT:utility.obj
 0002:0001b4a0       $unwind$__dcrt_terminate_console_output 000000018004d4a0     libucrt:initcon.obj
 0002:0001b4a0       $unwind$__acrt_initialize_ptd 000000018004d4a0     libucrt:per_thread_data.obj
 0002:0001b4a0       $unwind$?state_case_normal_tchar@?$output_processor@DV?$string_output_adapter@D@__crt_stdio_output@@V?$format_validation_base@DV?$string_output_adapter@D@__crt_stdio_output@@@2@@__crt_stdio_output@@AEAA_ND@Z 000000018004d4a0     libucrt:output.obj
 0002:0001b4a0       $unwind$_getfpcontrolword  000000018004d4a0     libucrt:_fenvutils.obj
 0002:0001b4a0       $unwind$__scrt_dllmain_crt_thread_detach 000000018004d4a0     LIBCMT:utility.obj
 0002:0001b4a0       $unwind$_strnicmp          000000018004d4a0     libucrt:strnicmp.obj
 0002:0001b4a0       $unwind$__scrt_dllmain_crt_thread_attach 000000018004d4a0     LIBCMT:utility.obj
 0002:0001b4a0       $unwind$?state_case_size@?$output_processor@DV?$string_output_adapter@D@__crt_stdio_output@@V?$format_validation_base@DV?$string_output_adapter@D@__crt_stdio_output@@@2@@__crt_stdio_output@@AEAA_NXZ 000000018004d4a0     libucrt:output.obj
 0002:0001b4a0       $unwind$__scrt_dllmain_uninitialize_critical 000000018004d4a0     LIBCMT:utility.obj
 0002:0001b4a0       $unwind$__scrt_dllmain_after_initialize_c 000000018004d4a0     LIBCMT:utility.obj
 0002:0001b4a8       $unwind$fprintf            000000018004d4a8     image.obj
 0002:0001b4a8       $unwind$fwprintf           000000018004d4a8     libucrt:assert.obj
 0002:0001b4b4       $unwind$?state_case_normal@?$output_processor@DV?$string_output_adapter@D@__crt_stdio_output@@V?$format_validation_base@DV?$string_output_adapter@D@__crt_stdio_output@@@2@@__crt_stdio_output@@AEAA_NXZ 000000018004d4b4     libucrt:output.obj
 0002:0001b4b4       $unwind$??0?$output_processor@DV?$string_output_adapter@D@__crt_stdio_output@@V?$format_validation_base@DV?$string_output_adapter@D@__crt_stdio_output@@@2@@__crt_stdio_output@@QEAA@AEBV?$string_output_adapter@D@1@_KQEBDQEAU__crt_locale_pointers@@QEAD@Z 000000018004d4b4     libucrt:output.obj
 0002:0001b4b4       $unwind$_malloc_base       000000018004d4b4     libucrt:malloc_base.obj
 0002:0001b4b4       $unwind$?type_case_integer@?$output_processor@DV?$string_output_adapter@D@__crt_stdio_output@@V?$format_validation_base@DV?$string_output_adapter@D@__crt_stdio_output@@@2@@__crt_stdio_output@@AEAA_NI_N@Z 000000018004d4b4     libucrt:output.obj
 0002:0001b4b4       $unwind$??0bad_exception@std@@QEAA@AEBV01@@Z 000000018004d4b4     libvcruntime:frame.obj
 0002:0001b4b4       $unwind$__scrt_uninitialize_crt 000000018004d4b4     LIBCMT:utility.obj
 0002:0001b4b4       $unwind$?type_case_integer@?$output_processor@_WV?$string_output_adapter@_W@__crt_stdio_output@@V?$standard_base@_WV?$string_output_adapter@_W@__crt_stdio_output@@@2@@__crt_stdio_output@@AEAA_NI_N@Z 000000018004d4b4     libucrt:output.obj
 0002:0001b4b4       $unwind$__scrt_initialize_crt 000000018004d4b4     LIBCMT:utility.obj
 0002:0001b4b4       $unwind$??$message_box_wait_thread@_W@@YAKQEAX@Z 000000018004d4b4     libucrt:crtmbox.obj
 0002:0001b4b4       $unwind$__std_exception_destroy 000000018004d4b4     libvcruntime:std_exception.obj
 0002:0001b4b4       $unwind$__std_type_info_destroy_list 000000018004d4b4     libvcruntime:std_type_info.obj
 0002:0001b4b4       $unwind$__scrt_release_startup_lock 000000018004d4b4     LIBCMT:utility.obj
 0002:0001b4b4       $unwind$__vcrt_uninitialize 000000018004d4b4     libvcruntime:initialization.obj
 0002:0001b4b4       $unwind$??1?$basic_string@DU?$char_traits@D@std@@V?$allocator@D@2@@std@@QEAA@XZ 000000018004d4b4     mirror_worker.obj
 0002:0001b4b4       $unwind$??0?$output_processor@_WV?$string_output_adapter@_W@__crt_stdio_output@@V?$standard_base@_WV?$string_output_adapter@_W@__crt_stdio_output@@@2@@__crt_stdio_output@@QEAA@AEBV?$string_output_adapter@_W@1@_KQEB_WQEAU__crt_locale_pointers@@QEAD@Z 000000018004d4b4     libucrt:output.obj
 0002:0001b4b4       $unwind$__vcrt_initialize_locks 000000018004d4b4     libvcruntime:locks.obj
 0002:0001b4b4       $unwind$?type_case_integer@?$output_processor@DV?$string_output_adapter@D@__crt_stdio_output@@V?$standard_base@DV?$string_output_adapter@D@__crt_stdio_output@@@2@@__crt_stdio_output@@AEAA_NI_N@Z 000000018004d4b4     libucrt:output.obj
 0002:0001b4b4       $unwind$_onexit            000000018004d4b4     LIBCMT:utility.obj
 0002:0001b4b4       $unwind$__vcrt_freeptd     000000018004d4b4     libvcruntime:per_thread_data.obj
 0002:0001b4b4       $unwind$?state_case_normal@?$output_processor@DV?$string_output_adapter@D@__crt_stdio_output@@V?$standard_base@DV?$string_output_adapter@D@__crt_stdio_output@@@2@@__crt_stdio_output@@AEAA_NXZ 000000018004d4b4     libucrt:output.obj
 0002:0001b4b4       $unwind$??0?$output_processor@DV?$string_output_adapter@D@__crt_stdio_output@@V?$standard_base@DV?$string_output_adapter@D@__crt_stdio_output@@@2@@__crt_stdio_output@@QEAA@AEBV?$string_output_adapter@D@1@_KQEBDQEAU__crt_locale_pointers@@QEAD@Z 000000018004d4b4     libucrt:output.obj
 0002:0001b4b4       $unwind$__acrt_update_multibyte_info 000000018004d4b4     libucrt:locale_update.obj
 0002:0001b4b4       $unwind$?_Grow@?$basic_string@DU?$char_traits@D@std@@V?$allocator@D@2@@std@@QEAA_N_K_N@Z 000000018004d4b4     mirror_worker.obj
 0002:0001b4b4       $unwind$__acrt_update_locale_info 000000018004d4b4     libucrt:locale_update.obj
 0002:0001b4b4       $unwind$?type_case_integer@?$output_processor@_WV?$stream_output_adapter@_W@__crt_stdio_output@@V?$standard_base@_WV?$stream_output_adapter@_W@__crt_stdio_output@@@2@@__crt_stdio_output@@AEAA_NI_N@Z 000000018004d4b4     libucrt:output.obj
 0002:0001b4b4       $unwind$fegetenv           000000018004d4b4     libucrt:fegetenv.obj
 0002:0001b4b4       $unwind$_calloc_base       000000018004d4b4     libucrt:calloc_base.obj
 0002:0001b4b4       $unwind$uninitialize_allocated_memory 000000018004d4b4     libucrt:initialization.obj
 0002:0001b4b4       $unwind$feholdexcept       000000018004d4b4     libucrt:feholdexcept.obj
 0002:0001b4b4       $unwind$initialize_pointers 000000018004d4b4     libucrt:initialization.obj
 0002:0001b4b4       $unwind$remove             000000018004d4b4     libucrt:unlink.obj
 0002:0001b4b4       $unwind$_fflush_nolock     000000018004d4b4     libucrt:fflush.obj
 0002:0001b4b4       $unwind$_purecall          000000018004d4b4     libvcruntime:purevirt.obj
 0002:0001b4b4       $unwind$??0?$output_processor@_WV?$stream_output_adapter@_W@__crt_stdio_output@@V?$standard_base@_WV?$stream_output_adapter@_W@__crt_stdio_output@@@2@@__crt_stdio_output@@QEAA@AEBV?$stream_output_adapter@_W@1@_KQEB_WQEAU__crt_locale_pointers@@QEAD@Z 000000018004d4b4     libucrt:output.obj
 0002:0001b4b4       $unwind$?assign@?$CImg@E@cimg_library@@QEAAAEAU12@XZ 000000018004d4b4     resize_worker.obj
 0002:0001b4b4       $unwind$_Init_thread_notify 000000018004d4b4     LIBCMT:thread_safe_statics.obj
 0002:0001b4b4       $unwind$?type_case_integer@?$output_processor@DV?$stream_output_adapter@D@__crt_stdio_output@@V?$standard_base@DV?$stream_output_adapter@D@__crt_stdio_output@@@2@@__crt_stdio_output@@AEAA_NI_N@Z 000000018004d4b4     libucrt:output.obj
 0002:0001b4b4       $unwind$__acrt_fp_strflt_to_string 000000018004d4b4     libucrt:_fptostr.obj
 0002:0001b4b4       $unwind$_Init_thread_footer 000000018004d4b4     LIBCMT:thread_safe_statics.obj
 0002:0001b4b4       $unwind$fesetenv           000000018004d4b4     libucrt:fesetenv.obj
 0002:0001b4b4       $unwind$_Init_thread_header 000000018004d4b4     LIBCMT:thread_safe_statics.obj
 0002:0001b4b4       $unwind$?__GetUnwindTryBlock@@YAHPEA_KPEAU_xDISPATCHER_CONTEXT@@PEBU_s_FuncInfo@@@Z 000000018004d4b4     libvcruntime:ehstate.obj
 0002:0001b4b4       $unwind$?__StateFromIp@@YAHPEBU_s_FuncInfo@@PEAU_xDISPATCHER_CONTEXT@@_J@Z 000000018004d4b4     libvcruntime:ehstate.obj
 0002:0001b4b4       $unwind$?state_case_normal_tchar@?$output_processor@DV?$stream_output_adapter@D@__crt_stdio_output@@V?$standard_base@DV?$stream_output_adapter@D@__crt_stdio_output@@@2@@__crt_stdio_output@@AEAA_ND@Z 000000018004d4b4     libucrt:output.obj
 0002:0001b4b4       $unwind$_SetImageBase      000000018004d4b4     libvcruntime:trnsctrl.obj
 0002:0001b4b4       $unwind$?state_case_normal@?$output_processor@DV?$stream_output_adapter@D@__crt_stdio_output@@V?$standard_base@DV?$stream_output_adapter@D@__crt_stdio_output@@@2@@__crt_stdio_output@@AEAA_NXZ 000000018004d4b4     libucrt:output.obj
 0002:0001b4b4       $unwind$??0bad_array_new_length@std@@QEAA@AEBV01@@Z 000000018004d4b4     LIBCMT:throw_bad_alloc.obj
 0002:0001b4b4       $unwind$_SetThrowImageBase 000000018004d4b4     libvcruntime:trnsctrl.obj
 0002:0001b4b4       $unwind$??2@YAPEAX_K@Z     000000018004d4b4     LIBCMT:new_scalar.obj
 0002:0001b4b4       $unwind$load_exe_hook      000000018004d4b4     win_delay_load_hook.obj
 0002:0001b4b4       $unwind$??0?$output_processor@DV?$stream_output_adapter@D@__crt_stdio_output@@V?$standard_base@DV?$stream_output_adapter@D@__crt_stdio_output@@@2@@__crt_stdio_output@@QEAA@AEBV?$stream_output_adapter@D@1@_KQEBDQEAU__crt_locale_pointers@@QEAD@Z 000000018004d4b4     libucrt:output.obj
 0002:0001b4b4       $unwind$_CreateFrameInfo   000000018004d4b4     libvcruntime:trnsctrl.obj
 0002:0001b4b4       $unwind$??_Gtype_info@@UEAAPEAXI@Z 000000018004d4b4     LIBCMT:std_type_info_static.obj
 0002:0001b4b4       $unwind$_IsExceptionObjectToBeDestroyed 000000018004d4b4     libvcruntime:trnsctrl.obj
 0002:0001b4b4       $unwind$wcscpy_s           000000018004d4b4     libucrt:wcscpy_s.obj
 0002:0001b4b4       $unwind$_clearfp           000000018004d4b4     libucrt:ieee.obj
 0002:0001b4b4       $unwind$wcscat_s           000000018004d4b4     libucrt:wcscat_s.obj
 0002:0001b4b4       $unwind$_clrfp             000000018004d4b4     libucrt:fpctrl.obj
 0002:0001b4b4       $unwind$__raise_securityfailure 000000018004d4b4     LIBCMT:gs_report.obj
 0002:0001b4b4       $unwind$_set_statfp        000000018004d4b4     libucrt:fpctrl.obj
 0002:0001b4b4       $unwind$?exit_or_terminate_process@@YAXI@Z 000000018004d4b4     libucrt:exit.obj
 0002:0001b4b4       $unwind$??0out_of_range@std@@QEAA@AEBV01@@Z 000000018004d4b4     libcpmt:xthrow.obj
 0002:0001b4b4       $unwind$__acrt_uninitialize_stdio 000000018004d4b4     libucrt:_file.obj
 0002:0001b4b4       $unwind$__acrt_uninitialize_locks 000000018004d4b4     libucrt:locks.obj
 0002:0001b4b4       $unwind$??0length_error@std@@QEAA@AEBV01@@Z 000000018004d4b4     libcpmt:xthrow.obj
 0002:0001b4b4       $unwind$__acrt_initialize_locks 000000018004d4b4     libucrt:locks.obj
 0002:0001b4b4       $unwind$__acrt_stdio_free_buffer_nolock 000000018004d4b4     libucrt:_freebuf.obj
 0002:0001b4b4       $unwind$??0logic_error@std@@QEAA@AEBV01@@Z 000000018004d4b4     libcpmt:xthrow.obj
 0002:0001b4b4       $unwind$__acrt_stdio_allocate_buffer_nolock 000000018004d4b4     libucrt:_getbuf.obj
 0002:0001b4b4       $unwind$??0bad_alloc@std@@QEAA@AEBV01@@Z 000000018004d4b4     libcpmt:xthrow.obj
 0002:0001b4b4       $unwind$srand              000000018004d4b4     libucrt:rand.obj
 0002:0001b4b4       $unwind$??0exception@std@@QEAA@AEBV01@@Z 000000018004d4b4     libcpmt:xthrow.obj
 0002:0001b4b4       $unwind$?fclose@cimg@cimg_library@@YAHPEAU_iobuf@@@Z 000000018004d4b4     image.obj
 0002:0001b4b4       $unwind$__acrt_freeptd     000000018004d4b4     libucrt:per_thread_data.obj
 0002:0001b4b4       $unwind$strcpy_s           000000018004d4b4     libucrt:strcpy_s.obj
 0002:0001b4b4       $unwind$?Mutex_attr@cimg@cimg_library@@YAAEAUMutex_info@12@XZ 000000018004d4b4     image.obj
 0002:0001b4b4       $unwind$??$common_get_or_create_environment_nolock@D@@YAPEAPEADXZ 000000018004d4b4     libucrt:environment_initialization.obj
 0002:0001b4b4       $unwind$_setfpstatusword   000000018004d4b4     libucrt:_fenvutils.obj
 0002:0001b4b4       $unwind$??1CImgIOException@cimg_library@@UEAA@XZ 000000018004d4b4     image.obj
 0002:0001b4b4       $unwind$??1CImgInstanceException@cimg_library@@UEAA@XZ 000000018004d4b4     image.obj
 0002:0001b4b4       $unwind$??1CImgArgumentException@cimg_library@@UEAA@XZ 000000018004d4b4     image.obj
 0002:0001b4b4       $unwind$??1CImgException@cimg_library@@UEAA@XZ 000000018004d4b4     image.obj
 0002:0001b4b4       $unwind$?DloadReleaseSectionWriteAccess@@YAXXZ 000000018004d4b4     DelayImp:delayhlp.obj
 0002:0001b4b4       $unwind$?AsyncExecuteComplete@Nan@@YAXPEAUuv_work_s@@@Z 000000018004d4b4     image.obj
 0002:0001b4b4       $unwind$?Unref@ObjectWrap@node@@MEAAXXZ 000000018004d4b4     image.obj
 0002:0001b4b4       $unwind$?Ref@ObjectWrap@node@@MEAAXXZ 000000018004d4b4     image.obj
 0002:0001b4b4       $unwind$??_Gexception@stdext@@UEAAPEAXI@Z 000000018004d4b4     image.obj
 0002:0001b4b4       $unwind$__vcrt_uninitialize_locks 000000018004d4b4     libvcruntime:locks.obj
 0002:0001b4b4       $unwind$?fill@?$CImg@M@cimg_library@@QEAAAEAU12@AEBM@Z 000000018004d4b4     resize_worker.obj
 0002:0001b4b4       $unwind$__acrt_can_show_message_box 000000018004d4b4     libucrt:winapi_thunks.obj
 0002:0001b4b4       $unwind$__acrt_AreFileApisANSI 000000018004d4b4     libucrt:winapi_thunks.obj
 0002:0001b4b4       $unwind$__acrt_uninitialize_winapi_thunks 000000018004d4b4     libucrt:winapi_thunks.obj
 0002:0001b4bc       $unwind$??1ObjectWrap@node@@UEAA@XZ 000000018004d4bc     image.obj
 0002:0001b4cc       $stateUnwindMap$??1ObjectWrap@node@@UEAA@XZ 000000018004d4cc     image.obj
 0002:0001b4cc       $stateUnwindMap$??1?$Persistent@VObject@v8@@V?$NonCopyablePersistentTraits@VObject@v8@@@2@@Nan@@QEAA@XZ 000000018004d4cc     image.obj
 0002:0001b4d8       $ip2state$??1ObjectWrap@node@@UEAA@XZ 000000018004d4d8     image.obj
 0002:0001b4e0       $unwind$?Wrap@ObjectWrap@node@@IEAAXV?$Local@VObject@v8@@@v8@@@Z 000000018004d4e0     image.obj
 0002:0001b4e0       $unwind$??$free_environment@_W@@YAXQEAPEA_W@Z 000000018004d4e0     libucrt:environment_initialization.obj
 0002:0001b4e0       $unwind$??$free_environment@D@@YAXQEAPEAD@Z 000000018004d4e0     libucrt:environment_initialization.obj
 0002:0001b4ec       $unwind$?WeakCallback@ObjectWrap@node@@CAXAEBV?$WeakCallbackData@VObject@v8@@VObjectWrap@node@@@v8@@@Z 000000018004d4ec     image.obj
 0002:0001b504       $stateUnwindMap$?WeakCallback@ObjectWrap@node@@CAXAEBV?$WeakCallbackData@VObject@v8@@VObjectWrap@node@@@v8@@@Z 000000018004d504     image.obj
 0002:0001b510       $ip2state$?WeakCallback@ObjectWrap@node@@CAXAEBV?$WeakCallbackData@VObject@v8@@VObjectWrap@node@@@v8@@@Z 000000018004d510     image.obj
 0002:0001b528       $unwind$??_GPasteWorker@@UEAAPEAXI@Z 000000018004d528     paste_worker.obj
 0002:0001b528       $unwind$?ExFilterRethrow@@YAHPEAU_EXCEPTION_POINTERS@@PEAUEHExceptionRecord@@PEAH@Z 000000018004d528     libvcruntime:frame.obj
 0002:0001b528       $unwind$?__SetUnwindTryBlock@@YAXPEA_KPEAU_xDISPATCHER_CONTEXT@@PEBU_s_FuncInfo@@H@Z 000000018004d528     libvcruntime:ehstate.obj
 0002:0001b528       $unwind$__acrt_stdio_begin_temporary_buffering_nolock 000000018004d528     libucrt:_sftbuf.obj
 0002:0001b528       $unwind$??$common_initialize_environment_nolock@D@@YAHXZ 000000018004d528     libucrt:environment_initialization.obj
 0002:0001b528       $unwind$__acrt_uninitialize_lowio 000000018004d528     libucrt:ioinit.obj
 0002:0001b528       $unwind$?type_case_c_tchar@?$output_processor@DV?$stream_output_adapter@D@__crt_stdio_output@@V?$standard_base@DV?$stream_output_adapter@D@__crt_stdio_output@@@2@@__crt_stdio_output@@AEAA_ND@Z 000000018004d528     libucrt:output.obj
 0002:0001b528       $unwind$??_GHSLAWorker@@UEAAPEAXI@Z 000000018004d528     hsla_worker.obj
 0002:0001b528       $unwind$wcsncat_s          000000018004d528     libucrt:wcsncat_s.obj
 0002:0001b528       $unwind$??_Gbad_array_new_length@std@@UEAAPEAXI@Z 000000018004d528     LIBCMT:throw_bad_alloc.obj
 0002:0001b528       $unwind$??_GSetPixelWorker@@UEAAPEAXI@Z 000000018004d528     setpixel_worker.obj
 0002:0001b528       $unwind$_close_nolock      000000018004d528     libucrt:close.obj
 0002:0001b528       $unwind$??_GRotateWorker@@UEAAPEAXI@Z 000000018004d528     rotate_worker.obj
 0002:0001b528       $unwind$__acrt_invoke_user_matherr 000000018004d528     libucrt:matherr.obj
 0002:0001b528       $unwind$??_GMirrorWorker@@UEAAPEAXI@Z 000000018004d528     mirror_worker.obj
 0002:0001b528       $unwind$__vcrt_FlsGetValue 000000018004d528     libvcruntime:winapi_downlevel.obj
 0002:0001b528       $unwind$?internal_isupper_l@@YA_NHQEAU__crt_locale_pointers@@@Z 000000018004d528     libucrt:tolower_toupper.obj
 0002:0001b528       $unwind$__vcrt_FlsFree     000000018004d528     libvcruntime:winapi_downlevel.obj
 0002:0001b528       $unwind$_fclose_nolock     000000018004d528     libucrt:fclose.obj
 0002:0001b528       $unwind$__acrt_get_parent_window 000000018004d528     libucrt:winapi_thunks.obj
 0002:0001b528       $unwind$__acrt_FlsFree     000000018004d528     libucrt:winapi_thunks.obj
 0002:0001b528       $unwind$??_GPadWorker@@UEAAPEAXI@Z 000000018004d528     pad_worker.obj
 0002:0001b528       $unwind$??_GResizeWorker@@UEAAPEAXI@Z 000000018004d528     resize_worker.obj
 0002:0001b528       $unwind$?force_decimal_point@__crt_stdio_output@@YAXPEADQEAU__crt_locale_pointers@@@Z 000000018004d528     libucrt:output.obj
 0002:0001b528       $unwind$__vcrt_FlsAlloc    000000018004d528     libvcruntime:winapi_downlevel.obj
 0002:0001b528       $unwind$?try_cor_exit_process@@YAXI@Z 000000018004d528     libucrt:exit.obj
 0002:0001b528       $unwind$__acrt_getptd      000000018004d528     libucrt:per_thread_data.obj
 0002:0001b528       $unwind$??_GSharpenWorker@@UEAAPEAXI@Z 000000018004d528     sharpen_worker.obj
 0002:0001b528       $unwind$_FindAndUnlinkFrame 000000018004d528     libvcruntime:trnsctrl.obj
 0002:0001b528       $unwind$??_Gout_of_range@std@@UEAAPEAXI@Z 000000018004d528     libcpmt:xthrow.obj
 0002:0001b528       $unwind$?erase@?$basic_string@DU?$char_traits@D@std@@V?$allocator@D@2@@std@@QEAAAEAV12@_K0@Z 000000018004d528     mirror_worker.obj
 0002:0001b528       $unwind$?type_case_c_tchar@?$output_processor@DV?$string_output_adapter@D@__crt_stdio_output@@V?$format_validation_base@DV?$string_output_adapter@D@__crt_stdio_output@@@2@@__crt_stdio_output@@AEAA_ND@Z 000000018004d528     libucrt:output.obj
 0002:0001b528       $unwind$??_Glength_error@std@@UEAAPEAXI@Z 000000018004d528     libcpmt:xthrow.obj
 0002:0001b528       $unwind$??0_LocaleUpdate@@QEAA@QEAU__crt_locale_pointers@@@Z 000000018004d528     libucrt:output.obj
 0002:0001b528       $unwind$__vcrt_EventUnregister 000000018004d528     libvcruntime:winapi_downlevel.obj
 0002:0001b528       $unwind$??_Glogic_error@std@@UEAAPEAXI@Z 000000018004d528     libcpmt:xthrow.obj
 0002:0001b528       $unwind$??_GCropWorker@@UEAAPEAXI@Z 000000018004d528     crop_worker.obj
 0002:0001b528       $unwind$??_GBlurWorker@@UEAAPEAXI@Z 000000018004d528     blur_worker.obj
 0002:0001b528       $unwind$??_Gexception@std@@UEAAPEAXI@Z 000000018004d528     libcpmt:xthrow.obj
 0002:0001b528       $unwind$??_GAsyncWorker@Nan@@UEAAPEAXI@Z 000000018004d528     resize_worker.obj
 0002:0001b528       $unwind$??_GCImgArgumentException@cimg_library@@UEAAPEAXI@Z 000000018004d528     image.obj
 0002:0001b528       $unwind$??_GCImgIOException@cimg_library@@UEAAPEAXI@Z 000000018004d528     image.obj
 0002:0001b528       $unwind$__acrt_errno_map_os_error 000000018004d528     libucrt:errno.obj
 0002:0001b528       $unwind$??_Gbad_exception@std@@UEAAPEAXI@Z 000000018004d528     libvcruntime:frame.obj
 0002:0001b528       $unwind$??_GOpacifyWorker@@UEAAPEAXI@Z 000000018004d528     opacify_worker.obj
 0002:0001b528       $unwind$??_GObjectWrap@node@@UEAAPEAXI@Z 000000018004d528     image.obj
 0002:0001b528       $unwind$??_GCImgException@cimg_library@@UEAAPEAXI@Z 000000018004d528     image.obj
 0002:0001b528       $unwind$_callnewh          000000018004d528     libucrt:new_handler.obj
 0002:0001b528       $unwind$__acrt_FlsAlloc    000000018004d528     libucrt:winapi_thunks.obj
 0002:0001b528       $unwind$?replace_current_thread_locale_nolock@@YAXQEAU__acrt_ptd@@QEAU__crt_locale_data@@@Z 000000018004d528     libucrt:per_thread_data.obj
 0002:0001b528       $unwind$??$common_xtox@K_W@@YAHKQEA_W_KI_N@Z 000000018004d528     libucrt:xtoa.obj
 0002:0001b528       $unwind$??_GCImgInstanceException@cimg_library@@UEAAPEAXI@Z 000000018004d528     image.obj
 0002:0001b528       $unwind$?DloadAcquireSectionWriteAccess@@YAXXZ 000000018004d528     DelayImp:delayhlp.obj
 0002:0001b528       $unwind$__acrt_FlsGetValue 000000018004d528     libucrt:winapi_thunks.obj
 0002:0001b528       $unwind$_updatetlocinfoEx_nolock 000000018004d528     libucrt:locale_refcounting.obj
 0002:0001b528       $unwind$_realloc_base      000000018004d528     libucrt:realloc_base.obj
 0002:0001b528       $unwind$??_Gbad_alloc@std@@UEAAPEAXI@Z 000000018004d528     libcpmt:xthrow.obj
 0002:0001b528       $unwind$?type_case_c_tchar@?$output_processor@DV?$string_output_adapter@D@__crt_stdio_output@@V?$standard_base@DV?$string_output_adapter@D@__crt_stdio_output@@@2@@__crt_stdio_output@@AEAA_ND@Z 000000018004d528     libucrt:output.obj
 0002:0001b528       $unwind$?DloadGetSRWLockFunctionPointers@@YAEXZ 000000018004d528     DelayImp:delayhlp.obj
 0002:0001b534       $unwind$?FunctionCallbackWrapper@imp@Nan@@YAXAEBV?$FunctionCallbackInfo@VValue@v8@@@v8@@@Z 000000018004d534     image.obj
 0002:0001b544       $unwind$?New@?$Factory@VFunctionTemplate@v8@@@imp@Nan@@SA?AV?$Local@VFunctionTemplate@v8@@@v8@@P6AXAEBV?$FunctionCallbackInfo@VValue@v8@@@3@@ZV?$Local@VValue@v8@@@5@V?$Local@VSignature@v8@@@5@@Z 000000018004d544     image.obj
 0002:0001b55c       $stateUnwindMap$?New@?$Factory@VFunctionTemplate@v8@@@imp@Nan@@SA?AV?$Local@VFunctionTemplate@v8@@@v8@@P6AXAEBV?$FunctionCallbackInfo@VValue@v8@@@3@@ZV?$Local@VValue@v8@@@5@V?$Local@VSignature@v8@@@5@@Z 000000018004d55c     image.obj
 0002:0001b568       $ip2state$?New@?$Factory@VFunctionTemplate@v8@@@imp@Nan@@SA?AV?$Local@VFunctionTemplate@v8@@@v8@@P6AXAEBV?$FunctionCallbackInfo@VValue@v8@@@3@@ZV?$Local@VValue@v8@@@5@V?$Local@VSignature@v8@@@5@@Z 000000018004d568     image.obj
 0002:0001b580       $unwind$??0Callback@Nan@@QEAA@AEBV?$Local@VFunction@v8@@@v8@@@Z 000000018004d580     image.obj
 0002:0001b598       $stateUnwindMap$??0Callback@Nan@@QEAA@AEBV?$Local@VFunction@v8@@@v8@@@Z 000000018004d598     image.obj
 0002:0001b5b0       $ip2state$??0Callback@Nan@@QEAA@AEBV?$Local@VFunction@v8@@@v8@@@Z 000000018004d5b0     image.obj
 0002:0001b5e8       $unwind$??1?$Persistent@VObject@v8@@V?$NonCopyablePersistentTraits@VObject@v8@@@2@@Nan@@QEAA@XZ 000000018004d5e8     image.obj
 0002:0001b5f8       $ip2state$??1?$Persistent@VObject@v8@@V?$NonCopyablePersistentTraits@VObject@v8@@@2@@Nan@@QEAA@XZ 000000018004d5f8     image.obj
 0002:0001b600       $unwind$?_snprintf@cimg@cimg_library@@YAHQEAD_KQEBDZZ 000000018004d600     image.obj
 0002:0001b600       $unwind$swprintf           000000018004d600     libucrt:assert.obj
 0002:0001b610       $unwind$?_vsnprintf@cimg@cimg_library@@YAHQEAD_KQEBDPEAD@Z 000000018004d610     image.obj
 0002:0001b628       $unwind$??0CImgException@cimg_library@@QEAA@AEBU01@@Z 000000018004d628     image.obj
 0002:0001b63c       $stateUnwindMap$??0CImgInstanceException@cimg_library@@QEAA@AEBU01@@Z 000000018004d63c     image.obj
 0002:0001b63c       $stateUnwindMap$??0CImgIOException@cimg_library@@QEAA@AEBU01@@Z 000000018004d63c     image.obj
 0002:0001b63c       $stateUnwindMap$??0CImgException@cimg_library@@QEAA@AEBU01@@Z 000000018004d63c     image.obj
 0002:0001b63c       $stateUnwindMap$??0CImgArgumentException@cimg_library@@QEAA@AEBU01@@Z 000000018004d63c     image.obj
 0002:0001b648       $ip2state$??0CImgException@cimg_library@@QEAA@AEBU01@@Z 000000018004d648     image.obj
 0002:0001b660       $unwind$??0CImgArgumentException@cimg_library@@QEAA@QEBDZZ 000000018004d660     image.obj
 0002:0001b670       $stateUnwindMap$??0CImgArgumentException@cimg_library@@QEAA@QEBDZZ 000000018004d670     image.obj
 0002:0001b670       $stateUnwindMap$??0CImgIOException@cimg_library@@QEAA@QEBDZZ 000000018004d670     image.obj
 0002:0001b670       $stateUnwindMap$??0CImgInstanceException@cimg_library@@QEAA@QEBDZZ 000000018004d670     image.obj
 0002:0001b698       $ip2state$??0CImgArgumentException@cimg_library@@QEAA@QEBDZZ 000000018004d698     image.obj
 0002:0001b6b8       $unwind$??0CImgInstanceException@cimg_library@@QEAA@QEBDZZ 000000018004d6b8     image.obj
 0002:0001b6c8       $ip2state$??0CImgInstanceException@cimg_library@@QEAA@QEBDZZ 000000018004d6c8     image.obj
 0002:0001b6e8       $unwind$??0CImgIOException@cimg_library@@QEAA@QEBDZZ 000000018004d6e8     image.obj
 0002:0001b6f8       $ip2state$??0CImgIOException@cimg_library@@QEAA@QEBDZZ 000000018004d6f8     image.obj
 0002:0001b718       $chain$1$?Mutex_attr@cimg@cimg_library@@YAAEAUMutex_info@12@XZ 000000018004d718     image.obj
 0002:0001b730       $chain$2$?Mutex_attr@cimg@cimg_library@@YAAEAUMutex_info@12@XZ 000000018004d730     image.obj
 0002:0001b740       $unwind$?warn@cimg@cimg_library@@YAXQEBDZZ 000000018004d740     image.obj
 0002:0001b748       $chain$0$?warn@cimg@cimg_library@@YAXQEBDZZ 000000018004d748     image.obj
 0002:0001b75c       $chain$1$?warn@cimg@cimg_library@@YAXQEBDZZ 000000018004d75c     image.obj
 0002:0001b76c       $unwind$?filenamerand@cimg@cimg_library@@YAPEBDXZ 000000018004d76c     image.obj
 0002:0001b780       $unwind$?destroy_fls@@YAXPEAX@Z 000000018004d780     libucrt:per_thread_data.obj
 0002:0001b780       $unwind$__acrt_locale_free_lc_time_if_unreferenced 000000018004d780     libucrt:locale_refcounting.obj
 0002:0001b780       $unwind$?winformat_string@cimg@cimg_library@@YAXQEAD@Z 000000018004d780     image.obj
 0002:0001b780       $unwind$_free_base         000000018004d780     libucrt:free_base.obj
 0002:0001b780       $unwind$__acrt_locale_free_numeric 000000018004d780     libucrt:initnum.obj
 0002:0001b788       $chain$0$?winformat_string@cimg@cimg_library@@YAXQEAD@Z 000000018004d788     image.obj
 0002:0001b79c       $chain$1$?winformat_string@cimg@cimg_library@@YAXQEAD@Z 000000018004d79c     image.obj
 0002:0001b7ac       $unwind$??0CImgInstanceException@cimg_library@@QEAA@AEBU01@@Z 000000018004d7ac     image.obj
 0002:0001b7ac       $unwind$??0CImgArgumentException@cimg_library@@QEAA@AEBU01@@Z 000000018004d7ac     image.obj
 0002:0001b7ac       $unwind$??0CImgIOException@cimg_library@@QEAA@AEBU01@@Z 000000018004d7ac     image.obj
 0002:0001b7c0       $ip2state$??0CImgIOException@cimg_library@@QEAA@AEBU01@@Z 000000018004d7c0     image.obj
 0002:0001b7c0       $ip2state$??0CImgInstanceException@cimg_library@@QEAA@AEBU01@@Z 000000018004d7c0     image.obj
 0002:0001b7c0       $ip2state$??0CImgArgumentException@cimg_library@@QEAA@AEBU01@@Z 000000018004d7c0     image.obj
 0002:0001b7d8       $unwind$?info@cimg@cimg_library@@YAXXZ 000000018004d7d8     image.obj
 0002:0001b7e8       $unwind$?temporary_path@cimg@cimg_library@@YAPEBDQEBD_N@Z 000000018004d7e8     image.obj
 0002:0001b808       $stateUnwindMap$?temporary_path@cimg@cimg_library@@YAPEBDQEBD_N@Z 000000018004d808     image.obj
 0002:0001b818       $ip2state$?temporary_path@cimg@cimg_library@@YAPEBDQEBD_N@Z 000000018004d818     image.obj
 0002:0001b850       $unwind$_log10_special     000000018004d850     libucrt:log_special.obj
 0002:0001b850       $unwind$_invalid_parameter_noinfo_noreturn 000000018004d850     libucrt:invalid_parameter.obj
 0002:0001b850       $unwind$_invalid_parameter_noinfo 000000018004d850     libucrt:invalid_parameter.obj
 0002:0001b850       $unwind$_itow_s            000000018004d850     libucrt:xtoa.obj
 0002:0001b850       $unwind$_sopen_s           000000018004d850     libucrt:open.obj
 0002:0001b850       $unwind$?programfiles_path@cimg@cimg_library@@YAPEBDQEBD_N@Z 000000018004d850     image.obj
 0002:0001b850       $unwind$wctomb_s           000000018004d850     libucrt:wctomb.obj
 0002:0001b850       $unwind$?medcon_path@cimg@cimg_library@@YAPEBDQEBD_N@Z 000000018004d850     image.obj
 0002:0001b858       $unwind$?__scrt_throw_std_bad_alloc@@YAXXZ 000000018004d858     LIBCMT:throw_bad_alloc.obj
 0002:0001b858       $unwind$?graphicsmagick_path@cimg@cimg_library@@YAPEBDQEBD_N@Z 000000018004d858     image.obj
 0002:0001b858       $unwind$__dcrt_lowio_initialize_console_output 000000018004d858     libucrt:initcon.obj
 0002:0001b858       $unwind$_raise_exc         000000018004d858     libucrt:fpexcept.obj
 0002:0001b858       $unwind$?_Xbad_alloc@std@@YAXXZ 000000018004d858     libcpmt:xthrow.obj
 0002:0001b858       $unwind$_raise_excf        000000018004d858     libucrt:fpexcept.obj
 0002:0001b858       $unwind$?_Xout_of_range@std@@YAXPEBD@Z 000000018004d858     libcpmt:xthrow.obj
 0002:0001b858       $unwind$?imagemagick_path@cimg@cimg_library@@YAPEBDQEBD_N@Z 000000018004d858     image.obj
 0002:0001b858       $unwind$?__scrt_throw_std_bad_array_new_length@@YAXXZ 000000018004d858     LIBCMT:throw_bad_alloc.obj
 0002:0001b858       $unwind$?_Xlength_error@std@@YAXPEBD@Z 000000018004d858     libcpmt:xthrow.obj
 0002:0001b860       $chain$0$?imagemagick_path@cimg@cimg_library@@YAPEBDQEBD_N@Z 000000018004d860     image.obj
 0002:0001b874       $chain$5$?imagemagick_path@cimg@cimg_library@@YAPEBDQEBD_N@Z 000000018004d874     image.obj
 0002:0001b898       $chain$6$?imagemagick_path@cimg@cimg_library@@YAPEBDQEBD_N@Z 000000018004d898     image.obj
 0002:0001b8b8       $chain$7$?imagemagick_path@cimg@cimg_library@@YAPEBDQEBD_N@Z 000000018004d8b8     image.obj
 0002:0001b8d4       $chain$8$?imagemagick_path@cimg@cimg_library@@YAPEBDQEBD_N@Z 000000018004d8d4     image.obj
 0002:0001b8ec       $chain$9$?imagemagick_path@cimg@cimg_library@@YAPEBDQEBD_N@Z 000000018004d8ec     image.obj
 0002:0001b900       $chain$10$?imagemagick_path@cimg@cimg_library@@YAPEBDQEBD_N@Z 000000018004d900     image.obj
 0002:0001b910       $chain$0$?graphicsmagick_path@cimg@cimg_library@@YAPEBDQEBD_N@Z 000000018004d910     image.obj
 0002:0001b924       $chain$5$?graphicsmagick_path@cimg@cimg_library@@YAPEBDQEBD_N@Z 000000018004d924     image.obj
 0002:0001b948       $chain$6$?graphicsmagick_path@cimg@cimg_library@@YAPEBDQEBD_N@Z 000000018004d948     image.obj
 0002:0001b968       $chain$7$?graphicsmagick_path@cimg@cimg_library@@YAPEBDQEBD_N@Z 000000018004d968     image.obj
 0002:0001b984       $chain$8$?graphicsmagick_path@cimg@cimg_library@@YAPEBDQEBD_N@Z 000000018004d984     image.obj
 0002:0001b99c       $chain$9$?graphicsmagick_path@cimg@cimg_library@@YAPEBDQEBD_N@Z 000000018004d99c     image.obj
 0002:0001b9b0       $chain$10$?graphicsmagick_path@cimg@cimg_library@@YAPEBDQEBD_N@Z 000000018004d9b0     image.obj
 0002:0001b9c0       $chain$0$?medcon_path@cimg@cimg_library@@YAPEBDQEBD_N@Z 000000018004d9c0     image.obj
 0002:0001b9d4       $chain$1$?medcon_path@cimg@cimg_library@@YAPEBDQEBD_N@Z 000000018004d9d4     image.obj
 0002:0001b9e4       $unwind$wcstol             000000018004d9e4     libucrt:strtox.obj
 0002:0001b9e4       $unwind$??$common_xtox_s@K_W@@YAHKQEA_W_KI_N@Z 000000018004d9e4     libucrt:xtoa.obj
 0002:0001b9e4       $unwind$??0length_error@std@@QEAA@PEBD@Z 000000018004d9e4     libcpmt:xthrow.obj
 0002:0001b9e4       $unwind$?strbuffersize@cimg@cimg_library@@YAPEBDK@Z 000000018004d9e4     image.obj
 0002:0001b9e4       $unwind$??H?$CImg@E@cimg_library@@QEBA?AU01@XZ 000000018004d9e4     resize_worker.obj
 0002:0001b9e4       $unwind$strtol             000000018004d9e4     libucrt:strtox.obj
 0002:0001b9e4       $unwind$??0out_of_range@std@@QEAA@PEBD@Z 000000018004d9e4     libcpmt:xthrow.obj
 0002:0001b9ec       $unwind$??__F?constructor@LwipImage@@0V?$Persistent@VFunctionTemplate@v8@@V?$NonCopyablePersistentTraits@VFunctionTemplate@v8@@@2@@Nan@@A@@YAXXZ 000000018004d9ec     image.obj
 0002:0001b9fc       $stateUnwindMap$??__F?constructor@LwipImage@@0V?$Persistent@VFunctionTemplate@v8@@V?$NonCopyablePersistentTraits@VFunctionTemplate@v8@@@2@@Nan@@A@@YAXXZ 000000018004d9fc     image.obj
 0002:0001ba10       $ip2state$??__F?constructor@LwipImage@@0V?$Persistent@VFunctionTemplate@v8@@V?$NonCopyablePersistentTraits@VFunctionTemplate@v8@@@2@@Nan@@A@@YAXXZ 000000018004da10     image.obj
 0002:0001ba18       $unwind$?Init@LwipImage@@SAXV?$Local@VObject@v8@@@v8@@@Z 000000018004da18     image.obj
 0002:0001ba30       $stateUnwindMap$?Init@LwipImage@@SAXV?$Local@VObject@v8@@@v8@@@Z 000000018004da30     image.obj
 0002:0001bab0       $ip2state$?Init@LwipImage@@SAXV?$Local@VObject@v8@@@v8@@@Z 000000018004dab0     image.obj
 0002:0001bba8       $unwind$??0LwipImage@@QEAA@PEAE_K1@Z 000000018004dba8     image.obj
 0002:0001bbc4       $stateUnwindMap$??0LwipImage@@QEAA@PEAE_K1@Z 000000018004dbc4     image.obj
 0002:0001bbd8       $ip2state$??0LwipImage@@QEAA@PEAE_K1@Z 000000018004dbd8     image.obj
 0002:0001bc00       $unwind$_write$fin$0       000000018004dc00     libucrt:write.obj
 0002:0001bc00       $unwind$?dtor$0@?0??get_crop@?$CImg@E@cimg_library@@QEBA?AU12@HHHHHHHH_N@Z@4HA 000000018004dc00     resize_worker.obj
 0002:0001bc00       $unwind$?dtor$72@?0??get_resize@?$CImg@E@cimg_library@@QEBA?AU12@HHHHHIMMMM@Z@4HA 000000018004dc00     resize_worker.obj
 0002:0001bc00       $unwind$?dtor$1@?0??resize@LwipImage@@SAXAEBV?$FunctionCallbackInfo@VValue@v8@@@Nan@@@Z@4HA 000000018004dc00     image.obj
 0002:0001bc00       $unwind$?dtor$1@?0??crop@LwipImage@@SAXAEBV?$FunctionCallbackInfo@VValue@v8@@@Nan@@@Z@4HA 000000018004dc00     image.obj
 0002:0001bc00       $unwind$?dtor$39@?0??get_resize@?$CImg@E@cimg_library@@QEBA?AU12@HHHHHIMMMM@Z@4HA 000000018004dc00     resize_worker.obj
 0002:0001bc00       $unwind$?dtor$49@?0??get_resize@?$CImg@E@cimg_library@@QEBA?AU12@HHHHHIMMMM@Z@4HA 000000018004dc00     resize_worker.obj
 0002:0001bc00       $unwind$?fin$1@?0??common_exit@@YAXHW4_crt_exit_cleanup_mode@@W4_crt_exit_return_mode@@@Z@4HA 000000018004dc00     libucrt:exit.obj
 0002:0001bc00       $unwind$?fin$0@?0???$?RV<lambda_aa279a7bcb127014629d5b1d62c7325d>@@AEAV<lambda_0a64b6a4deda75c01876f29c44fc5eb3>@@V<lambda_3323e69fbefe9d1a11713e670d47cdfa>@@@?$__crt_seh_guarded_call@H@@QEAAH$$QEAV<lambda_aa279a7bcb127014629d5b1d62c7325d>@@AEAV<lambda_0a64b6a4deda75c01876f29c44fc5eb3>@@$$QEAV<lambda_3323e69fbefe9d1a11713e670d47cdfa>@@@Z@4HA 000000018004dc00     libucrt:output.obj
 0002:0001bc00       $unwind$?filt$0@?0??common_exit@@YAXHW4_crt_exit_cleanup_mode@@W4_crt_exit_return_mode@@@Z@4HA 000000018004dc00     libucrt:exit.obj
 0002:0001bc00       $unwind$?dtor$2@?0??pad@LwipImage@@SAXAEBV?$FunctionCallbackInfo@VValue@v8@@@Nan@@@Z@4HA 000000018004dc00     image.obj
 0002:0001bc00       $unwind$?dtor$1@?0??paste@LwipImage@@SAXAEBV?$FunctionCallbackInfo@VValue@v8@@@Nan@@@Z@4HA 000000018004dc00     image.obj
 0002:0001bc00       $unwind$?dtor$1@?0??pad@LwipImage@@SAXAEBV?$FunctionCallbackInfo@VValue@v8@@@Nan@@@Z@4HA 000000018004dc00     image.obj
 0002:0001bc00       $unwind$?dtor$52@?0??get_resize@?$CImg@E@cimg_library@@QEBA?AU12@HHHHHIMMMM@Z@4HA 000000018004dc00     resize_worker.obj
 0002:0001bc00       $unwind$?dtor$73@?0??get_resize@?$CImg@E@cimg_library@@QEBA?AU12@HHHHHIMMMM@Z@4HA 000000018004dc00     resize_worker.obj
 0002:0001bc00       $unwind$?dtor$50@?0??get_resize@?$CImg@E@cimg_library@@QEBA?AU12@HHHHHIMMMM@Z@4HA 000000018004dc00     resize_worker.obj
 0002:0001bc00       $unwind$?dtor$33@?0??get_resize@?$CImg@E@cimg_library@@QEBA?AU12@HHHHHIMMMM@Z@4HA 000000018004dc00     resize_worker.obj
 0002:0001bc00       $unwind$?fin$0@?0??__acrt_stdio_allocate_stream@@YA?AV__crt_stdio_stream@@XZ@4HA 000000018004dc00     libucrt:stream.obj
 0002:0001bc00       $unwind$?dtor$2@?0??paste@LwipImage@@SAXAEBV?$FunctionCallbackInfo@VValue@v8@@@Nan@@@Z@4HA 000000018004dc00     image.obj
 0002:0001bc00       $unwind$?dtor$2@?0??setPixel@LwipImage@@SAXAEBV?$FunctionCallbackInfo@VValue@v8@@@Nan@@@Z@4HA 000000018004dc00     image.obj
 0002:0001bc00       $unwind$?dtor$96@?0??get_resize@?$CImg@E@cimg_library@@QEBA?AU12@HHHHHIMMMM@Z@4HA 000000018004dc00     resize_worker.obj
 0002:0001bc00       $unwind$_query_new_handler$fin$0 000000018004dc00     libucrt:new_handler.obj
 0002:0001bc00       $unwind$__CxxCallCatchBlock$filt$0 000000018004dc00     libvcruntime:frame.obj
 0002:0001bc00       $unwind$?fin$0@?0???$?RV<lambda_fb3a7dec4e47f37f22dae91bb15c9095>@@AEAV<lambda_698284760c8add0bfb0756c19673e34b>@@V<lambda_dfb8eca1e75fef3034a8fb18dd509707>@@@?$__crt_seh_guarded_call@X@@QEAAX$$QEAV<lambda_fb3a7dec4e47f37f22dae91bb15c9095>@@AEAV<lambda_698284760c8add0bfb0756c19673e34b>@@$$QEAV<lambda_dfb8eca1e75fef3034a8fb18dd509707>@@@Z@4HA 000000018004dc00     libucrt:per_thread_data.obj
 0002:0001bc00       $unwind$?dtor$51@?0??get_resize@?$CImg@E@cimg_library@@QEBA?AU12@HHHHHIMMMM@Z@4HA 000000018004dc00     resize_worker.obj
 0002:0001bc00       $unwind$?dtor$1@?0??setPixel@LwipImage@@SAXAEBV?$FunctionCallbackInfo@VValue@v8@@@Nan@@@Z@4HA 000000018004dc00     image.obj
 0002:0001bc00       $unwind$?fin$0@?0???$?RV<lambda_46352004c1216016012b18bd6f87e700>@@AEAV<lambda_3bd07e1a1191394380780325891bf33f>@@V<lambda_334532d3f185bcaa59b5be82d7d22bff>@@@?$__crt_seh_guarded_call@X@@QEAAX$$QEAV<lambda_46352004c1216016012b18bd6f87e700>@@AEAV<lambda_3bd07e1a1191394380780325891bf33f>@@$$QEAV<lambda_334532d3f185bcaa59b5be82d7d22bff>@@@Z@4HA 000000018004dc00     libucrt:per_thread_data.obj
 0002:0001bc00       $unwind$?dtor$71@?0??get_resize@?$CImg@E@cimg_library@@QEBA?AU12@HHHHHIMMMM@Z@4HA 000000018004dc00     resize_worker.obj
 0002:0001bc00       $unwind$?fin$0@?0???$?RV<lambda_c36588078e9f5dfd39652860aa6b3aaf>@@AEAV<lambda_ec61778202f4f5fc7e7711acc23c3bca>@@V<lambda_dc9d2797ccde5d239b4a0efae8ebd7db>@@@?$__crt_seh_guarded_call@P6AXH@Z@@QEAAP6AXH@Z$$QEAV<lambda_c36588078e9f5dfd39652860aa6b3aaf>@@AEAV<lambda_ec61778202f4f5fc7e7711acc23c3bca>@@$$QEAV<lambda_dc9d2797ccde5d239b4a0efae8ebd7db>@@@Z@4HA 000000018004dc00     libucrt:signal.obj
 0002:0001bc00       $unwind$?dtor$38@?0??get_resize@?$CImg@E@cimg_library@@QEBA?AU12@HHHHHIMMMM@Z@4HA 000000018004dc00     resize_worker.obj
 0002:0001bc00       $unwind$?dtor$0@?0??Execute@RotateWorker@@UEAAXXZ@4HA 000000018004dc00     rotate_worker.obj
 0002:0001bc00       $unwind$?fin$0@?0???$?RV<lambda_5e887d1dcbef67a5eb4283622ba103bf>@@AEAV<lambda_4466841279450cc726390878d4a41900>@@V<lambda_341c25c0346d94847f1f3c463c57e077>@@@?$__crt_seh_guarded_call@X@@QEAAX$$QEAV<lambda_5e887d1dcbef67a5eb4283622ba103bf>@@AEAV<lambda_4466841279450cc726390878d4a41900>@@$$QEAV<lambda_341c25c0346d94847f1f3c463c57e077>@@@Z@4HA 000000018004dc00     libucrt:per_thread_data.obj
 0002:0001bc00       $unwind$_ctrlfp$filt$0     000000018004dc00     libucrt:fpctrl.obj
 0002:0001bc00       $unwind$?dtor$1@?0??mirror@LwipImage@@SAXAEBV?$FunctionCallbackInfo@VValue@v8@@@Nan@@@Z@4HA 000000018004dc00     image.obj
 0002:0001bc00       $unwind$?fin$0@?0???$common_getenv@D@@YAPEADQEBD@Z@4HA 000000018004dc00     libucrt:getenv.obj
 0002:0001bc00       $unwind$?dtor$74@?0??get_resize@?$CImg@E@cimg_library@@QEBA?AU12@HHHHHIMMMM@Z@4HA 000000018004dc00     resize_worker.obj
 0002:0001bc00       $unwind$?dtor$95@?0??get_resize@?$CImg@E@cimg_library@@QEBA?AU12@HHHHHIMMMM@Z@4HA 000000018004dc00     resize_worker.obj
 0002:0001bc00       $unwind$?dtor$2@?0??sharpen@LwipImage@@SAXAEBV?$FunctionCallbackInfo@VValue@v8@@@Nan@@@Z@4HA 000000018004dc00     image.obj
 0002:0001bc00       $unwind$?dtor$36@?0??get_resize@?$CImg@E@cimg_library@@QEBA?AU12@HHHHHIMMMM@Z@4HA 000000018004dc00     resize_worker.obj
 0002:0001bc00       $unwind$__acrt_update_thread_multibyte_data$fin$0 000000018004dc00     libucrt:mbctype.obj
 0002:0001bc00       $unwind$?fin$0@?0???$?RV<lambda_e24bbb7b643b32fcea6fa61b31d4c984>@@AEAV<lambda_275893d493268fdec8709772e3fcec0e>@@V<lambda_9d71df4d7cf3f480f8d633942495c3b0>@@@?$__crt_seh_guarded_call@H@@QEAAH$$QEAV<lambda_e24bbb7b643b32fcea6fa61b31d4c984>@@AEAV<lambda_275893d493268fdec8709772e3fcec0e>@@$$QEAV<lambda_9d71df4d7cf3f480f8d633942495c3b0>@@@Z@4HA 000000018004dc00     libucrt:onexit.obj
 0002:0001bc00       $unwind$_IsNonwritableInCurrentImage$filt$0 000000018004dc00     LIBCMT:pesect.obj
 0002:0001bc00       $unwind$?dtor$1@?0??opacify@LwipImage@@SAXAEBV?$FunctionCallbackInfo@VValue@v8@@@Nan@@@Z@4HA 000000018004dc00     image.obj
 0002:0001bc00       $unwind$?dtor$1@?0??sharpen@LwipImage@@SAXAEBV?$FunctionCallbackInfo@VValue@v8@@@Nan@@@Z@4HA 000000018004dc00     image.obj
 0002:0001bc00       $unwind$?dtor$40@?0??get_resize@?$CImg@E@cimg_library@@QEBA?AU12@HHHHHIMMMM@Z@4HA 000000018004dc00     resize_worker.obj
 0002:0001bc00       $unwind$raise$fin$0        000000018004dc00     libucrt:signal.obj
 0002:0001bc00       $unwind$?dtor$0@?0??Execute@PadWorker@@UEAAXXZ@4HA 000000018004dc00     pad_worker.obj
 0002:0001bc00       $unwind$?dtor$100@?0??get_resize@?$CImg@E@cimg_library@@QEBA?AU12@HHHHHIMMMM@Z@4HA 000000018004dc00     resize_worker.obj
 0002:0001bc00       $unwind$?fin$0@?0???$?RV<lambda_72d1df2b273a38828b1ce30cbf4cdab5>@@AEAV<lambda_876a65b173b8412d3a47c70a915b0cf4>@@V<lambda_41932305e351933ebe8f8be3ed8bb5dc>@@@?$__crt_seh_guarded_call@X@@QEAAX$$QEAV<lambda_72d1df2b273a38828b1ce30cbf4cdab5>@@AEAV<lambda_876a65b173b8412d3a47c70a915b0cf4>@@$$QEAV<lambda_41932305e351933ebe8f8be3ed8bb5dc>@@@Z@4HA 000000018004dc00     libucrt:per_thread_data.obj
 0002:0001bc00       $unwind$__FrameUnwindToState$filt$0 000000018004dc00     libvcruntime:frame.obj
 0002:0001bc00       $unwind$?dtor$99@?0??get_resize@?$CImg@E@cimg_library@@QEBA?AU12@HHHHHIMMMM@Z@4HA 000000018004dc00     resize_worker.obj
 0002:0001bc00       $unwind$?dtor$1@?0??New@LwipImage@@SAXAEBV?$FunctionCallbackInfo@VValue@v8@@@Nan@@@Z@4HA 000000018004dc00     image.obj
 0002:0001bc00       $unwind$?dtor$94@?0??get_resize@?$CImg@E@cimg_library@@QEBA?AU12@HHHHHIMMMM@Z@4HA 000000018004dc00     resize_worker.obj
 0002:0001bc00       $unwind$__FrameUnwindToState$fin$1 000000018004dc00     libvcruntime:frame.obj
 0002:0001bc00       $unwind$__DestructExceptionObject$filt$0 000000018004dc00     libvcruntime:frame.obj
 0002:0001bc00       $unwind$?fin$0@?0???$?RV<lambda_99476a1ad63dd22509b5d3e65b0ffc95>@@AEAV<lambda_ad1ced32f4ac17aa236e5ef05d6b3b7c>@@V<lambda_f7424dd8d45958661754dc4f2697e9c3>@@@?$__crt_seh_guarded_call@X@@QEAAX$$QEAV<lambda_99476a1ad63dd22509b5d3e65b0ffc95>@@AEAV<lambda_ad1ced32f4ac17aa236e5ef05d6b3b7c>@@$$QEAV<lambda_f7424dd8d45958661754dc4f2697e9c3>@@@Z@4HA 000000018004dc00     libucrt:mbctype.obj
 0002:0001bc00       $unwind$?dtor$97@?0??get_resize@?$CImg@E@cimg_library@@QEBA?AU12@HHHHHIMMMM@Z@4HA 000000018004dc00     resize_worker.obj
 0002:0001bc00       $unwind$?fin$0@?0???$?RV<lambda_7b91131dde12e1c3dfc74ff76b3f2eac>@@AEAV<lambda_dd75445284c072d0bd3768540cc698fa>@@V<lambda_16bc4ecb55b4718497c16bceaea2ceaf>@@@?$__crt_seh_guarded_call@H@@QEAAH$$QEAV<lambda_7b91131dde12e1c3dfc74ff76b3f2eac>@@AEAV<lambda_dd75445284c072d0bd3768540cc698fa>@@$$QEAV<lambda_16bc4ecb55b4718497c16bceaea2ceaf>@@@Z@4HA 000000018004dc00     libucrt:output.obj
 0002:0001bc00       $unwind$?dtor$55@?0??get_resize@?$CImg@E@cimg_library@@QEBA?AU12@HHHHHIMMMM@Z@4HA 000000018004dc00     resize_worker.obj
 0002:0001bc00       $unwind$?dtor$98@?0??get_resize@?$CImg@E@cimg_library@@QEBA?AU12@HHHHHIMMMM@Z@4HA 000000018004dc00     resize_worker.obj
 0002:0001bc00       $unwind$?dtor$54@?0??get_resize@?$CImg@E@cimg_library@@QEBA?AU12@HHHHHIMMMM@Z@4HA 000000018004dc00     resize_worker.obj
 0002:0001bc00       $unwind$?fin$0@?0???$?RV<lambda_b521505b218e5242e90febf6bfebc422>@@AEAV<lambda_6978c1fb23f02e42e1d9e99668cc68aa>@@V<lambda_314360699dd331753a4119843814e9a7>@@@?$__crt_seh_guarded_call@H@@QEAAH$$QEAV<lambda_b521505b218e5242e90febf6bfebc422>@@AEAV<lambda_6978c1fb23f02e42e1d9e99668cc68aa>@@$$QEAV<lambda_314360699dd331753a4119843814e9a7>@@@Z@4HA 000000018004dc00     libucrt:commit.obj
 0002:0001bc00       $unwind$__acrt_lowio_ensure_fh_exists$fin$0 000000018004dc00     libucrt:osfinfo.obj
 0002:0001bc00       $unwind$_fcloseall$fin$0   000000018004dc00     libucrt:closeall.obj
 0002:0001bc00       $unwind$__acrt_uninitialize_locale$fin$0 000000018004dc00     libucrt:wsetlocale.obj
 0002:0001bc00       $unwind$?fin$0@?0???$common_lseek@_J@@YA_JH_JH@Z@4HA 000000018004dc00     libucrt:lseek.obj
 0002:0001bc00       $unwind$common_control87$filt$0 000000018004dc00     libucrt:ieee.obj
 0002:0001bc00       $unwind$?dtor$75@?0??get_resize@?$CImg@E@cimg_library@@QEBA?AU12@HHHHHIMMMM@Z@4HA 000000018004dc00     resize_worker.obj
 0002:0001bc00       $unwind$?dtor$53@?0??get_resize@?$CImg@E@cimg_library@@QEBA?AU12@HHHHHIMMMM@Z@4HA 000000018004dc00     resize_worker.obj
 0002:0001bc00       $unwind$__acrt_update_thread_locale_data$fin$0 000000018004dc00     libucrt:locale_refcounting.obj
 0002:0001bc00       $unwind$?dtor$1@?0??blur@LwipImage@@SAXAEBV?$FunctionCallbackInfo@VValue@v8@@@Nan@@@Z@4HA 000000018004dc00     image.obj
 0002:0001bc00       $unwind$fclose$fin$0       000000018004dc00     libucrt:fclose.obj
 0002:0001bc00       $unwind$?dtor$2@?0??hslaAdj@LwipImage@@SAXAEBV?$FunctionCallbackInfo@VValue@v8@@@Nan@@@Z@4HA 000000018004dc00     image.obj
 0002:0001bc00       $unwind$?dtor$2@?0??opacify@LwipImage@@SAXAEBV?$FunctionCallbackInfo@VValue@v8@@@Nan@@@Z@4HA 000000018004dc00     image.obj
 0002:0001bc00       $unwind$?fin$0@?0???$?RV<lambda_7a5ef57ff966f610505f1d28a3d40618>@@AEAV<lambda_b721fa326cdb32351d23dfa67958c160>@@V<lambda_5e0fb27672408a07956fe59e48ccb2aa>@@@?$__crt_seh_guarded_call@H@@QEAAH$$QEAV<lambda_7a5ef57ff966f610505f1d28a3d40618>@@AEAV<lambda_b721fa326cdb32351d23dfa67958c160>@@$$QEAV<lambda_5e0fb27672408a07956fe59e48ccb2aa>@@@Z@4HA 000000018004dc00     libucrt:setvbuf.obj
 0002:0001bc00       $unwind$common_flush_all$fin$1 000000018004dc00     libucrt:fflush.obj
 0002:0001bc00       $unwind$common_flush_all$fin$0 000000018004dc00     libucrt:fflush.obj
 0002:0001bc00       $unwind$?dtor$2@?0??blur@LwipImage@@SAXAEBV?$FunctionCallbackInfo@VValue@v8@@@Nan@@@Z@4HA 000000018004dc00     image.obj
 0002:0001bc00       $unwind$?dtor$37@?0??get_resize@?$CImg@E@cimg_library@@QEBA?AU12@HHHHHIMMMM@Z@4HA 000000018004dc00     resize_worker.obj
 0002:0001bc00       $unwind$__acrt_initialize_lowio$fin$0 000000018004dc00     libucrt:ioinit.obj
 0002:0001bc00       $unwind$?dtor$93@?0??get_resize@?$CImg@E@cimg_library@@QEBA?AU12@HHHHHIMMMM@Z@4HA 000000018004dc00     resize_worker.obj
 0002:0001bc00       $unwind$?dtor$56@?0??get_resize@?$CImg@E@cimg_library@@QEBA?AU12@HHHHHIMMMM@Z@4HA 000000018004dc00     resize_worker.obj
 0002:0001bc00       $unwind$?dtor$2@?0??rotate@LwipImage@@SAXAEBV?$FunctionCallbackInfo@VValue@v8@@@Nan@@@Z@4HA 000000018004dc00     image.obj
 0002:0001bc00       $unwind$?dtor$2@?0??mirror@LwipImage@@SAXAEBV?$FunctionCallbackInfo@VValue@v8@@@Nan@@@Z@4HA 000000018004dc00     image.obj
 0002:0001bc00       $unwind$?dtor$2@?0??resize@LwipImage@@SAXAEBV?$FunctionCallbackInfo@VValue@v8@@@Nan@@@Z@4HA 000000018004dc00     image.obj
 0002:0001bc00       $unwind$?dtor$2@?0??crop@LwipImage@@SAXAEBV?$FunctionCallbackInfo@VValue@v8@@@Nan@@@Z@4HA 000000018004dc00     image.obj
 0002:0001bc00       $unwind$?dtor$1@?0??rotate@LwipImage@@SAXAEBV?$FunctionCallbackInfo@VValue@v8@@@Nan@@@Z@4HA 000000018004dc00     image.obj
 0002:0001bc00       $unwind$?dtor$35@?0??get_resize@?$CImg@E@cimg_library@@QEBA?AU12@HHHHHIMMMM@Z@4HA 000000018004dc00     resize_worker.obj
 0002:0001bc00       $unwind$?fin$0@?0???$common_fsopen@D@@YAPEAU_iobuf@@QEBD0H@Z@4HA 000000018004dc00     libucrt:fopen.obj
 0002:0001bc00       $unwind$fflush$fin$0       000000018004dc00     libucrt:fflush.obj
 0002:0001bc00       $unwind$?fin$0@?0??dllmain_crt_process_attach@@YAHQEAUHINSTANCE__@@QEAX@Z@4HA 000000018004dc00     LIBCMT:dll_dllmain.obj
 0002:0001bc00       $unwind$?fin$0@?0???$?RV<lambda_bfedae4ebbf01fab1bb6dcc6a9e276e0>@@AEAV<lambda_2fe9b910cf3cbf4a0ab98a02ba45b3ec>@@V<lambda_237c231691f317818eb88cc1d5d642d6>@@@?$__crt_seh_guarded_call@H@@QEAAH$$QEAV<lambda_bfedae4ebbf01fab1bb6dcc6a9e276e0>@@AEAV<lambda_2fe9b910cf3cbf4a0ab98a02ba45b3ec>@@$$QEAV<lambda_237c231691f317818eb88cc1d5d642d6>@@@Z@4HA 000000018004dc00     libucrt:close.obj
 0002:0001bc00       $unwind$?dtor$78@?0??get_resize@?$CImg@E@cimg_library@@QEBA?AU12@HHHHHIMMMM@Z@4HA 000000018004dc00     resize_worker.obj
 0002:0001bc00       $unwind$?dtor$1@?0???0LwipImage@@QEAA@PEAE_K1@Z@4HA 000000018004dc00     image.obj
 0002:0001bc00       $unwind$?fin$0@?0??dllmain_crt_process_detach@@YAH_N@Z@4HA 000000018004dc00     LIBCMT:dll_dllmain.obj
 0002:0001bc00       $unwind$?dtor$1@?0??hslaAdj@LwipImage@@SAXAEBV?$FunctionCallbackInfo@VValue@v8@@@Nan@@@Z@4HA 000000018004dc00     image.obj
 0002:0001bc00       $unwind$_alloc_osfhnd$fin$0 000000018004dc00     libucrt:osfinfo.obj
 0002:0001bc00       $unwind$?fin$0@?0???$?RV<lambda_b8c45f8f788dd370798f47cfe8ac3a86>@@AEAV<lambda_4e60a939b0d047cfe11ddc22648dfba9>@@V<lambda_332c3edc96d0294ec56c57d38c1cdfd5>@@@?$__crt_seh_guarded_call@H@@QEAAH$$QEAV<lambda_b8c45f8f788dd370798f47cfe8ac3a86>@@AEAV<lambda_4e60a939b0d047cfe11ddc22648dfba9>@@$$QEAV<lambda_332c3edc96d0294ec56c57d38c1cdfd5>@@@Z@4HA 000000018004dc00     libucrt:onexit.obj
 0002:0001bc00       $unwind$?dtor$77@?0??get_resize@?$CImg@E@cimg_library@@QEBA?AU12@HHHHHIMMMM@Z@4HA 000000018004dc00     resize_worker.obj
 0002:0001bc00       $unwind$?dtor$34@?0??get_resize@?$CImg@E@cimg_library@@QEBA?AU12@HHHHHIMMMM@Z@4HA 000000018004dc00     resize_worker.obj
 0002:0001bc00       $unwind$?dtor$76@?0??get_resize@?$CImg@E@cimg_library@@QEBA?AU12@HHHHHIMMMM@Z@4HA 000000018004dc00     resize_worker.obj
 0002:0001bc08       $unwind$?assign@?$basic_string@DU?$char_traits@D@std@@V?$allocator@D@2@@std@@QEAAAEAV12@PEBD_K@Z 000000018004dc08     mirror_worker.obj
 0002:0001bc08       $unwind$?SetErrorMessage@AsyncWorker@Nan@@IEAAXPEBD@Z 000000018004dc08     resize_worker.obj
 0002:0001bc08       $unwind$?TraceLoggingRegister@__vcrt_trace_logging_provider@@YAJPEBU_TlgProvider_t@1@PEBU_GUID@@P6AX1KE_K2PEAU_EVENT_FILTER_DESCRIPTOR@@PEAX@Z4@Z 000000018004dc08     libvcruntime:telemetry.obj
 0002:0001bc08       $unwind$_DllMainCRTStartup 000000018004dc08     LIBCMT:dll_dllmain.obj
 0002:0001bc08       $unwind$??$common_lseek_nolock@_J@@YA_JH_JH@Z 000000018004dc08     libucrt:lseek.obj
 0002:0001bc08       $unwind$?type_case_n@?$output_processor@_WV?$string_output_adapter@_W@__crt_stdio_output@@V?$standard_base@_WV?$string_output_adapter@_W@__crt_stdio_output@@@2@@__crt_stdio_output@@AEAA_NXZ 000000018004dc08     libucrt:output.obj
 0002:0001bc08       $unwind$?type_case_n@?$output_processor@DV?$stream_output_adapter@D@__crt_stdio_output@@V?$standard_base@DV?$stream_output_adapter@D@__crt_stdio_output@@@2@@__crt_stdio_output@@AEAA_NXZ 000000018004dc08     libucrt:output.obj
 0002:0001bc08       $unwind$??_GLwipImage@@UEAAPEAXI@Z 000000018004dc08     image.obj
 0002:0001bc08       $unwind$?free_crt_array_internal@@YAXQEAPEBX_K@Z 000000018004dc08     libucrt:inittime.obj
 0002:0001bc08       $unwind$__acrt_getptd_noexit 000000018004dc08     libucrt:per_thread_data.obj
 0002:0001bc08       $unwind$__acrt_stdio_flush_nolock 000000018004dc08     libucrt:fflush.obj
 0002:0001bc08       $unwind$?__scrt_initialize_thread_safe_statics@@YAHXZ 000000018004dc08     LIBCMT:thread_safe_statics.obj
 0002:0001bc08       $unwind$?type_case_Z@?$output_processor@_WV?$stream_output_adapter@_W@__crt_stdio_output@@V?$standard_base@_WV?$stream_output_adapter@_W@__crt_stdio_output@@@2@@__crt_stdio_output@@AEAA_NXZ 000000018004dc08     libucrt:output.obj
 0002:0001bc08       $unwind$?type_case_s@?$output_processor@_WV?$stream_output_adapter@_W@__crt_stdio_output@@V?$standard_base@_WV?$stream_output_adapter@_W@__crt_stdio_output@@@2@@__crt_stdio_output@@AEAA_NXZ 000000018004dc08     libucrt:output.obj
 0002:0001bc08       $unwind$?type_case_s@?$output_processor@DV?$stream_output_adapter@D@__crt_stdio_output@@V?$standard_base@DV?$stream_output_adapter@D@__crt_stdio_output@@@2@@__crt_stdio_output@@AEAA_NXZ 000000018004dc08     libucrt:output.obj
 0002:0001bc08       $unwind$_Init_thread_wait  000000018004dc08     LIBCMT:thread_safe_statics.obj
 0002:0001bc08       $unwind$__vcrt_FlsSetValue 000000018004dc08     libvcruntime:winapi_downlevel.obj
 0002:0001bc08       $unwind$?type_case_Z@?$output_processor@DV?$stream_output_adapter@D@__crt_stdio_output@@V?$standard_base@DV?$stream_output_adapter@D@__crt_stdio_output@@@2@@__crt_stdio_output@@AEAA_NXZ 000000018004dc08     libucrt:output.obj
 0002:0001bc08       $unwind$__acrt_LocaleNameToLCID 000000018004dc08     libucrt:winapi_thunks.obj
 0002:0001bc08       $unwind$??$common_getenv_nolock@D@@YAPEADQEBD@Z 000000018004dc08     libucrt:getenv.obj
 0002:0001bc08       $unwind$?type_case_n@?$output_processor@_WV?$stream_output_adapter@_W@__crt_stdio_output@@V?$standard_base@_WV?$stream_output_adapter@_W@__crt_stdio_output@@@2@@__crt_stdio_output@@AEAA_NXZ 000000018004dc08     libucrt:output.obj
 0002:0001bc08       $unwind$?type_case_n@?$output_processor@DV?$string_output_adapter@D@__crt_stdio_output@@V?$format_validation_base@DV?$string_output_adapter@D@__crt_stdio_output@@@2@@__crt_stdio_output@@AEAA_NXZ 000000018004dc08     libucrt:output.obj
 0002:0001bc08       $unwind$?type_case_s@?$output_processor@_WV?$string_output_adapter@_W@__crt_stdio_output@@V?$standard_base@_WV?$string_output_adapter@_W@__crt_stdio_output@@@2@@__crt_stdio_output@@AEAA_NXZ 000000018004dc08     libucrt:output.obj
 0002:0001bc08       $unwind$_initterm_e        000000018004dc08     libucrt:initterm.obj
 0002:0001bc08       $unwind$?type_case_Z@?$output_processor@_WV?$string_output_adapter@_W@__crt_stdio_output@@V?$standard_base@_WV?$string_output_adapter@_W@__crt_stdio_output@@@2@@__crt_stdio_output@@AEAA_NXZ 000000018004dc08     libucrt:output.obj
 0002:0001bc08       $unwind$__acrt_stdio_flush_and_write_narrow_nolock 000000018004dc08     libucrt:_flsbuf.obj
 0002:0001bc08       $unwind$_RTC_Terminate     000000018004dc08     LIBCMT:_initsect_.obj
 0002:0001bc08       $unwind$?type_case_s@?$output_processor@DV?$string_output_adapter@D@__crt_stdio_output@@V?$format_validation_base@DV?$string_output_adapter@D@__crt_stdio_output@@@2@@__crt_stdio_output@@AEAA_NXZ 000000018004dc08     libucrt:output.obj
 0002:0001bc08       $unwind$_RTC_Initialize    000000018004dc08     LIBCMT:_initsect_.obj
 0002:0001bc08       $unwind$?type_case_Z@?$output_processor@DV?$string_output_adapter@D@__crt_stdio_output@@V?$format_validation_base@DV?$string_output_adapter@D@__crt_stdio_output@@@2@@__crt_stdio_output@@AEAA_NXZ 000000018004dc08     libucrt:output.obj
 0002:0001bc08       $unwind$__acrt_stdio_flush_and_write_wide_nolock 000000018004dc08     libucrt:_flsbuf.obj
 0002:0001bc08       $unwind$__acrt_execute_uninitializers 000000018004dc08     libucrt:shared_initialization.obj
 0002:0001bc08       $unwind$_exception_enabled 000000018004dc08     libucrt:libm_error.obj
 0002:0001bc08       $unwind$__acrt_FlsSetValue 000000018004dc08     libucrt:winapi_thunks.obj
 0002:0001bc08       $unwind$memcpy_s           000000018004dc08     libucrt:cfout.obj
 0002:0001bc08       $unwind$?type_case_s@?$output_processor@DV?$string_output_adapter@D@__crt_stdio_output@@V?$standard_base@DV?$string_output_adapter@D@__crt_stdio_output@@@2@@__crt_stdio_output@@AEAA_NXZ 000000018004dc08     libucrt:output.obj
 0002:0001bc08       $unwind$?type_case_n@?$output_processor@DV?$string_output_adapter@D@__crt_stdio_output@@V?$standard_base@DV?$string_output_adapter@D@__crt_stdio_output@@@2@@__crt_stdio_output@@AEAA_NXZ 000000018004dc08     libucrt:output.obj
 0002:0001bc08       $unwind$??R<lambda_ad1ced32f4ac17aa236e5ef05d6b3b7c>@@QEBAXXZ 000000018004dc08     libucrt:mbctype.obj
 0002:0001bc08       $unwind$__vcrt_getptd_noexit 000000018004dc08     libvcruntime:per_thread_data.obj
 0002:0001bc08       $unwind$?type_case_Z@?$output_processor@DV?$string_output_adapter@D@__crt_stdio_output@@V?$standard_base@DV?$string_output_adapter@D@__crt_stdio_output@@@2@@__crt_stdio_output@@AEAA_NXZ 000000018004dc08     libucrt:output.obj
 0002:0001bc18       $unwind$?New@LwipImage@@SAXAEBV?$FunctionCallbackInfo@VValue@v8@@@Nan@@@Z 000000018004dc18     image.obj
 0002:0001bc38       $stateUnwindMap$?New@LwipImage@@SAXAEBV?$FunctionCallbackInfo@VValue@v8@@@Nan@@@Z 000000018004dc38     image.obj
 0002:0001bc40       $ip2state$?New@LwipImage@@SAXAEBV?$FunctionCallbackInfo@VValue@v8@@@Nan@@@Z 000000018004dc40     image.obj
 0002:0001bc58       $unwind$?width@LwipImage@@SAXAEBV?$FunctionCallbackInfo@VValue@v8@@@Nan@@@Z 000000018004dc58     image.obj
 0002:0001bc58       $unwind$?height@LwipImage@@SAXAEBV?$FunctionCallbackInfo@VValue@v8@@@Nan@@@Z 000000018004dc58     image.obj
 0002:0001bc64       $unwind$?getPixel@LwipImage@@SAXAEBV?$FunctionCallbackInfo@VValue@v8@@@Nan@@@Z 000000018004dc64     image.obj
 0002:0001bc7c       $unwind$__CxxFrameHandler3 000000018004dc7c     libvcruntime:trnsctrl.obj
 0002:0001bc7c       $unwind$?buffer@LwipImage@@SAXAEBV?$FunctionCallbackInfo@VValue@v8@@@Nan@@@Z 000000018004dc7c     image.obj
 0002:0001bc8c       $unwind$?resize@LwipImage@@SAXAEBV?$FunctionCallbackInfo@VValue@v8@@@Nan@@@Z 000000018004dc8c     image.obj
 0002:0001bca8       $stateUnwindMap$?resize@LwipImage@@SAXAEBV?$FunctionCallbackInfo@VValue@v8@@@Nan@@@Z 000000018004dca8     image.obj
 0002:0001bcb8       $ip2state$?resize@LwipImage@@SAXAEBV?$FunctionCallbackInfo@VValue@v8@@@Nan@@@Z 000000018004dcb8     image.obj
 0002:0001bce0       $unwind$?rotate@LwipImage@@SAXAEBV?$FunctionCallbackInfo@VValue@v8@@@Nan@@@Z 000000018004dce0     image.obj
 0002:0001bd04       $stateUnwindMap$?rotate@LwipImage@@SAXAEBV?$FunctionCallbackInfo@VValue@v8@@@Nan@@@Z 000000018004dd04     image.obj
 0002:0001bd18       $ip2state$?rotate@LwipImage@@SAXAEBV?$FunctionCallbackInfo@VValue@v8@@@Nan@@@Z 000000018004dd18     image.obj
 0002:0001bd40       $unwind$?blur@LwipImage@@SAXAEBV?$FunctionCallbackInfo@VValue@v8@@@Nan@@@Z 000000018004dd40     image.obj
 0002:0001bd5c       $stateUnwindMap$?sharpen@LwipImage@@SAXAEBV?$FunctionCallbackInfo@VValue@v8@@@Nan@@@Z 000000018004dd5c     image.obj
 0002:0001bd5c       $stateUnwindMap$?blur@LwipImage@@SAXAEBV?$FunctionCallbackInfo@VValue@v8@@@Nan@@@Z 000000018004dd5c     image.obj
 0002:0001bd5c       $stateUnwindMap$?mirror@LwipImage@@SAXAEBV?$FunctionCallbackInfo@VValue@v8@@@Nan@@@Z 000000018004dd5c     image.obj
 0002:0001bd70       $ip2state$?blur@LwipImage@@SAXAEBV?$FunctionCallbackInfo@VValue@v8@@@Nan@@@Z 000000018004dd70     image.obj
 0002:0001bd98       $unwind$?crop@LwipImage@@SAXAEBV?$FunctionCallbackInfo@VValue@v8@@@Nan@@@Z 000000018004dd98     image.obj
 0002:0001bdbc       $stateUnwindMap$?crop@LwipImage@@SAXAEBV?$FunctionCallbackInfo@VValue@v8@@@Nan@@@Z 000000018004ddbc     image.obj
 0002:0001bdd0       $ip2state$?crop@LwipImage@@SAXAEBV?$FunctionCallbackInfo@VValue@v8@@@Nan@@@Z 000000018004ddd0     image.obj
 0002:0001bdf8       $unwind$?mirror@LwipImage@@SAXAEBV?$FunctionCallbackInfo@VValue@v8@@@Nan@@@Z 000000018004ddf8     image.obj
 0002:0001be18       $ip2state$?mirror@LwipImage@@SAXAEBV?$FunctionCallbackInfo@VValue@v8@@@Nan@@@Z 000000018004de18     image.obj
 0002:0001be40       $unwind$?pad@LwipImage@@SAXAEBV?$FunctionCallbackInfo@VValue@v8@@@Nan@@@Z 000000018004de40     image.obj
 0002:0001be64       $stateUnwindMap$?pad@LwipImage@@SAXAEBV?$FunctionCallbackInfo@VValue@v8@@@Nan@@@Z 000000018004de64     image.obj
 0002:0001be78       $ip2state$?pad@LwipImage@@SAXAEBV?$FunctionCallbackInfo@VValue@v8@@@Nan@@@Z 000000018004de78     image.obj
 0002:0001bea0       $unwind$?sharpen@LwipImage@@SAXAEBV?$FunctionCallbackInfo@VValue@v8@@@Nan@@@Z 000000018004dea0     image.obj
 0002:0001bec0       $ip2state$?sharpen@LwipImage@@SAXAEBV?$FunctionCallbackInfo@VValue@v8@@@Nan@@@Z 000000018004dec0     image.obj
 0002:0001bee8       $unwind$?hslaAdj@LwipImage@@SAXAEBV?$FunctionCallbackInfo@VValue@v8@@@Nan@@@Z 000000018004dee8     image.obj
 0002:0001bf10       $stateUnwindMap$?hslaAdj@LwipImage@@SAXAEBV?$FunctionCallbackInfo@VValue@v8@@@Nan@@@Z 000000018004df10     image.obj
 0002:0001bf20       $ip2state$?hslaAdj@LwipImage@@SAXAEBV?$FunctionCallbackInfo@VValue@v8@@@Nan@@@Z 000000018004df20     image.obj
 0002:0001bf48       $unwind$?opacify@LwipImage@@SAXAEBV?$FunctionCallbackInfo@VValue@v8@@@Nan@@@Z 000000018004df48     image.obj
 0002:0001bf60       $stateUnwindMap$?opacify@LwipImage@@SAXAEBV?$FunctionCallbackInfo@VValue@v8@@@Nan@@@Z 000000018004df60     image.obj
 0002:0001bf70       $ip2state$?opacify@LwipImage@@SAXAEBV?$FunctionCallbackInfo@VValue@v8@@@Nan@@@Z 000000018004df70     image.obj
 0002:0001bf98       $unwind$?paste@LwipImage@@SAXAEBV?$FunctionCallbackInfo@VValue@v8@@@Nan@@@Z 000000018004df98     image.obj
 0002:0001bfb8       $stateUnwindMap$?paste@LwipImage@@SAXAEBV?$FunctionCallbackInfo@VValue@v8@@@Nan@@@Z 000000018004dfb8     image.obj
 0002:0001bfc8       $ip2state$?paste@LwipImage@@SAXAEBV?$FunctionCallbackInfo@VValue@v8@@@Nan@@@Z 000000018004dfc8     image.obj
 0002:0001bff0       $unwind$?setPixel@LwipImage@@SAXAEBV?$FunctionCallbackInfo@VValue@v8@@@Nan@@@Z 000000018004dff0     image.obj
 0002:0001c014       $stateUnwindMap$?setPixel@LwipImage@@SAXAEBV?$FunctionCallbackInfo@VValue@v8@@@Nan@@@Z 000000018004e014     image.obj
 0002:0001c028       $ip2state$?setPixel@LwipImage@@SAXAEBV?$FunctionCallbackInfo@VValue@v8@@@Nan@@@Z 000000018004e028     image.obj
 0002:0001c050       $unwind$??0?$CImg@E@cimg_library@@QEAA@QEBEIIII_N@Z 000000018004e050     image.obj
 0002:0001c068       $stateUnwindMap$??0?$CImg@E@cimg_library@@QEAA@AEBU01@_N@Z 000000018004e068     resize_worker.obj
 0002:0001c068       $stateUnwindMap$?assign@?$CImg@D@cimg_library@@QEAAAEAU12@IIII@Z 000000018004e068     image.obj
 0002:0001c068       $stateUnwindMap$??0?$CImg@E@cimg_library@@QEAA@AEBU01@@Z 000000018004e068     image.obj
 0002:0001c068       $stateUnwindMap$??0?$CImg@E@cimg_library@@QEAA@IIII@Z 000000018004e068     image.obj
 0002:0001c068       $stateUnwindMap$??0?$CImg@E@cimg_library@@QEAA@QEBEIIII_N@Z 000000018004e068     image.obj
 0002:0001c068       $stateUnwindMap$??0?$CImg@E@cimg_library@@QEAA@IIIIAEBE@Z 000000018004e068     resize_worker.obj
 0002:0001c068       $stateUnwindMap$??0?$CImg@K@cimg_library@@QEAA@IIII@Z 000000018004e068     resize_worker.obj
 0002:0001c068       $stateUnwindMap$??0?$CImg@I@cimg_library@@QEAA@IIII@Z 000000018004e068     resize_worker.obj
 0002:0001c068       $stateUnwindMap$??0?$CImg@M@cimg_library@@QEAA@IIII@Z 000000018004e068     resize_worker.obj
 0002:0001c068       $stateUnwindMap$??0?$CImg@M@cimg_library@@QEAA@IIIIAEBM@Z 000000018004e068     resize_worker.obj
 0002:0001c068       $stateUnwindMap$??0?$CImg@D@cimg_library@@QEAA@IIII@Z 000000018004e068     image.obj
 0002:0001c068       $stateUnwindMap$?assign@?$CImg@E@cimg_library@@QEAAAEAU12@IIII@Z 000000018004e068     resize_worker.obj
 0002:0001c068       $stateUnwindMap$?assign@?$CImg@E@cimg_library@@QEAAAEAU12@QEBEIIII@Z 000000018004e068     resize_worker.obj
 0002:0001c078       $tryMap$??0?$CImg@E@cimg_library@@QEAA@QEBEIIII_N@Z 000000018004e078     image.obj
 0002:0001c08c       $handlerMap$0$??0?$CImg@E@cimg_library@@QEAA@QEBEIIII_N@Z 000000018004e08c     image.obj
 0002:0001c0a0       $ip2state$??0?$CImg@E@cimg_library@@QEAA@QEBEIIII_N@Z 000000018004e0a0     image.obj
 0002:0001c0c8       $unwind$?catch$0@?0???0?$CImg@E@cimg_library@@QEAA@QEBEIIII_N@Z@4HA 000000018004e0c8     image.obj
 0002:0001c0e0       $unwind$?assign@?$CImg@D@cimg_library@@QEAAAEAU12@IIII@Z 000000018004e0e0     image.obj
 0002:0001c0f8       $tryMap$?assign@?$CImg@D@cimg_library@@QEAAAEAU12@IIII@Z 000000018004e0f8     image.obj
 0002:0001c10c       $handlerMap$0$?assign@?$CImg@D@cimg_library@@QEAAAEAU12@IIII@Z 000000018004e10c     image.obj
 0002:0001c120       $ip2state$?assign@?$CImg@D@cimg_library@@QEAAAEAU12@IIII@Z 000000018004e120     image.obj
 0002:0001c148       $unwind$?catch$0@?0??assign@?$CImg@D@cimg_library@@QEAAAEAU12@IIII@Z@4HA 000000018004e148     image.obj
 0002:0001c15c       $unwind$??0?$CImg@D@cimg_library@@QEAA@IIII@Z 000000018004e15c     image.obj
 0002:0001c170       $tryMap$??0?$CImg@D@cimg_library@@QEAA@IIII@Z 000000018004e170     image.obj
 0002:0001c184       $handlerMap$0$??0?$CImg@D@cimg_library@@QEAA@IIII@Z 000000018004e184     image.obj
 0002:0001c198       $ip2state$??0?$CImg@D@cimg_library@@QEAA@IIII@Z 000000018004e198     image.obj
 0002:0001c1c0       $unwind$?catch$0@?0???0?$CImg@D@cimg_library@@QEAA@IIII@Z@4HA 000000018004e1c0     image.obj
 0002:0001c1d4       $unwind$??0?$CImg@E@cimg_library@@QEAA@AEBU01@@Z 000000018004e1d4     image.obj
 0002:0001c1f0       $tryMap$??0?$CImg@E@cimg_library@@QEAA@AEBU01@@Z 000000018004e1f0     image.obj
 0002:0001c204       $handlerMap$0$??0?$CImg@E@cimg_library@@QEAA@AEBU01@@Z 000000018004e204     image.obj
 0002:0001c218       $ip2state$??0?$CImg@E@cimg_library@@QEAA@AEBU01@@Z 000000018004e218     image.obj
 0002:0001c240       $unwind$?catch$0@?0???0?$CImg@E@cimg_library@@QEAA@AEBU01@@Z@4HA 000000018004e240     image.obj
 0002:0001c25c       $unwind$??0?$CImg@E@cimg_library@@QEAA@IIII@Z 000000018004e25c     image.obj
 0002:0001c270       $tryMap$??0?$CImg@E@cimg_library@@QEAA@IIII@Z 000000018004e270     image.obj
 0002:0001c284       $handlerMap$0$??0?$CImg@E@cimg_library@@QEAA@IIII@Z 000000018004e284     image.obj
 0002:0001c298       $ip2state$??0?$CImg@E@cimg_library@@QEAA@IIII@Z 000000018004e298     image.obj
 0002:0001c2c0       $unwind$?catch$0@?0???0?$CImg@E@cimg_library@@QEAA@IIII@Z@4HA 000000018004e2c0     image.obj
 0002:0001c2dc       $unwind$??$Unwrap@VLwipImage@@@ObjectWrap@node@@SAPEAVLwipImage@@V?$Local@VObject@v8@@@v8@@@Z 000000018004e2dc     image.obj
 0002:0001c2e4       $unwind$?Call_@Callback@Nan@@AEBA?AV?$Local@VValue@v8@@@v8@@PEAVIsolate@4@V?$Local@VObject@v8@@@4@HQEAV34@@Z 000000018004e2e4     resize_worker.obj
 0002:0001c2fc       $stateUnwindMap$?HandleErrorCallback@AsyncWorker@Nan@@MEAAXXZ 000000018004e2fc     resize_worker.obj
 0002:0001c2fc       $stateUnwindMap$?Call_@Callback@Nan@@AEBA?AV?$Local@VValue@v8@@@v8@@PEAVIsolate@4@V?$Local@VObject@v8@@@4@HQEAV34@@Z 000000018004e2fc     resize_worker.obj
 0002:0001c308       $ip2state$?Call_@Callback@Nan@@AEBA?AV?$Local@VValue@v8@@@v8@@PEAVIsolate@4@V?$Local@VObject@v8@@@4@HQEAV34@@Z 000000018004e308     resize_worker.obj
 0002:0001c320       $unwind$??0AsyncWorker@Nan@@QEAA@PEAVCallback@1@@Z 000000018004e320     resize_worker.obj
 0002:0001c334       $stateUnwindMap$??0AsyncWorker@Nan@@QEAA@PEAVCallback@1@@Z 000000018004e334     resize_worker.obj
 0002:0001c348       $ip2state$??0AsyncWorker@Nan@@QEAA@PEAVCallback@1@@Z 000000018004e348     resize_worker.obj
 0002:0001c370       $unwind$??1AsyncWorker@Nan@@UEAA@XZ 000000018004e370     resize_worker.obj
 0002:0001c384       $stateUnwindMap$??1AsyncWorker@Nan@@UEAA@XZ 000000018004e384     resize_worker.obj
 0002:0001c3b8       $ip2state$??1AsyncWorker@Nan@@UEAA@XZ 000000018004e3b8     resize_worker.obj
 0002:0001c3d8       $unwind$?WorkComplete@AsyncWorker@Nan@@UEAAXXZ 000000018004e3d8     resize_worker.obj
 0002:0001c3ec       $stateUnwindMap$?WorkComplete@AsyncWorker@Nan@@UEAAXXZ 000000018004e3ec     resize_worker.obj
 0002:0001c418       $ip2state$?WorkComplete@AsyncWorker@Nan@@UEAAXXZ 000000018004e418     resize_worker.obj
 0002:0001c448       $unwind$?HandleOKCallback@AsyncWorker@Nan@@MEAAXXZ 000000018004e448     resize_worker.obj
 0002:0001c454       $unwind$?HandleErrorCallback@AsyncWorker@Nan@@MEAAXXZ 000000018004e454     resize_worker.obj
 0002:0001c468       $ip2state$?HandleErrorCallback@AsyncWorker@Nan@@MEAAXXZ 000000018004e468     resize_worker.obj
 0002:0001c480       $unwind$?Execute@ResizeWorker@@UEAAXXZ 000000018004e480     resize_worker.obj
 0002:0001c490       $stateUnwindMap$?Execute@ResizeWorker@@UEAAXXZ 000000018004e490     resize_worker.obj
 0002:0001c4a8       $tryMap$?Execute@ResizeWorker@@UEAAXXZ 000000018004e4a8     resize_worker.obj
 0002:0001c4bc       $handlerMap$0$?Execute@ResizeWorker@@UEAAXXZ 000000018004e4bc     resize_worker.obj
 0002:0001c4d0       $ip2state$?Execute@ResizeWorker@@UEAAXXZ 000000018004e4d0     resize_worker.obj
 0002:0001c508       $unwind$?catch$0@?0??Execute@ResizeWorker@@UEAAXXZ@4HA 000000018004e508     resize_worker.obj
 0002:0001c518       $unwind$?HandleOKCallback@ResizeWorker@@UEAAXXZ 000000018004e518     resize_worker.obj
 0002:0001c518       $unwind$?HandleOKCallback@OpacifyWorker@@UEAAXXZ 000000018004e518     opacify_worker.obj
 0002:0001c518       $unwind$?HandleOKCallback@SharpenWorker@@UEAAXXZ 000000018004e518     sharpen_worker.obj
 0002:0001c518       $unwind$?HandleOKCallback@BlurWorker@@UEAAXXZ 000000018004e518     blur_worker.obj
 0002:0001c518       $unwind$?HandleOKCallback@SetPixelWorker@@UEAAXXZ 000000018004e518     setpixel_worker.obj
 0002:0001c518       $unwind$?HandleOKCallback@PasteWorker@@UEAAXXZ 000000018004e518     paste_worker.obj
 0002:0001c518       $unwind$?HandleOKCallback@MirrorWorker@@UEAAXXZ 000000018004e518     mirror_worker.obj
 0002:0001c518       $unwind$?HandleOKCallback@HSLAWorker@@UEAAXXZ 000000018004e518     hsla_worker.obj
 0002:0001c518       $unwind$?HandleOKCallback@RotateWorker@@UEAAXXZ 000000018004e518     rotate_worker.obj
 0002:0001c518       $unwind$?HandleOKCallback@PadWorker@@UEAAXXZ 000000018004e518     pad_worker.obj
 0002:0001c518       $unwind$?HandleOKCallback@CropWorker@@UEAAXXZ 000000018004e518     crop_worker.obj
 0002:0001c524       $unwind$?resize@?$CImg@E@cimg_library@@QEAAAEAU12@HHHHHIMMMM@Z 000000018004e524     resize_worker.obj
 0002:0001c540       $stateUnwindMap$?resize@?$CImg@E@cimg_library@@QEAAAEAU12@HHHHHIMMMM@Z 000000018004e540     resize_worker.obj
 0002:0001c540       $stateUnwindMap$?crop@?$CImg@E@cimg_library@@QEAAAEAU12@HHHHHHHH_N@Z 000000018004e540     crop_worker.obj
 0002:0001c548       $ip2state$?resize@?$CImg@E@cimg_library@@QEAAAEAU12@HHHHHIMMMM@Z 000000018004e548     resize_worker.obj
 0002:0001c560       $unwind$??0?$CImg@K@cimg_library@@QEAA@IIII@Z 000000018004e560     resize_worker.obj
 0002:0001c574       $tryMap$??0?$CImg@K@cimg_library@@QEAA@IIII@Z 000000018004e574     resize_worker.obj
 0002:0001c588       $handlerMap$0$??0?$CImg@K@cimg_library@@QEAA@IIII@Z 000000018004e588     resize_worker.obj
 0002:0001c5a0       $ip2state$??0?$CImg@K@cimg_library@@QEAA@IIII@Z 000000018004e5a0     resize_worker.obj
 0002:0001c5c8       $unwind$?catch$0@?0???0?$CImg@K@cimg_library@@QEAA@IIII@Z@4HA 000000018004e5c8     resize_worker.obj
 0002:0001c5dc       $unwind$?get_resize@?$CImg@E@cimg_library@@QEBA?AU12@HHHHHIMMMM@Z 000000018004e5dc     resize_worker.obj
 0002:0001c620       $stateUnwindMap$?get_resize@?$CImg@E@cimg_library@@QEBA?AU12@HHHHHIMMMM@Z 000000018004e620     resize_worker.obj
 0002:0001c940       $ip2state$?get_resize@?$CImg@E@cimg_library@@QEBA?AU12@HHHHHIMMMM@Z 000000018004e940     resize_worker.obj
 0002:0001cf90       $unwind$??$assign@M@?$CImg@E@cimg_library@@QEAAAEAU01@QEBMIIII@Z 000000018004ef90     resize_worker.obj
 0002:0001cf90       $unwind$?move_to@?$CImg@E@cimg_library@@QEAAAEAU12@AEAU12@@Z 000000018004ef90     resize_worker.obj
 0002:0001cf90       $unwind$??$__acrt_stdio_parse_mode@D@@YA?AU__acrt_stdio_stream_mode@@QEBD@Z 000000018004ef90     libucrt:openfile.obj
 0002:0001cf9c       $unwind$??0?$CImg@I@cimg_library@@QEAA@IIII@Z 000000018004ef9c     resize_worker.obj
 0002:0001cfb0       $tryMap$??0?$CImg@I@cimg_library@@QEAA@IIII@Z 000000018004efb0     resize_worker.obj
 0002:0001cfc4       $handlerMap$0$??0?$CImg@I@cimg_library@@QEAA@IIII@Z 000000018004efc4     resize_worker.obj
 0002:0001cfd8       $ip2state$??0?$CImg@I@cimg_library@@QEAA@IIII@Z 000000018004efd8     resize_worker.obj
 0002:0001d000       $unwind$?catch$0@?0???0?$CImg@I@cimg_library@@QEAA@IIII@Z@4HA 000000018004f000     resize_worker.obj
 0002:0001d014       $unwind$?draw_image@?$CImg@E@cimg_library@@QEAAAEAU12@HHHHAEBU12@M@Z 000000018004f014     resize_worker.obj
 0002:0001d040       $stateUnwindMap$?draw_image@?$CImg@E@cimg_library@@QEAAAEAU12@HHHHAEBU12@M@Z 000000018004f040     resize_worker.obj
 0002:0001d048       $ip2state$?draw_image@?$CImg@E@cimg_library@@QEAAAEAU12@HHHHAEBU12@M@Z 000000018004f048     resize_worker.obj
 0002:0001d060       $unwind$?get_crop@?$CImg@E@cimg_library@@QEBA?AU12@HHHHHHHH_N@Z 000000018004f060     resize_worker.obj
 0002:0001d080       $stateUnwindMap$?get_crop@?$CImg@E@cimg_library@@QEBA?AU12@HHHHHHHH_N@Z 000000018004f080     resize_worker.obj
 0002:0001d088       $ip2state$?get_crop@?$CImg@E@cimg_library@@QEBA?AU12@HHHHHHHH_N@Z 000000018004f088     resize_worker.obj
 0002:0001d098       $unwind$_sincos_special    000000018004f098     libucrt:sincos_special.obj
 0002:0001d098       $unwind$?_cimg_lanczos@?$CImg@E@cimg_library@@SAMM@Z 000000018004f098     resize_worker.obj
 0002:0001d098       $unwind$_sincosf_special   000000018004f098     libucrt:sincos_special.obj
 0002:0001d0a0       $chain$2$?_cimg_lanczos@?$CImg@E@cimg_library@@SAMM@Z 000000018004f0a0     resize_worker.obj
 0002:0001d0bc       $chain$3$?_cimg_lanczos@?$CImg@E@cimg_library@@SAMM@Z 000000018004f0bc     resize_worker.obj
 0002:0001d0cc       $unwind$?assign@?$CImg@E@cimg_library@@QEAAAEAU12@IIII@Z 000000018004f0cc     resize_worker.obj
 0002:0001d0e8       $tryMap$?assign@?$CImg@E@cimg_library@@QEAAAEAU12@IIII@Z 000000018004f0e8     resize_worker.obj
 0002:0001d0fc       $handlerMap$0$?assign@?$CImg@E@cimg_library@@QEAAAEAU12@IIII@Z 000000018004f0fc     resize_worker.obj
 0002:0001d110       $ip2state$?assign@?$CImg@E@cimg_library@@QEAAAEAU12@IIII@Z 000000018004f110     resize_worker.obj
 0002:0001d138       $unwind$?catch$0@?0??assign@?$CImg@E@cimg_library@@QEAAAEAU12@IIII@Z@4HA 000000018004f138     resize_worker.obj
 0002:0001d154       $unwind$??0?$CImg@E@cimg_library@@QEAA@IIIIAEBE@Z 000000018004f154     resize_worker.obj
 0002:0001d168       $tryMap$??0?$CImg@E@cimg_library@@QEAA@IIIIAEBE@Z 000000018004f168     resize_worker.obj
 0002:0001d17c       $handlerMap$0$??0?$CImg@E@cimg_library@@QEAA@IIIIAEBE@Z 000000018004f17c     resize_worker.obj
 0002:0001d190       $ip2state$??0?$CImg@E@cimg_library@@QEAA@IIIIAEBE@Z 000000018004f190     resize_worker.obj
 0002:0001d1b8       $unwind$?catch$0@?0???0?$CImg@E@cimg_library@@QEAA@IIIIAEBE@Z@4HA 000000018004f1b8     resize_worker.obj
 0002:0001d1d4       $unwind$??0?$CImg@M@cimg_library@@QEAA@IIIIAEBM@Z 000000018004f1d4     resize_worker.obj
 0002:0001d1e8       $tryMap$??0?$CImg@M@cimg_library@@QEAA@IIIIAEBM@Z 000000018004f1e8     resize_worker.obj
 0002:0001d1fc       $handlerMap$0$??0?$CImg@M@cimg_library@@QEAA@IIIIAEBM@Z 000000018004f1fc     resize_worker.obj
 0002:0001d210       $ip2state$??0?$CImg@M@cimg_library@@QEAA@IIIIAEBM@Z 000000018004f210     resize_worker.obj
 0002:0001d238       $unwind$?catch$0@?0???0?$CImg@M@cimg_library@@QEAA@IIIIAEBM@Z@4HA 000000018004f238     resize_worker.obj
 0002:0001d254       $unwind$??0?$CImg@M@cimg_library@@QEAA@IIII@Z 000000018004f254     resize_worker.obj
 0002:0001d268       $tryMap$??0?$CImg@M@cimg_library@@QEAA@IIII@Z 000000018004f268     resize_worker.obj
 0002:0001d27c       $handlerMap$0$??0?$CImg@M@cimg_library@@QEAA@IIII@Z 000000018004f27c     resize_worker.obj
 0002:0001d290       $ip2state$??0?$CImg@M@cimg_library@@QEAA@IIII@Z 000000018004f290     resize_worker.obj
 0002:0001d2b8       $unwind$?catch$0@?0???0?$CImg@M@cimg_library@@QEAA@IIII@Z@4HA 000000018004f2b8     resize_worker.obj
 0002:0001d2d4       $unwind$??0?$CImg@E@cimg_library@@QEAA@AEBU01@_N@Z 000000018004f2d4     resize_worker.obj
 0002:0001d2f0       $tryMap$??0?$CImg@E@cimg_library@@QEAA@AEBU01@_N@Z 000000018004f2f0     resize_worker.obj
 0002:0001d304       $handlerMap$0$??0?$CImg@E@cimg_library@@QEAA@AEBU01@_N@Z 000000018004f304     resize_worker.obj
 0002:0001d318       $ip2state$??0?$CImg@E@cimg_library@@QEAA@AEBU01@_N@Z 000000018004f318     resize_worker.obj
 0002:0001d340       $unwind$?catch$0@?0???0?$CImg@E@cimg_library@@QEAA@AEBU01@_N@Z@4HA 000000018004f340     resize_worker.obj
 0002:0001d35c       $unwind$?assign@?$CImg@E@cimg_library@@QEAAAEAU12@QEBEIIII_N@Z 000000018004f35c     resize_worker.obj
 0002:0001d374       $unwind$?assign@?$CImg@E@cimg_library@@QEAAAEAU12@QEBEIIII@Z 000000018004f374     resize_worker.obj
 0002:0001d394       $tryMap$?assign@?$CImg@E@cimg_library@@QEAAAEAU12@QEBEIIII@Z 000000018004f394     resize_worker.obj
 0002:0001d3a8       $handlerMap$0$?assign@?$CImg@E@cimg_library@@QEAAAEAU12@QEBEIIII@Z 000000018004f3a8     resize_worker.obj
 0002:0001d3c0       $ip2state$?assign@?$CImg@E@cimg_library@@QEAAAEAU12@QEBEIIII@Z 000000018004f3c0     resize_worker.obj
 0002:0001d3e8       $unwind$?catch$0@?0??assign@?$CImg@E@cimg_library@@QEAAAEAU12@QEBEIIII@Z@4HA 000000018004f3e8     resize_worker.obj
 0002:0001d404       $unwind$?Execute@RotateWorker@@UEAAXXZ 000000018004f404     rotate_worker.obj
 0002:0001d434       $stateUnwindMap$?Execute@RotateWorker@@UEAAXXZ 000000018004f434     rotate_worker.obj
 0002:0001d474       $tryMap$?Execute@RotateWorker@@UEAAXXZ 000000018004f474     rotate_worker.obj
 0002:0001d49c       $handlerMap$0$?Execute@RotateWorker@@UEAAXXZ 000000018004f49c     rotate_worker.obj
 0002:0001d4b0       $handlerMap$1$?Execute@RotateWorker@@UEAAXXZ 000000018004f4b0     rotate_worker.obj
 0002:0001d4d0       $ip2state$?Execute@RotateWorker@@UEAAXXZ 000000018004f4d0     rotate_worker.obj
 0002:0001d548       $unwind$?catch$0@?0??Execute@RotateWorker@@UEAAXXZ@4HA 000000018004f548     rotate_worker.obj
 0002:0001d548       $unwind$?catch$1@?0??Execute@RotateWorker@@UEAAXXZ@4HA 000000018004f548     rotate_worker.obj
 0002:0001d558       $unwind$?fillC@?$CImg@E@cimg_library@@QEAAAEAU12@IIIHZZ 000000018004f558     rotate_worker.obj
 0002:0001d560       $chain$0$?fillC@?$CImg@E@cimg_library@@QEAAAEAU12@IIIHZZ 000000018004f560     rotate_worker.obj
 0002:0001d574       $chain$1$?fillC@?$CImg@E@cimg_library@@QEAAAEAU12@IIIHZZ 000000018004f574     rotate_worker.obj
 0002:0001d584       $unwind$?get_rotate@?$CImg@E@cimg_library@@QEBA?AU12@MII@Z 000000018004f584     rotate_worker.obj
 0002:0001d5c8       $stateUnwindMap$?get_rotate@?$CImg@E@cimg_library@@QEBA?AU12@MII@Z 000000018004f5c8     rotate_worker.obj
 0002:0001d5d0       $ip2state$?get_rotate@?$CImg@E@cimg_library@@QEBA?AU12@MII@Z 000000018004f5d0     rotate_worker.obj
 0002:0001d5e8       $unwind$?_linear_atXY@?$CImg@E@cimg_library@@QEBAMMMHH@Z 000000018004f5e8     rotate_worker.obj
 0002:0001d5f4       $unwind$?Execute@BlurWorker@@UEAAXXZ 000000018004f5f4     blur_worker.obj
 0002:0001d5fc       $unwind$?vanvliet@?$CImg@E@cimg_library@@QEAAAEAU12@MID_N@Z 000000018004f5fc     blur_worker.obj
 0002:0001d60c       $chain$3$?vanvliet@?$CImg@E@cimg_library@@QEAAAEAU12@MID_N@Z 000000018004f60c     blur_worker.obj
 0002:0001d62c       $chain$4$?vanvliet@?$CImg@E@cimg_library@@QEAAAEAU12@MID_N@Z 000000018004f62c     blur_worker.obj
 0002:0001d648       $chain$5$?vanvliet@?$CImg@E@cimg_library@@QEAAAEAU12@MID_N@Z 000000018004f648     blur_worker.obj
 0002:0001d658       $unwind$?_cimg_recursive_apply@?$CImg@E@cimg_library@@SAXPEAEQEBNHKI_N@Z 000000018004f658     blur_worker.obj
 0002:0001d694       $unwind$?Execute@CropWorker@@UEAAXXZ 000000018004f694     crop_worker.obj
 0002:0001d6a4       $stateUnwindMap$?Execute@CropWorker@@UEAAXXZ 000000018004f6a4     crop_worker.obj
 0002:0001d6bc       $tryMap$?Execute@CropWorker@@UEAAXXZ 000000018004f6bc     crop_worker.obj
 0002:0001d6d0       $handlerMap$0$?Execute@CropWorker@@UEAAXXZ 000000018004f6d0     crop_worker.obj
 0002:0001d6e8       $ip2state$?Execute@CropWorker@@UEAAXXZ 000000018004f6e8     crop_worker.obj
 0002:0001d720       $unwind$?catch$0@?0??Execute@CropWorker@@UEAAXXZ@4HA 000000018004f720     crop_worker.obj
 0002:0001d730       $unwind$?crop@?$CImg@E@cimg_library@@QEAAAEAU12@HHHHHHHH_N@Z 000000018004f730     crop_worker.obj
 0002:0001d748       $ip2state$?crop@?$CImg@E@cimg_library@@QEAAAEAU12@HHHHHHHH_N@Z 000000018004f748     crop_worker.obj
 0002:0001d760       $unwind$?Execute@MirrorWorker@@UEAAXXZ 000000018004f760     mirror_worker.obj
 0002:0001d778       $stateUnwindMap$?Execute@MirrorWorker@@UEAAXXZ 000000018004f778     mirror_worker.obj
 0002:0001d798       $tryMap$?Execute@MirrorWorker@@UEAAXXZ 000000018004f798     mirror_worker.obj
 0002:0001d7ac       $handlerMap$0$?Execute@MirrorWorker@@UEAAXXZ 000000018004f7ac     mirror_worker.obj
 0002:0001d7c0       $ip2state$?Execute@MirrorWorker@@UEAAXXZ 000000018004f7c0     mirror_worker.obj
 0002:0001d800       $unwind$?catch$0@?0??Execute@MirrorWorker@@UEAAXXZ@4HA 000000018004f800     mirror_worker.obj
 0002:0001d810       $unwind$?mirror@?$CImg@E@cimg_library@@QEAAAEAU12@D@Z 000000018004f810     mirror_worker.obj
 0002:0001d81c       $chain$4$?mirror@?$CImg@E@cimg_library@@QEAAAEAU12@D@Z 000000018004f81c     mirror_worker.obj
 0002:0001d840       $chain$5$?mirror@?$CImg@E@cimg_library@@QEAAAEAU12@D@Z 000000018004f840     mirror_worker.obj
 0002:0001d850       $chain$6$?mirror@?$CImg@E@cimg_library@@QEAAAEAU12@D@Z 000000018004f850     mirror_worker.obj
 0002:0001d874       $unwind$__acrt_execute_initializers 000000018004f874     libucrt:shared_initialization.obj
 0002:0001d874       $unwind$_wassert           000000018004f874     libucrt:assert.obj
 0002:0001d874       $unwind$?dllmain_raw@@YAHQEAUHINSTANCE__@@KQEAX@Z 000000018004f874     LIBCMT:dll_dllmain.obj
 0002:0001d874       $unwind$__acrt_lowio_create_handle_array 000000018004f874     libucrt:osfinfo.obj
 0002:0001d874       $unwind$_seh_filter_exe    000000018004f874     libucrt:exception_filter.obj
 0002:0001d874       $unwind$__acrt_InitializeCriticalSectionEx 000000018004f874     libucrt:winapi_thunks.obj
 0002:0001d874       $unwind$?process@?$output_processor@DV?$string_output_adapter@D@__crt_stdio_output@@V?$format_validation_base@DV?$string_output_adapter@D@__crt_stdio_output@@@2@@__crt_stdio_output@@QEAAHXZ 000000018004f874     libucrt:output.obj
 0002:0001d874       $unwind$__acrt_free_locale 000000018004f874     libucrt:locale_refcounting.obj
 0002:0001d874       $unwind$??$ensure_buffer_is_big_enough@D@formatting_buffer@__crt_stdio_output@@QEAA_N_K@Z 000000018004f874     libucrt:output.obj
 0002:0001d874       $unwind$__vcrt_InitializeCriticalSectionEx 000000018004f874     libvcruntime:winapi_downlevel.obj
 0002:0001d874       $unwind$_recalloc_base     000000018004f874     libucrt:recalloc.obj
 0002:0001d874       $unwind$?assign@?$basic_string@DU?$char_traits@D@std@@V?$allocator@D@2@@std@@QEAAAEAV12@AEBV12@_K1@Z 000000018004f874     mirror_worker.obj
 0002:0001d874       $unwind$?find_or_allocate_unused_stream_nolock@@YA?AV__crt_stdio_stream@@XZ 000000018004f874     libucrt:stream.obj
 0002:0001d874       $unwind$__scrt_dllmain_exception_filter 000000018004f874     LIBCMT:utility.obj
 0002:0001d874       $unwind$?_Copy@?$basic_string@DU?$char_traits@D@std@@V?$allocator@D@2@@std@@QEAAX_K0@Z 000000018004f874     mirror_worker.obj
 0002:0001d874       $unwind$?setSBCS@@YAXPEAU__crt_multibyte_data@@@Z 000000018004f874     libucrt:mbctype.obj
 0002:0001d888       $unwind$?append@?$basic_string@DU?$char_traits@D@std@@V?$allocator@D@2@@std@@QEAAAEAV12@PEBD_K@Z 000000018004f888     mirror_worker.obj
 0002:0001d898       $chain$0$?append@?$basic_string@DU?$char_traits@D@std@@V?$allocator@D@2@@std@@QEAAAEAV12@PEBD_K@Z 000000018004f898     mirror_worker.obj
 0002:0001d8ac       $chain$1$?append@?$basic_string@DU?$char_traits@D@std@@V?$allocator@D@2@@std@@QEAAAEAV12@PEBD_K@Z 000000018004f8ac     mirror_worker.obj
 0002:0001d8bc       $chain$2$?append@?$basic_string@DU?$char_traits@D@std@@V?$allocator@D@2@@std@@QEAAAEAV12@PEBD_K@Z 000000018004f8bc     mirror_worker.obj
 0002:0001d8d0       $unwind$?append@?$basic_string@DU?$char_traits@D@std@@V?$allocator@D@2@@std@@QEAAAEAV12@AEBV12@_K1@Z 000000018004f8d0     mirror_worker.obj
 0002:0001d8e4       $chain$0$?append@?$basic_string@DU?$char_traits@D@std@@V?$allocator@D@2@@std@@QEAAAEAV12@AEBV12@_K1@Z 000000018004f8e4     mirror_worker.obj
 0002:0001d8f8       $chain$1$?append@?$basic_string@DU?$char_traits@D@std@@V?$allocator@D@2@@std@@QEAAAEAV12@AEBV12@_K1@Z 000000018004f8f8     mirror_worker.obj
 0002:0001d908       $chain$2$?append@?$basic_string@DU?$char_traits@D@std@@V?$allocator@D@2@@std@@QEAAAEAV12@AEBV12@_K1@Z 000000018004f908     mirror_worker.obj
 0002:0001d91c       $chain$0$?_Grow@?$basic_string@DU?$char_traits@D@std@@V?$allocator@D@2@@std@@QEAA_N_K_N@Z 000000018004f91c     mirror_worker.obj
 0002:0001d930       $chain$2$?_Grow@?$basic_string@DU?$char_traits@D@std@@V?$allocator@D@2@@std@@QEAA_N_K_N@Z 000000018004f930     mirror_worker.obj
 0002:0001d944       $chain$3$?_Grow@?$basic_string@DU?$char_traits@D@std@@V?$allocator@D@2@@std@@QEAA_N_K_N@Z 000000018004f944     mirror_worker.obj
 0002:0001d954       $unwind$?Execute@PadWorker@@UEAAXXZ 000000018004f954     pad_worker.obj
 0002:0001d970       $stateUnwindMap$?Execute@PadWorker@@UEAAXXZ 000000018004f970     pad_worker.obj
 0002:0001d990       $tryMap$?Execute@PadWorker@@UEAAXXZ 000000018004f990     pad_worker.obj
 0002:0001d9a4       $handlerMap$0$?Execute@PadWorker@@UEAAXXZ 000000018004f9a4     pad_worker.obj
 0002:0001d9c0       $ip2state$?Execute@PadWorker@@UEAAXXZ 000000018004f9c0     pad_worker.obj
 0002:0001da00       $unwind$?catch$0@?0??Execute@PadWorker@@UEAAXXZ@4HA 000000018004fa00     pad_worker.obj
 0002:0001da10       $unwind$?Execute@SharpenWorker@@UEAAXXZ 000000018004fa10     sharpen_worker.obj
 0002:0001da20       $stateUnwindMap$?Execute@SharpenWorker@@UEAAXXZ 000000018004fa20     sharpen_worker.obj
 0002:0001da38       $tryMap$?Execute@SharpenWorker@@UEAAXXZ 000000018004fa38     sharpen_worker.obj
 0002:0001da4c       $handlerMap$0$?Execute@SharpenWorker@@UEAAXXZ 000000018004fa4c     sharpen_worker.obj
 0002:0001da60       $ip2state$?Execute@SharpenWorker@@UEAAXXZ 000000018004fa60     sharpen_worker.obj
 0002:0001da98       $unwind$?catch$0@?0??Execute@SharpenWorker@@UEAAXXZ@4HA 000000018004fa98     sharpen_worker.obj
 0002:0001daa8       $unwind$?sharpen@?$CImg@E@cimg_library@@QEAAAEAU12@M_NMMM@Z 000000018004faa8     sharpen_worker.obj
 0002:0001daf8       $stateUnwindMap$?sharpen@?$CImg@E@cimg_library@@QEAAAEAU12@M_NMMM@Z 000000018004faf8     sharpen_worker.obj
 0002:0001dba8       $ip2state$?sharpen@?$CImg@E@cimg_library@@QEAAAEAU12@M_NMMM@Z 000000018004fba8     sharpen_worker.obj
 0002:0001dbd0       $unwind$?max@?$CImg@M@cimg_library@@QEAAAEAMXZ 000000018004fbd0     sharpen_worker.obj
 0002:0001dbd8       $unwind$??$?YE@?$CImg@M@cimg_library@@QEAAAEAU01@AEBU?$CImg@E@1@@Z 000000018004fbd8     sharpen_worker.obj
 0002:0001dbf4       $stateUnwindMap$??$?YE@?$CImg@M@cimg_library@@QEAAAEAU01@AEBU?$CImg@E@1@@Z 000000018004fbf4     sharpen_worker.obj
 0002:0001dc00       $ip2state$??$?YE@?$CImg@M@cimg_library@@QEAAAEAU01@AEBU?$CImg@E@1@@Z 000000018004fc00     sharpen_worker.obj
 0002:0001dc18       $unwind$?Execute@HSLAWorker@@UEAAXXZ 000000018004fc18     hsla_worker.obj
 0002:0001dc48       $unwind$?rgb_to_hsl@@YAXEEEPEAM00@Z 000000018004fc48     hsla_worker.obj
 0002:0001dc5c       $unwind$?hsl_to_rgb@@YAXMMMPEAE00@Z 000000018004fc5c     hsla_worker.obj
 0002:0001dc78       $unwind$?Execute@OpacifyWorker@@UEAAXXZ 000000018004fc78     opacify_worker.obj
 0002:0001dc88       $unwind$??0PasteWorker@@QEAA@_K0AEAV?$Local@VObject@v8@@@v8@@00PEAU?$CImg@E@cimg_library@@PEAVCallback@Nan@@@Z 000000018004fc88     paste_worker.obj
 0002:0001dca4       $stateUnwindMap$??0PasteWorker@@QEAA@_K0AEAV?$Local@VObject@v8@@@v8@@00PEAU?$CImg@E@cimg_library@@PEAVCallback@Nan@@@Z 000000018004fca4     paste_worker.obj
 0002:0001dcb8       $ip2state$??0PasteWorker@@QEAA@_K0AEAV?$Local@VObject@v8@@@v8@@00PEAU?$CImg@E@cimg_library@@PEAVCallback@Nan@@@Z 000000018004fcb8     paste_worker.obj
 0002:0001dce0       $unwind$?Execute@PasteWorker@@UEAAXXZ 000000018004fce0     paste_worker.obj
 0002:0001dd08       $stateUnwindMap$?Execute@PasteWorker@@UEAAXXZ 000000018004fd08     paste_worker.obj
 0002:0001dd20       $tryMap$?Execute@PasteWorker@@UEAAXXZ 000000018004fd20     paste_worker.obj
 0002:0001dd34       $handlerMap$0$?Execute@PasteWorker@@UEAAXXZ 000000018004fd34     paste_worker.obj
 0002:0001dd48       $ip2state$?Execute@PasteWorker@@UEAAXXZ 000000018004fd48     paste_worker.obj
 0002:0001dd80       $unwind$?catch$0@?0??Execute@PasteWorker@@UEAAXXZ@4HA 000000018004fd80     paste_worker.obj
 0002:0001dd90       $unwind$?Execute@SetPixelWorker@@UEAAXXZ 000000018004fd90     setpixel_worker.obj
 0002:0001dd98       xdata                      000000018004fd98     node:node.exe
 0002:0001dda0       $xdatasym                  000000018004fda0     LIBCMT:_amdsecgs_.obj
 0002:0001dda4       $unwind$__scrt_is_nonwritable_in_current_image 000000018004fda4     LIBCMT:utility.obj
 0002:0001ddc4       $unwind$__scrt_is_nonwritable_in_current_image$filt$0 000000018004fdc4     LIBCMT:utility.obj
 0002:0001ddcc       $unwind$__scrt_initialize_onexit_tables 000000018004fdcc     LIBCMT:utility.obj
 0002:0001ddd8       $unwind$?dllmain_crt_process_attach@@YAHQEAUHINSTANCE__@@QEAX@Z 000000018004fdd8     LIBCMT:dll_dllmain.obj
 0002:0001de04       $unwind$?dllmain_crt_process_detach@@YAH_N@Z 000000018004fe04     LIBCMT:dll_dllmain.obj
 0002:0001de2c       $unwind$?dllmain_dispatch@@YAHQEAUHINSTANCE__@@KQEAX@Z 000000018004fe2c     LIBCMT:dll_dllmain.obj
 0002:0001de54       $unwind$?filt$0@?0??dllmain_dispatch@@YAHQEAUHINSTANCE__@@KQEAX@Z@4HA 000000018004fe54     LIBCMT:dll_dllmain.obj
 0002:0001de5c       $unwind$_putwch_nolock     000000018004fe5c     libucrt:putwch.obj
 0002:0001de5c       $unwind$__report_gsfailure 000000018004fe5c     LIBCMT:gs_report.obj
 0002:0001de64       $unwind$capture_previous_context 000000018004fe64     LIBCMT:gs_report.obj
 0002:0001de70       $unwind$__scrt_fastfail    000000018004fe70     LIBCMT:utility_desktop.obj
 0002:0001de80       $unwind$__isa_available_init 000000018004fe80     LIBCMT:_cpu_disp_.obj
 0002:0001de8c       $unwind$__security_init_cookie 000000018004fe8c     LIBCMT:gs_support.obj
 0002:0001de98       $xdatasym                  000000018004fe98     LIBCMT:_guard_dispatch_.obj
 0002:0001de9c       $unwind$__CxxCallCatchBlock 000000018004fe9c     libvcruntime:frame.obj
 0002:0001ded8       $unwind$__CxxCallCatchBlock$fin$1 000000018004fed8     libvcruntime:frame.obj
 0002:0001dee4       $unwind$__FrameUnwindToState 000000018004fee4     libvcruntime:frame.obj
 0002:0001df20       $unwind$?FindHandler@@YAXPEAUEHExceptionRecord@@PEA_KPEAU_CONTEXT@@PEAU_xDISPATCHER_CONTEXT@@PEBU_s_FuncInfo@@EH1@Z 000000018004ff20     libvcruntime:frame.obj
 0002:0001df40       $unwind$?CatchIt@@YAXPEAUEHExceptionRecord@@PEA_KPEAU_CONTEXT@@PEAU_xDISPATCHER_CONTEXT@@PEBU_s_FuncInfo@@PEBU_s_HandlerType@@PEBU_s_CatchableType@@PEBU_s_TryBlockMapEntry@@H1EE@Z 000000018004ff40     libvcruntime:frame.obj
 0002:0001df58       $unwind$__BuildCatchObject 000000018004ff58     libvcruntime:frame.obj
 0002:0001df84       $unwind$?FindHandlerForForeignException@@YAXPEAUEHExceptionRecord@@PEA_KPEAU_CONTEXT@@PEAU_xDISPATCHER_CONTEXT@@PEBU_s_FuncInfo@@HH1@Z 000000018004ff84     libvcruntime:frame.obj
 0002:0001df9c       $unwind$__DestructExceptionObject 000000018004ff9c     libvcruntime:frame.obj
 0002:0001dfc0       $unwind$__InternalCxxFrameHandler 000000018004ffc0     libvcruntime:frame.obj
 0002:0001dfc0       $unwind$__C_specific_handler 000000018004ffc0     libvcruntime:_chandler_.obj
 0002:0001dfdc       $unwind$__BuildCatchObjectHelper 000000018004ffdc     libvcruntime:frame.obj
 0002:0001e020       $xdatasym                  0000000180050020     libvcruntime:memcpy.obj
 0002:0001e024       $unwind$_CxxThrowException 0000000180050024     libvcruntime:throw.obj
 0002:0001e038       $unwind$__acrt_initialize_winapi_thunks 0000000180050038     libucrt:winapi_thunks.obj
 0002:0001e038       $unwind$__vcrt_initialize_winapi_thunks 0000000180050038     libvcruntime:winapi_downlevel.obj
 0002:0001e040       $unwind$__acrt_stdio_end_temporary_buffering_nolock 0000000180050040     libucrt:_sftbuf.obj
 0002:0001e040       $unwind$__vcrt_uninitialize_winapi_thunks 0000000180050040     libvcruntime:winapi_downlevel.obj
 0002:0001e048       $unwind$?try_get_function@@YAPEAXW4function_id@?A0xece66f1d@@QEBDQEBW4module_id@2@2@Z 0000000180050048     libvcruntime:winapi_downlevel.obj
 0002:0001e048       $unwind$?IsInExceptionSpec@@YAEPEAUEHExceptionRecord@@PEBU_s_ESTypeList@@@Z 0000000180050048     libvcruntime:frame.obj
 0002:0001e048       $unwind$?write_string@?$string_output_adapter@_W@__crt_stdio_output@@QEBAXQEB_WHQEAH1@Z 0000000180050048     libucrt:output.obj
 0002:0001e048       $unwind$?try_get_function@@YAPEAXW4function_id@?A0x1dd686d3@@QEBDQEBW4module_id@2@2@Z 0000000180050048     libucrt:winapi_thunks.obj
 0002:0001e064       $unwind$__telemetry_main_invoke_trigger 0000000180050064     libvcruntime:telemetry.obj
 0002:0001e064       $unwind$__telemetry_main_return_trigger 0000000180050064     libvcruntime:telemetry.obj
 0002:0001e07c       $unwind$?_TlgEnableCallback@__vcrt_trace_logging_provider@@YAXPEBU_GUID@@KE_K1PEAU_EVENT_FILTER_DESCRIPTOR@@PEAX@Z 000000018005007c     libvcruntime:telemetry.obj
 0002:0001e098       $xdatasym                  0000000180050098     libvcruntime:memset.obj
 0002:0001e0a0       $xdatasym                  00000001800500a0     libvcruntime:handlers.obj
 0002:0001e0a8       $unwind$?_GetEstablisherFrame@@YAPEA_KPEA_KPEAU_xDISPATCHER_CONTEXT@@PEBU_s_FuncInfo@@0@Z 00000001800500a8     libvcruntime:trnsctrl.obj
 0002:0001e0c0       $unwind$?__FrameUnwindToEmptyState@@YAXPEA_KPEAU_xDISPATCHER_CONTEXT@@PEBU_s_FuncInfo@@@Z 00000001800500c0     libvcruntime:trnsctrl.obj
 0002:0001e0d4       $unwind$_CallSETranslator  00000001800500d4     libvcruntime:trnsctrl.obj
 0002:0001e0f8       $unwind$_UnwindNestedFrames 00000001800500f8     libvcruntime:trnsctrl.obj
 0002:0001e110       $xdatasym                  0000000180050110     libvcruntime:_jmpuwind_.obj
 0002:0001e124       $unwind$??$common_fsopen@D@@YAPEAU_iobuf@@QEBD0H@Z 0000000180050124     libucrt:fopen.obj
 0002:0001e14c       $unwind$fclose             000000018005014c     libucrt:fclose.obj
 0002:0001e170       $unwind$__stdio_common_vfprintf 0000000180050170     libucrt:output.obj
 0002:0001e170       $unwind$__stdio_common_vfwprintf 0000000180050170     libucrt:output.obj
 0002:0001e178       $unwind$__stdio_common_vsprintf 0000000180050178     libucrt:output.obj
 0002:0001e178       $unwind$__stdio_common_vswprintf 0000000180050178     libucrt:output.obj
 0002:0001e19c       $unwind$__stdio_common_vsnprintf_s 000000018005019c     libucrt:output.obj
 0002:0001e1b4       $unwind$?write_string@?$stream_output_adapter@D@__crt_stdio_output@@QEBAXQEBDHQEAH1@Z 00000001800501b4     libucrt:output.obj
 0002:0001e1b4       $unwind$_chsize_nolock     00000001800501b4     libucrt:chsize.obj
 0002:0001e1cc       $unwind$?parse_int_from_format_string@?$output_processor@DV?$string_output_adapter@D@__crt_stdio_output@@V?$standard_base@DV?$string_output_adapter@D@__crt_stdio_output@@@2@@__crt_stdio_output@@AEAA_NQEAH@Z 00000001800501cc     libucrt:output.obj
 0002:0001e1cc       $unwind$?parse_int_from_format_string@?$output_processor@DV?$string_output_adapter@D@__crt_stdio_output@@V?$format_validation_base@DV?$string_output_adapter@D@__crt_stdio_output@@@2@@__crt_stdio_output@@AEAA_NQEAH@Z 00000001800501cc     libucrt:output.obj
 0002:0001e1cc       $unwind$?parse_int_from_format_string@?$output_processor@DV?$stream_output_adapter@D@__crt_stdio_output@@V?$standard_base@DV?$stream_output_adapter@D@__crt_stdio_output@@@2@@__crt_stdio_output@@AEAA_NQEAH@Z 00000001800501cc     libucrt:output.obj
 0002:0001e1e0       $unwind$?type_case_a@?$output_processor@DV?$stream_output_adapter@D@__crt_stdio_output@@V?$standard_base@DV?$stream_output_adapter@D@__crt_stdio_output@@@2@@__crt_stdio_output@@AEAA_NXZ 00000001800501e0     libucrt:output.obj
 0002:0001e1e0       $unwind$?type_case_a@?$output_processor@DV?$string_output_adapter@D@__crt_stdio_output@@V?$standard_base@DV?$string_output_adapter@D@__crt_stdio_output@@@2@@__crt_stdio_output@@AEAA_NXZ 00000001800501e0     libucrt:output.obj
 0002:0001e1e0       $unwind$?type_case_a@?$output_processor@DV?$string_output_adapter@D@__crt_stdio_output@@V?$format_validation_base@DV?$string_output_adapter@D@__crt_stdio_output@@@2@@__crt_stdio_output@@AEAA_NXZ 00000001800501e0     libucrt:output.obj
 0002:0001e1ec       $unwind$?write_string@?$stream_output_adapter@_W@__crt_stdio_output@@QEBAXQEB_WHQEAH1@Z 00000001800501ec     libucrt:output.obj
 0002:0001e204       $unwind$?process@?$output_processor@_WV?$stream_output_adapter@_W@__crt_stdio_output@@V?$standard_base@_WV?$stream_output_adapter@_W@__crt_stdio_output@@@2@@__crt_stdio_output@@QEAAHXZ 0000000180050204     libucrt:output.obj
 0002:0001e21c       $unwind$?parse_int_from_format_string@?$output_processor@_WV?$stream_output_adapter@_W@__crt_stdio_output@@V?$standard_base@_WV?$stream_output_adapter@_W@__crt_stdio_output@@@2@@__crt_stdio_output@@AEAA_NQEAH@Z 000000018005021c     libucrt:output.obj
 0002:0001e21c       $unwind$?parse_int_from_format_string@?$output_processor@_WV?$string_output_adapter@_W@__crt_stdio_output@@V?$standard_base@_WV?$string_output_adapter@_W@__crt_stdio_output@@@2@@__crt_stdio_output@@AEAA_NQEAH@Z 000000018005021c     libucrt:output.obj
 0002:0001e230       $unwind$?type_case_c_tchar@?$output_processor@_WV?$string_output_adapter@_W@__crt_stdio_output@@V?$standard_base@_WV?$string_output_adapter@_W@__crt_stdio_output@@@2@@__crt_stdio_output@@AEAA_N_W@Z 0000000180050230     libucrt:output.obj
 0002:0001e230       $unwind$?type_case_c_tchar@?$output_processor@_WV?$stream_output_adapter@_W@__crt_stdio_output@@V?$standard_base@_WV?$stream_output_adapter@_W@__crt_stdio_output@@@2@@__crt_stdio_output@@AEAA_N_W@Z 0000000180050230     libucrt:output.obj
 0002:0001e230       $unwind$?truncate_ctrl_z_if_present@@YAHH@Z 0000000180050230     libucrt:open.obj
 0002:0001e230       $unwind$??R<lambda_b721fa326cdb32351d23dfa67958c160>@@QEBAHXZ 0000000180050230     libucrt:setvbuf.obj
 0002:0001e240       $unwind$?write_stored_string_tchar@?$output_processor@_WV?$stream_output_adapter@_W@__crt_stdio_output@@V?$standard_base@_WV?$stream_output_adapter@_W@__crt_stdio_output@@@2@@__crt_stdio_output@@AEAA_N_W@Z 0000000180050240     libucrt:output.obj
 0002:0001e254       $unwind$??R<lambda_0a64b6a4deda75c01876f29c44fc5eb3>@@QEBAHXZ 0000000180050254     libucrt:output.obj
 0002:0001e254       $unwind$??R<lambda_dd75445284c072d0bd3768540cc698fa>@@QEBAHXZ 0000000180050254     libucrt:output.obj
 0002:0001e270       $unwind$?process@?$output_processor@DV?$stream_output_adapter@D@__crt_stdio_output@@V?$standard_base@DV?$stream_output_adapter@D@__crt_stdio_output@@@2@@__crt_stdio_output@@QEAAHXZ 0000000180050270     libucrt:output.obj
 0002:0001e270       $unwind$?process@?$output_processor@DV?$string_output_adapter@D@__crt_stdio_output@@V?$standard_base@DV?$string_output_adapter@D@__crt_stdio_output@@@2@@__crt_stdio_output@@QEAAHXZ 0000000180050270     libucrt:output.obj
 0002:0001e280       $unwind$?state_case_type@?$output_processor@_WV?$stream_output_adapter@_W@__crt_stdio_output@@V?$standard_base@_WV?$stream_output_adapter@_W@__crt_stdio_output@@@2@@__crt_stdio_output@@AEAA_NXZ 0000000180050280     libucrt:output.obj
 0002:0001e280       $unwind$?state_case_type@?$output_processor@_WV?$string_output_adapter@_W@__crt_stdio_output@@V?$standard_base@_WV?$string_output_adapter@_W@__crt_stdio_output@@@2@@__crt_stdio_output@@AEAA_NXZ 0000000180050280     libucrt:output.obj
 0002:0001e2a4       $unwind$?type_case_a@?$output_processor@_WV?$stream_output_adapter@_W@__crt_stdio_output@@V?$standard_base@_WV?$stream_output_adapter@_W@__crt_stdio_output@@@2@@__crt_stdio_output@@AEAA_NXZ 00000001800502a4     libucrt:output.obj
 0002:0001e2a4       $unwind$?type_case_a@?$output_processor@_WV?$string_output_adapter@_W@__crt_stdio_output@@V?$standard_base@_WV?$string_output_adapter@_W@__crt_stdio_output@@@2@@__crt_stdio_output@@AEAA_NXZ 00000001800502a4     libucrt:output.obj
 0002:0001e2b4       $unwind$?write_stored_string_tchar@?$output_processor@_WV?$string_output_adapter@_W@__crt_stdio_output@@V?$standard_base@_WV?$string_output_adapter@_W@__crt_stdio_output@@@2@@__crt_stdio_output@@AEAA_N_W@Z 00000001800502b4     libucrt:output.obj
 0002:0001e2c8       $unwind$??$common_vsprintf@Vformat_validation_base@__crt_stdio_output@@D@@YAH_KQEAD0QEBDQEAU__crt_locale_pointers@@1@Z 00000001800502c8     libucrt:output.obj
 0002:0001e2e8       $unwind$??$write_multiple_characters@V?$stream_output_adapter@D@__crt_stdio_output@@D@__crt_stdio_output@@YAXAEBV?$stream_output_adapter@D@0@DHQEAH@Z 00000001800502e8     libucrt:output.obj
 0002:0001e300       $unwind$??$write_multiple_characters@V?$stream_output_adapter@_W@__crt_stdio_output@@D@__crt_stdio_output@@YAXAEBV?$stream_output_adapter@_W@0@DHQEAH@Z 0000000180050300     libucrt:output.obj
 0002:0001e318       $unwind$??$write_multiple_characters@V?$string_output_adapter@_W@__crt_stdio_output@@D@__crt_stdio_output@@YAXAEBV?$string_output_adapter@_W@0@DHQEAH@Z 0000000180050318     libucrt:output.obj
 0002:0001e324       $unwind$??$?RV<lambda_aa279a7bcb127014629d5b1d62c7325d>@@AEAV<lambda_0a64b6a4deda75c01876f29c44fc5eb3>@@V<lambda_3323e69fbefe9d1a11713e670d47cdfa>@@@?$__crt_seh_guarded_call@H@@QEAAH$$QEAV<lambda_aa279a7bcb127014629d5b1d62c7325d>@@AEAV<lambda_0a64b6a4deda75c01876f29c44fc5eb3>@@$$QEAV<lambda_3323e69fbefe9d1a11713e670d47cdfa>@@@Z 0000000180050324     libucrt:output.obj
 0002:0001e348       $unwind$??$?RV<lambda_7b91131dde12e1c3dfc74ff76b3f2eac>@@AEAV<lambda_dd75445284c072d0bd3768540cc698fa>@@V<lambda_16bc4ecb55b4718497c16bceaea2ceaf>@@@?$__crt_seh_guarded_call@H@@QEAAH$$QEAV<lambda_7b91131dde12e1c3dfc74ff76b3f2eac>@@AEAV<lambda_dd75445284c072d0bd3768540cc698fa>@@$$QEAV<lambda_16bc4ecb55b4718497c16bceaea2ceaf>@@@Z 0000000180050348     libucrt:output.obj
 0002:0001e36c       $unwind$?write_stored_string_tchar@?$output_processor@DV?$stream_output_adapter@D@__crt_stdio_output@@V?$standard_base@DV?$stream_output_adapter@D@__crt_stdio_output@@@2@@__crt_stdio_output@@AEAA_ND@Z 000000018005036c     libucrt:output.obj
 0002:0001e36c       $unwind$?write_stored_string_tchar@?$output_processor@DV?$string_output_adapter@D@__crt_stdio_output@@V?$standard_base@DV?$string_output_adapter@D@__crt_stdio_output@@@2@@__crt_stdio_output@@AEAA_ND@Z 000000018005036c     libucrt:output.obj
 0002:0001e36c       $unwind$?write_stored_string_tchar@?$output_processor@DV?$string_output_adapter@D@__crt_stdio_output@@V?$format_validation_base@DV?$string_output_adapter@D@__crt_stdio_output@@@2@@__crt_stdio_output@@AEAA_ND@Z 000000018005036c     libucrt:output.obj
 0002:0001e384       $unwind$??$type_case_integer_parse_into_buffer@I@?$output_processor@DV?$stream_output_adapter@D@__crt_stdio_output@@V?$standard_base@DV?$stream_output_adapter@D@__crt_stdio_output@@@2@@__crt_stdio_output@@AEAAXII_N@Z 0000000180050384     libucrt:output.obj
 0002:0001e384       $unwind$??$type_case_integer_parse_into_buffer@_K@?$output_processor@_WV?$stream_output_adapter@_W@__crt_stdio_output@@V?$standard_base@_WV?$stream_output_adapter@_W@__crt_stdio_output@@@2@@__crt_stdio_output@@AEAAX_KI_N@Z 0000000180050384     libucrt:output.obj
 0002:0001e384       $unwind$??$type_case_integer_parse_into_buffer@_K@?$output_processor@DV?$stream_output_adapter@D@__crt_stdio_output@@V?$standard_base@DV?$stream_output_adapter@D@__crt_stdio_output@@@2@@__crt_stdio_output@@AEAAX_KI_N@Z 0000000180050384     libucrt:output.obj
 0002:0001e384       $unwind$??$type_case_integer_parse_into_buffer@_K@?$output_processor@_WV?$string_output_adapter@_W@__crt_stdio_output@@V?$standard_base@_WV?$string_output_adapter@_W@__crt_stdio_output@@@2@@__crt_stdio_output@@AEAAX_KI_N@Z 0000000180050384     libucrt:output.obj
 0002:0001e384       $unwind$??$type_case_integer_parse_into_buffer@I@?$output_processor@_WV?$stream_output_adapter@_W@__crt_stdio_output@@V?$standard_base@_WV?$stream_output_adapter@_W@__crt_stdio_output@@@2@@__crt_stdio_output@@AEAAXII_N@Z 0000000180050384     libucrt:output.obj
 0002:0001e384       $unwind$??$type_case_integer_parse_into_buffer@_K@?$output_processor@DV?$string_output_adapter@D@__crt_stdio_output@@V?$format_validation_base@DV?$string_output_adapter@D@__crt_stdio_output@@@2@@__crt_stdio_output@@AEAAX_KI_N@Z 0000000180050384     libucrt:output.obj
 0002:0001e384       $unwind$??$type_case_integer_parse_into_buffer@I@?$output_processor@DV?$string_output_adapter@D@__crt_stdio_output@@V?$format_validation_base@DV?$string_output_adapter@D@__crt_stdio_output@@@2@@__crt_stdio_output@@AEAAXII_N@Z 0000000180050384     libucrt:output.obj
 0002:0001e384       $unwind$??$write_multiple_characters@V?$string_output_adapter@D@__crt_stdio_output@@D@__crt_stdio_output@@YAXAEBV?$string_output_adapter@D@0@DHQEAH@Z 0000000180050384     libucrt:output.obj
 0002:0001e384       $unwind$??$type_case_integer_parse_into_buffer@I@?$output_processor@_WV?$string_output_adapter@_W@__crt_stdio_output@@V?$standard_base@_WV?$string_output_adapter@_W@__crt_stdio_output@@@2@@__crt_stdio_output@@AEAAXII_N@Z 0000000180050384     libucrt:output.obj
 0002:0001e384       $unwind$??$type_case_integer_parse_into_buffer@_K@?$output_processor@DV?$string_output_adapter@D@__crt_stdio_output@@V?$standard_base@DV?$string_output_adapter@D@__crt_stdio_output@@@2@@__crt_stdio_output@@AEAAX_KI_N@Z 0000000180050384     libucrt:output.obj
 0002:0001e384       $unwind$??$type_case_integer_parse_into_buffer@I@?$output_processor@DV?$string_output_adapter@D@__crt_stdio_output@@V?$standard_base@DV?$string_output_adapter@D@__crt_stdio_output@@@2@@__crt_stdio_output@@AEAAXII_N@Z 0000000180050384     libucrt:output.obj
 0002:0001e390       $xdatasym                  0000000180050390     libucrt:strncpy.obj
 0002:0001e394       $unwind$??$common_assert_to_stderr@_W@@YAXQEB_W0I@Z 0000000180050394     libucrt:assert.obj
 0002:0001e3b0       $unwind$??$common_assert_to_message_box@_W@@YAXQEB_W0IQEAX@Z 00000001800503b0     libucrt:assert.obj
 0002:0001e3cc       $unwind$??$common_assert_to_message_box_build_string@_W@@YAXQEA_W_KQEB_W2IQEAX@Z 00000001800503cc     libucrt:assert.obj
 0002:0001e3ec       $unwind$??$common_getenv@D@@YAPEADQEBD@Z 00000001800503ec     libucrt:getenv.obj
 0002:0001e40c       $unwind$__acrt_call_reportfault 000000018005040c     libucrt:invalid_parameter.obj
 0002:0001e42c       $unwind$__vcrt_EventWriteTransfer 000000018005042c     libvcruntime:winapi_downlevel.obj
 0002:0001e42c       $unwind$_invalid_parameter 000000018005042c     libucrt:invalid_parameter.obj
 0002:0001e444       $unwind$_stricmp_l         0000000180050444     libucrt:stricmp.obj
 0002:0001e454       $unwind$terminate          0000000180050454     libucrt:terminate.obj
 0002:0001e474       $unwind$_query_new_handler 0000000180050474     libucrt:new_handler.obj
 0002:0001e494       $unwind$?common_exit@@YAXHW4_crt_exit_cleanup_mode@@W4_crt_exit_return_mode@@@Z 0000000180050494     libucrt:exit.obj
 0002:0001e4d4       $unwind$??$create_environment@D@@YAQEAPEADQEAD@Z 00000001800504d4     libucrt:environment_initialization.obj
 0002:0001e4d4       $unwind$__acrt_copy_path_to_wide_string 00000001800504d4     libucrt:string_utilities.obj
 0002:0001e4ec       $unwind$??$initialize_environment_by_cloning_nolock@D@@YAHXZ 00000001800504ec     libucrt:environment_initialization.obj
 0002:0001e4fc       $unwind$_register_onexit_function 00000001800504fc     libucrt:onexit.obj
 0002:0001e504       $unwind$_execute_onexit_table 0000000180050504     libucrt:onexit.obj
 0002:0001e50c       $unwind$??R<lambda_4e60a939b0d047cfe11ddc22648dfba9>@@QEBAHXZ 000000018005050c     libucrt:onexit.obj
 0002:0001e50c       $unwind$?_GetRangeOfTrysToCheck@@YAPEBU_s_TryBlockMapEntry@@PEA_KPEBU_s_FuncInfo@@HHPEAI2PEAU_xDISPATCHER_CONTEXT@@@Z 000000018005050c     libvcruntime:trnsctrl.obj
 0002:0001e50c       $unwind$?write_string@?$string_output_adapter@D@__crt_stdio_output@@QEBAXQEBDHQEAH1@Z 000000018005050c     libucrt:output.obj
 0002:0001e528       $unwind$??$?RV<lambda_b8c45f8f788dd370798f47cfe8ac3a86>@@AEAV<lambda_4e60a939b0d047cfe11ddc22648dfba9>@@V<lambda_332c3edc96d0294ec56c57d38c1cdfd5>@@@?$__crt_seh_guarded_call@H@@QEAAH$$QEAV<lambda_b8c45f8f788dd370798f47cfe8ac3a86>@@AEAV<lambda_4e60a939b0d047cfe11ddc22648dfba9>@@$$QEAV<lambda_332c3edc96d0294ec56c57d38c1cdfd5>@@@Z 0000000180050528     libucrt:onexit.obj
 0002:0001e54c       $unwind$??$?RV<lambda_e24bbb7b643b32fcea6fa61b31d4c984>@@AEAV<lambda_275893d493268fdec8709772e3fcec0e>@@V<lambda_9d71df4d7cf3f480f8d633942495c3b0>@@@?$__crt_seh_guarded_call@H@@QEAAH$$QEAV<lambda_e24bbb7b643b32fcea6fa61b31d4c984>@@AEAV<lambda_275893d493268fdec8709772e3fcec0e>@@$$QEAV<lambda_9d71df4d7cf3f480f8d633942495c3b0>@@@Z 000000018005054c     libucrt:onexit.obj
 0002:0001e57c       $unwind$??$parse_integer@KV?$c_string_character_source@D@__crt_strtox@@@__crt_strtox@@YAKQEAU__crt_locale_pointers@@V?$c_string_character_source@D@0@H_N@Z 000000018005057c     libucrt:atox.obj
 0002:0001e598       $unwind$??$parse_integer@KV?$c_string_character_source@_W@__crt_strtox@@@__crt_strtox@@YAKQEAU__crt_locale_pointers@@V?$c_string_character_source@_W@0@H_N@Z 0000000180050598     libucrt:atox.obj
 0002:0001e5b4       $unwind$?construct_ptd_array@@YAXQEAU__acrt_ptd@@@Z 00000001800505b4     libucrt:per_thread_data.obj
 0002:0001e5bc       $unwind$?destroy_ptd_array@@YAXQEAU__acrt_ptd@@@Z 00000001800505bc     libucrt:per_thread_data.obj
 0002:0001e5c4       $unwind$??$?RV<lambda_72d1df2b273a38828b1ce30cbf4cdab5>@@AEAV<lambda_876a65b173b8412d3a47c70a915b0cf4>@@V<lambda_41932305e351933ebe8f8be3ed8bb5dc>@@@?$__crt_seh_guarded_call@X@@QEAAX$$QEAV<lambda_72d1df2b273a38828b1ce30cbf4cdab5>@@AEAV<lambda_876a65b173b8412d3a47c70a915b0cf4>@@$$QEAV<lambda_41932305e351933ebe8f8be3ed8bb5dc>@@@Z 00000001800505c4     libucrt:per_thread_data.obj
 0002:0001e5e8       $unwind$??$?RV<lambda_5e887d1dcbef67a5eb4283622ba103bf>@@AEAV<lambda_4466841279450cc726390878d4a41900>@@V<lambda_341c25c0346d94847f1f3c463c57e077>@@@?$__crt_seh_guarded_call@X@@QEAAX$$QEAV<lambda_5e887d1dcbef67a5eb4283622ba103bf>@@AEAV<lambda_4466841279450cc726390878d4a41900>@@$$QEAV<lambda_341c25c0346d94847f1f3c463c57e077>@@@Z 00000001800505e8     libucrt:per_thread_data.obj
 0002:0001e60c       $unwind$??$?RV<lambda_46352004c1216016012b18bd6f87e700>@@AEAV<lambda_3bd07e1a1191394380780325891bf33f>@@V<lambda_334532d3f185bcaa59b5be82d7d22bff>@@@?$__crt_seh_guarded_call@X@@QEAAX$$QEAV<lambda_46352004c1216016012b18bd6f87e700>@@AEAV<lambda_3bd07e1a1191394380780325891bf33f>@@$$QEAV<lambda_334532d3f185bcaa59b5be82d7d22bff>@@@Z 000000018005060c     libucrt:per_thread_data.obj
 0002:0001e630       $unwind$??$?RV<lambda_fb3a7dec4e47f37f22dae91bb15c9095>@@AEAV<lambda_698284760c8add0bfb0756c19673e34b>@@V<lambda_dfb8eca1e75fef3034a8fb18dd509707>@@@?$__crt_seh_guarded_call@X@@QEAAX$$QEAV<lambda_fb3a7dec4e47f37f22dae91bb15c9095>@@AEAV<lambda_698284760c8add0bfb0756c19673e34b>@@$$QEAV<lambda_dfb8eca1e75fef3034a8fb18dd509707>@@@Z 0000000180050630     libucrt:per_thread_data.obj
 0002:0001e654       $unwind$?__acrt_stdio_allocate_stream@@YA?AV__crt_stdio_stream@@XZ 0000000180050654     libucrt:stream.obj
 0002:0001e674       $unwind$_openfile          0000000180050674     libucrt:openfile.obj
 0002:0001e688       $unwind$__TypeMatch        0000000180050688     libvcruntime:frame.obj
 0002:0001e688       $unwind$__vcrt_EventRegister 0000000180050688     libvcruntime:winapi_downlevel.obj
 0002:0001e688       $unwind$__acrt_MessageBoxW 0000000180050688     libucrt:winapi_thunks.obj
 0002:0001e688       $unwind$__GSHandlerCheck_EH 0000000180050688     LIBCMT:gshandlereh.obj
 0002:0001e688       $unwind$__vcrt_EventSetInformation 0000000180050688     libvcruntime:winapi_downlevel.obj
 0002:0001e688       $unwind$_initterm          0000000180050688     libucrt:initterm.obj
 0002:0001e688       $unwind$?process@?$output_processor@_WV?$string_output_adapter@_W@__crt_stdio_output@@V?$standard_base@_WV?$string_output_adapter@_W@__crt_stdio_output@@@2@@__crt_stdio_output@@QEAAHXZ 0000000180050688     libucrt:output.obj
 0002:0001e688       $unwind$__acrt_lowio_set_os_handle 0000000180050688     libucrt:osfinfo.obj
 0002:0001e688       $unwind$__acrt_initialize_stdio 0000000180050688     libucrt:_file.obj
 0002:0001e6a0       $unwind$__acrt_is_interactive 00000001800506a0     libucrt:winapi_thunks.obj
 0002:0001e6b4       $unwind$_fcloseall         00000001800506b4     libucrt:closeall.obj
 0002:0001e6d8       $unwind$fflush             00000001800506d8     libucrt:fflush.obj
 0002:0001e6fc       $unwind$common_flush_all   00000001800506fc     libucrt:fflush.obj
 0002:0001e738       $unwind$__acrt_initialize_lowio 0000000180050738     libucrt:ioinit.obj
 0002:0001e758       $unwind$?initialize_inherited_file_handles_nolock@@YAXXZ 0000000180050758     libucrt:ioinit.obj
 0002:0001e774       $unwind$?initialize_stdio_handles_nolock@@YAXXZ 0000000180050774     libucrt:ioinit.obj
 0002:0001e774       $unwind$__std_exception_copy 0000000180050774     libvcruntime:std_exception.obj
 0002:0001e774       $unwind$_free_osfhnd       0000000180050774     libucrt:osfinfo.obj
 0002:0001e788       $unwind$??$?RV<lambda_bfedae4ebbf01fab1bb6dcc6a9e276e0>@@AEAV<lambda_2fe9b910cf3cbf4a0ab98a02ba45b3ec>@@V<lambda_237c231691f317818eb88cc1d5d642d6>@@@?$__crt_seh_guarded_call@H@@QEAAH$$QEAV<lambda_bfedae4ebbf01fab1bb6dcc6a9e276e0>@@AEAV<lambda_2fe9b910cf3cbf4a0ab98a02ba45b3ec>@@$$QEAV<lambda_237c231691f317818eb88cc1d5d642d6>@@@Z 0000000180050788     libucrt:close.obj
 0002:0001e7ac       $unwind$isdigit            00000001800507ac     libucrt:_ctype.obj
 0002:0001e7ac       $unwind$?_TlgWrite@__vcrt_trace_logging_provider@@YAJPEBU_TlgProvider_t@1@PEFBXPEBU_GUID@@2IPEAU_EVENT_DATA_DESCRIPTOR@@@Z 00000001800507ac     libvcruntime:telemetry.obj
 0002:0001e7ac       $unwind$_isleadbyte_l      00000001800507ac     libucrt:_wctype.obj
 0002:0001e7ac       $unwind$?getSystemCP@@YAHH@Z 00000001800507ac     libucrt:mbctype.obj
 0002:0001e7b4       $unwind$_tolower_l         00000001800507b4     libucrt:tolower_toupper.obj
 0002:0001e7c4       $unwind$_wctomb_s_l        00000001800507c4     libucrt:wctomb.obj
 0002:0001e7d4       $unwind$wcsnlen            00000001800507d4     libucrt:strnlen.obj
 0002:0001e7d4       $unwind$strnlen            00000001800507d4     libucrt:strnlen.obj
 0002:0001e7dc       $unwind$__acrt_fp_format   00000001800507dc     libucrt:cvt.obj
 0002:0001e7f8       $unwind$?fp_format_nan_or_infinity@@YAHW4__acrt_fp_class@@_NPEAD_K1@Z 00000001800507f8     libucrt:cvt.obj
 0002:0001e80c       $unwind$?fp_format_e_internal@@YAHQEAD_KH_NIQEAU_strflt@@2QEAU__crt_locale_pointers@@@Z 000000018005080c     libucrt:cvt.obj
 0002:0001e824       $unwind$?fp_format_a@@YAHQEBNPEAD_KQEAD2H_NIQEAU__crt_locale_pointers@@@Z 0000000180050824     libucrt:cvt.obj
 0002:0001e840       $unwind$?fp_format_g@@YAHQEBNQEAD_K12H_NIQEAU__crt_locale_pointers@@@Z 0000000180050840     libucrt:cvt.obj
 0002:0001e854       $unwind$_fputwc_nolock     0000000180050854     libucrt:fputwc.obj
 0002:0001e870       $unwind$__acrt_uninitialize_locale 0000000180050870     libucrt:wsetlocale.obj
 0002:0001e890       $unwind$__acrt_LCMapStringEx 0000000180050890     libucrt:winapi_thunks.obj
 0002:0001e890       $unwind$_mbtowc_l          0000000180050890     libucrt:mbtowc.obj
 0002:0001e890       $unwind$__acrt_CompareStringEx 0000000180050890     libucrt:winapi_thunks.obj
 0002:0001e890       $unwind$__acrt_show_wide_message_box 0000000180050890     libucrt:crtmbox.obj
 0002:0001e8a8       $unwind$setvbuf            00000001800508a8     libucrt:setvbuf.obj
 0002:0001e8b0       $unwind$??$?RV<lambda_7a5ef57ff966f610505f1d28a3d40618>@@AEAV<lambda_b721fa326cdb32351d23dfa67958c160>@@V<lambda_5e0fb27672408a07956fe59e48ccb2aa>@@@?$__crt_seh_guarded_call@H@@QEAAH$$QEAV<lambda_7a5ef57ff966f610505f1d28a3d40618>@@AEAV<lambda_b721fa326cdb32351d23dfa67958c160>@@$$QEAV<lambda_5e0fb27672408a07956fe59e48ccb2aa>@@@Z 00000001800508b0     libucrt:setvbuf.obj
 0002:0001e8d4       $unwind$__acrt_get_sigabrt_handler 00000001800508d4     libucrt:signal.obj
 0002:0001e8dc       $unwind$raise              00000001800508dc     libucrt:signal.obj
 0002:0001e908       $unwind$??$?RV<lambda_c36588078e9f5dfd39652860aa6b3aaf>@@AEAV<lambda_ec61778202f4f5fc7e7711acc23c3bca>@@V<lambda_dc9d2797ccde5d239b4a0efae8ebd7db>@@@?$__crt_seh_guarded_call@P6AXH@Z@@QEAAP6AXH@Z$$QEAV<lambda_c36588078e9f5dfd39652860aa6b3aaf>@@AEAV<lambda_ec61778202f4f5fc7e7711acc23c3bca>@@$$QEAV<lambda_dc9d2797ccde5d239b4a0efae8ebd7db>@@@Z 0000000180050908     libucrt:signal.obj
 0002:0001e92c       $unwind$_strnicoll_l       000000018005092c     libucrt:strnicol.obj
 0002:0001e940       $unwind$__acrt_update_thread_multibyte_data 0000000180050940     libucrt:mbctype.obj
 0002:0001e964       $unwind$_setmbcp_nolock    0000000180050964     libucrt:mbctype.obj
 0002:0001e984       $unwind$?setSBUpLow@@YAXPEAU__crt_multibyte_data@@@Z 0000000180050984     libucrt:mbctype.obj
 0002:0001e9a0       $unwind$?setmbcp_internal@@YAHH_N@Z 00000001800509a0     libucrt:mbctype.obj
 0002:0001e9b0       $unwind$??$?RV<lambda_99476a1ad63dd22509b5d3e65b0ffc95>@@AEAV<lambda_ad1ced32f4ac17aa236e5ef05d6b3b7c>@@V<lambda_f7424dd8d45958661754dc4f2697e9c3>@@@?$__crt_seh_guarded_call@X@@QEAAX$$QEAV<lambda_99476a1ad63dd22509b5d3e65b0ffc95>@@AEAV<lambda_ad1ced32f4ac17aa236e5ef05d6b3b7c>@@$$QEAV<lambda_f7424dd8d45958661754dc4f2697e9c3>@@@Z 00000001800509b0     libucrt:mbctype.obj
 0002:0001e9d4       $unwind$__dcrt_get_narrow_environment_from_os 00000001800509d4     libucrt:get_environment_from_os.obj
 0002:0001e9d4       $unwind$?fp_format_f_internal@@YAHQEAD_KHQEAU_strflt@@_NQEAU__crt_locale_pointers@@@Z 00000001800509d4     libucrt:cvt.obj
 0002:0001e9ec       $unwind$??$common_set_variable_in_environment_nolock@D@@YAHQEADH@Z 00000001800509ec     libucrt:setenv.obj
 0002:0001ea04       $unwind$??$copy_environment@D@@YAPEAPEADQEAPEAD@Z 0000000180050a04     libucrt:setenv.obj
 0002:0001ea18       $unwind$__acrt_is_packaged_app 0000000180050a18     libucrt:winapi_thunks.obj
 0002:0001ea18       $unwind$iswctype           0000000180050a18     libucrt:iswctype.obj
 0002:0001ea24       $unwind$_isctype_l         0000000180050a24     libucrt:isctype.obj
 0002:0001ea40       $unwind$__acrt_update_thread_locale_data 0000000180050a40     libucrt:locale_refcounting.obj
 0002:0001ea68       $xdatasym                  0000000180050a68     libucrt:strncmp.obj
 0002:0001ea6c       $unwind$_strnicmp_l        0000000180050a6c     libucrt:strnicmp.obj
 0002:0001ea6c       $unwind$?__SehTransFilter@@YAHPEAU_EXCEPTION_POINTERS@@PEAUEHExceptionRecord@@PEA_KPEAU_CONTEXT@@PEAU_xDISPATCHER_CONTEXT@@PEBU_s_FuncInfo@@PEAH@Z 0000000180050a6c     libvcruntime:trnsctrl.obj
 0002:0001ea80       $unwind$_sopen_nolock      0000000180050a80     libucrt:open.obj
 0002:0001ea80       $unwind$?fp_format_e@@YAHQEBNQEAD_K12H_NIQEAU__crt_locale_pointers@@@Z 0000000180050a80     libucrt:cvt.obj
 0002:0001ea94       $unwind$_wsopen_nolock     0000000180050a94     libucrt:open.obj
 0002:0001eab0       $unwind$??$common_sopen_dispatch@D@@YAHQEBDHHHQEAHH@Z 0000000180050ab0     libucrt:open.obj
 0002:0001ead4       $unwind$?fin$0@?0???$common_sopen_dispatch@D@@YAHQEBDHHHQEAHH@Z@4HA 0000000180050ad4     libucrt:open.obj
 0002:0001ead4       $unwind$_CallSETranslator$filt$0 0000000180050ad4     libvcruntime:trnsctrl.obj
 0002:0001eadc       $unwind$?decode_options@@YA?AUfile_options@?A0xc3dee958@@HHH@Z 0000000180050adc     libucrt:open.obj
 0002:0001eaf0       $unwind$?state_case_type@?$output_processor@DV?$string_output_adapter@D@__crt_stdio_output@@V?$format_validation_base@DV?$string_output_adapter@D@__crt_stdio_output@@@2@@__crt_stdio_output@@AEAA_NXZ 0000000180050af0     libucrt:output.obj
 0002:0001eaf0       $unwind$?state_case_type@?$output_processor@DV?$string_output_adapter@D@__crt_stdio_output@@V?$standard_base@DV?$string_output_adapter@D@__crt_stdio_output@@@2@@__crt_stdio_output@@AEAA_NXZ 0000000180050af0     libucrt:output.obj
 0002:0001eaf0       $unwind$?state_case_type@?$output_processor@DV?$stream_output_adapter@D@__crt_stdio_output@@V?$standard_base@DV?$stream_output_adapter@D@__crt_stdio_output@@@2@@__crt_stdio_output@@AEAA_NXZ 0000000180050af0     libucrt:output.obj
 0002:0001eaf0       $unwind$?configure_text_mode@@YAHHUfile_options@?A0xc3dee958@@HAEAW4__crt_lowio_text_mode@@@Z 0000000180050af0     libucrt:open.obj
 0002:0001eb08       $unwind$?GetTableIndexFromLocaleName@@YAHPEB_W@Z 0000000180050b08     libucrt:lcidtoname_downlevel.obj
 0002:0001eb20       $unwind$_commit            0000000180050b20     libucrt:commit.obj
 0002:0001eb20       $unwind$_close             0000000180050b20     libucrt:close.obj
 0002:0001eb28       $unwind$??$?RV<lambda_b521505b218e5242e90febf6bfebc422>@@AEAV<lambda_6978c1fb23f02e42e1d9e99668cc68aa>@@V<lambda_314360699dd331753a4119843814e9a7>@@@?$__crt_seh_guarded_call@H@@QEAAH$$QEAV<lambda_b521505b218e5242e90febf6bfebc422>@@AEAV<lambda_6978c1fb23f02e42e1d9e99668cc68aa>@@$$QEAV<lambda_314360699dd331753a4119843814e9a7>@@@Z 0000000180050b28     libucrt:commit.obj
 0002:0001eb4c       $unwind$_write             0000000180050b4c     libucrt:write.obj
 0002:0001eb7c       $unwind$_write_nolock      0000000180050b7c     libucrt:write.obj
 0002:0001eb94       $unwind$?write_double_translated_ansi_nolock@@YA?AUwrite_result@?A0x4392dfaa@@HQEBDI@Z 0000000180050b94     libucrt:write.obj
 0002:0001ebb4       $unwind$?write_text_utf16le_nolock@@YA?AUwrite_result@?A0x4392dfaa@@HQEBDI@Z 0000000180050bb4     libucrt:write.obj
 0002:0001ebb4       $unwind$?write_text_ansi_nolock@@YA?AUwrite_result@?A0x4392dfaa@@HQEBDI@Z 0000000180050bb4     libucrt:write.obj
 0002:0001ebd4       $unwind$?write_text_utf8_nolock@@YA?AUwrite_result@?A0x4392dfaa@@HQEBDI@Z 0000000180050bd4     libucrt:write.obj
 0002:0001ebf8       $unwind$_alloc_osfhnd      0000000180050bf8     libucrt:osfinfo.obj
 0002:0001ec28       $unwind$__acrt_lowio_destroy_handle_array 0000000180050c28     libucrt:osfinfo.obj
 0002:0001ec38       $unwind$__acrt_lowio_ensure_fh_exists 0000000180050c38     libucrt:osfinfo.obj
 0002:0001ec64       $unwind$__acrt_LCMapStringA 0000000180050c64     libucrt:lcmapstringa.obj
 0002:0001ec74       $unwind$?__acrt_LCMapStringA_stat@@YAHPEAU__crt_locale_pointers@@PEB_WKPEBDHPEADHHH@Z 0000000180050c74     libucrt:lcmapstringa.obj
 0002:0001ec9c       $unwind$__acrt_fltout      0000000180050c9c     libucrt:cfout.obj
 0002:0001ecbc       $unwind$?divide@__crt_strtox@@YA_KAEAUbig_integer@1@AEBU21@@Z 0000000180050cbc     libucrt:cfout.obj
 0002:0001ecdc       $chain$5$?divide@__crt_strtox@@YA_KAEAUbig_integer@1@AEBU21@@Z 0000000180050cdc     libucrt:cfout.obj
 0002:0001ecf0       $chain$6$?divide@__crt_strtox@@YA_KAEAUbig_integer@1@AEBU21@@Z 0000000180050cf0     libucrt:cfout.obj
 0002:0001ed00       $unwind$??$write_buffer_nolock@D@@YA_NDV__crt_stdio_stream@@@Z 0000000180050d00     libucrt:_flsbuf.obj
 0002:0001ed10       $unwind$??$write_buffer_nolock@_W@@YA_N_WV__crt_stdio_stream@@@Z 0000000180050d10     libucrt:_flsbuf.obj
 0002:0001ed20       $unwind$__acrt_locale_free_monetary 0000000180050d20     libucrt:initmon.obj
 0002:0001ed28       $unwind$__acrt_locale_free_time 0000000180050d28     libucrt:inittime.obj
 0002:0001ed38       $unwind$__acrt_GetStringTypeA 0000000180050d38     libucrt:getstringtypea.obj
 0002:0001ed60       $unwind$__acrt_CompareStringA 0000000180050d60     libucrt:comparestringa.obj
 0002:0001ed70       $unwind$?InternalCompareStringA@@YAHPEAU__crt_locale_pointers@@PEB_WKPEBDH2HH@Z 0000000180050d70     libucrt:comparestringa.obj
 0002:0001ed94       $unwind$_setmode_nolock    0000000180050d94     libucrt:setmode.obj
 0002:0001eda4       $unwind$_read_nolock       0000000180050da4     libucrt:read.obj
 0002:0001edbc       $unwind$?translate_ansi_or_utf8_nolock@@YAHHQEAD_KQEA_W1@Z 0000000180050dbc     libucrt:read.obj
 0002:0001edd4       $unwind$??$translate_text_mode_nolock@_W@@YAHHQEA_W_K@Z 0000000180050dd4     libucrt:read.obj
 0002:0001edec       $unwind$??$common_lseek@_J@@YA_JH_JH@Z 0000000180050dec     libucrt:lseek.obj
 0002:0001ee20       $xdatasym                  0000000180050e20     libucrt:log10.obj
 0002:0001ee2c       $unwind$common_control87   0000000180050e2c     libucrt:ieee.obj
 0002:0001ee5c       $unwind$_call_matherr      0000000180050e5c     libucrt:libm_error.obj
 0002:0001ee64       $unwind$_handle_error      0000000180050e64     libucrt:libm_error.obj
 0002:0001ee64       $unwind$_handle_errorf     0000000180050e64     libucrt:libm_error.obj
 0002:0001ee84       $unwind$__acrt_initialize_fma3 0000000180050e84     libucrt:fma3_available.obj
 0002:0001ee90       $xdatasym                  0000000180050e90     libucrt:fpsr.obj
 0002:0001ee98       $unwind$_raise_exc_ex      0000000180050e98     libucrt:fpexcept.obj
 0002:0001eeac       $unwind$_ctrlfp            0000000180050eac     libucrt:fpctrl.obj
 0002:0001eed4       $unwind$?DloadObtainSection@@YAPEAXPEAK0@Z 0000000180050ed4     DelayImp:delayhlp.obj
 0002:0001eee4       $unwind$?DloadMakePermanentImageCommit@@YAXPEAX_K@Z 0000000180050ee4     DelayImp:delayhlp.obj
 0002:0001eef0       $unwind$?DloadProtectSection@@YAXKPEAK@Z 0000000180050ef0     DelayImp:delayhlp.obj
 0002:0001ef00       $unwind$__delayLoadHelper2 0000000180050f00     DelayImp:delayhlp.obj
 0002:0001ef18       $unwind$_IsNonwritableInCurrentImage 0000000180050f18     LIBCMT:pesect.obj
 0002:0001ef3c       $unwind$__GSHandlerCheckCommon 0000000180050f3c     LIBCMT:_gshandler_.obj
 0002:0001ef48       $xdatasym                  0000000180050f48     LIBCMT:_chkstk_.obj
 0002:0001ef50       $unwind$strrchr            0000000180050f50     libvcruntime:strrchr.obj
 0002:0001ef50       $unwind$strchr             0000000180050f50     libvcruntime:strchr.obj
 0002:0001ef58       $xdatasym                  0000000180050f58     libvcruntime:memcmp.obj
 0002:0001ef60       $xdatasym                  0000000180050f60     libucrt:cos.obj
 0002:0001ef68       $xdatasym                  0000000180050f68     libucrt:cosf.obj
 0002:0001ef70       $xdatasym                  0000000180050f70     libucrt:expf.obj
 0002:0001ef78       $xdatasym                  0000000180050f78     libucrt:powf.obj
 0002:0001ef88       $xdatasym                  0000000180050f88     libucrt:sin.obj
 0002:0001ef90       $xdatasym                  0000000180050f90     libucrt:sinf.obj
 0002:0001ef98       $xdatasym                  0000000180050f98     libucrt:remainder_piby2_forasm.obj
 0002:0001efa8       $xdatasym                  0000000180050fa8     libucrt:remainder_piby2_forfma3.obj
 0002:0001efb8       $xdatasym                  0000000180050fb8     libucrt:remainder_piby2f_forasm.obj
 0002:0001efbc       $unwind$_expf_special      0000000180050fbc     libucrt:exp_special.obj
 0002:0001efbc       $unwind$_log_special_common 0000000180050fbc     libucrt:log_special.obj
 0002:0001efc8       $unwind$_powf_special      0000000180050fc8     libucrt:pow_special.obj
 0002:0001efd8       $xdatasym                  0000000180050fd8     libucrt:remainder_piby2f_forc.obj
 0002:000205b0       .edata                     00000001800525b0     lwip_image.exp
 0002:000205d8       rgpv                       00000001800525d8     lwip_image.exp
 0002:000205dc       rgszName                   00000001800525dc     lwip_image.exp
 0002:000205e0       rgwOrd                     00000001800525e0     lwip_image.exp
 0002:000205e2       szName                     00000001800525e2     lwip_image.exp
 0002:000205f2       $N00001                    00000001800525f2     lwip_image.exp
 0002:000209a6       .idata$6                   00000001800529a6     kernel32:KERNEL32.dll
 0002:000209ce       .idata$6                   00000001800529ce     shell32:SHELL32.dll
 0002:00020f84       .idata$6                   0000000180052f84     advapi32:ADVAPI32.dll
 0003:00000030       ?_Tlg_Microsoft_CRTProviderProv@@3U_TlgProvider_t@__vcrt_trace_logging_provider@@A 0000000180053030     libvcruntime:telemetry.obj
 0003:00000080       ?__vcrt_flsindex@@3KA      0000000180053080     libvcruntime:per_thread_data.obj
 0003:000001a4       __acrt_flsindex            00000001800531a4     libucrt:per_thread_data.obj
 0003:000001a8       errno_no_memory            00000001800531a8     libucrt:errno.obj
 0003:000001ac       doserrno_no_memory         00000001800531ac     libucrt:errno.obj
 0003:00000590       __rgctypeflag              0000000180053590     libucrt:mbctype.obj
 0003:000005a0       __rgcode_page_info         00000001800535a0     libucrt:mbctype.obj
 0003:00000a68       ?dazSupported@?1??common_control87@@9@9 0000000180053a68     libucrt:ieee.obj
 0003:00000a70       ?dazSupported@?1??_ctrlfp@@9@9 0000000180053a70     libucrt:fpctrl.obj
 0003:00000a90       _module                    0000000180053a90     init.obj
 0003:00000f08       ?_Tss_mutex@@3U_RTL_CRITICAL_SECTION@@A 0000000180053f08     LIBCMT:thread_safe_statics.obj
 0003:00000f30       ?_Tss_cv@@3U_RTL_CONDITION_VARIABLE@@A 0000000180053f30     LIBCMT:thread_safe_statics.obj
 0003:00000f38       ?_Tss_event@@3PEAXEA       0000000180053f38     LIBCMT:thread_safe_statics.obj
 0003:00000f40       ?encoded_sleep_condition_variable_cs@@3P6AHPEAU_RTL_CONDITION_VARIABLE@@PEAU_RTL_CRITICAL_SECTION@@K@ZEA 0000000180053f40     LIBCMT:thread_safe_statics.obj
 0003:00000f48       ?encoded_wake_all_condition_variable@@3P6AXPEAU_RTL_CONDITION_VARIABLE@@@ZEA 0000000180053f48     LIBCMT:thread_safe_statics.obj
 0003:00000f60       ?module_local_atexit_table@@3U_onexit_table_t@@A 0000000180053f60     LIBCMT:utility.obj
 0003:00000f78       ?module_local_at_quick_exit_table@@3U_onexit_table_t@@A 0000000180053f78     LIBCMT:utility.obj
 0003:00000f90       ?is_initialized_as_dll@@3_NA 0000000180053f90     LIBCMT:utility.obj
 0003:00000f94       ?__proc_attached@@3HA      0000000180053f94     LIBCMT:dll_dllmain.obj
 0003:00000fa0       GS_ExceptionRecord         0000000180053fa0     LIBCMT:gs_report.obj
 0003:00001040       GS_ContextRecord           0000000180054040     LIBCMT:gs_report.obj
 0003:00001540       ?module_handles@@3PAPEAUHINSTANCE__@@A 0000000180054540     libvcruntime:winapi_downlevel.obj
 0003:00001560       ?encoded_function_pointers@@3PAPEAXA 0000000180054560     libvcruntime:winapi_downlevel.obj
 0003:000015b0       ?__vcrt_startup_thread_ptd@@3U__vcrt_ptd@@A 00000001800545b0     libvcruntime:per_thread_data.obj
 0003:00001630       __vcrt_lock_table          0000000180054630     libvcruntime:locks.obj
 0003:00001658       __vcrt_locks_initialized   0000000180054658     libvcruntime:locks.obj
 0003:000016a8       ?heap@@3V_HeapManager@@A   00000001800546a8     libvcruntime:undname.obj
 0003:000016e8       __acrt_invalid_parameter_handler 00000001800546e8     libucrt:invalid_parameter.obj
 0003:000016f0       __acrt_new_handler         00000001800546f0     libucrt:new_handler.obj
 0003:000016f8       c_termination_complete     00000001800546f8     libucrt:exit.obj
 0003:00001700       thread_local_exit_callback_func 0000000180054700     libucrt:exit.obj
 0003:00001708       ?c_exit_complete@?5??common_exit@@YAXHW4_crt_exit_cleanup_mode@@W4_crt_exit_return_mode@@@Z@4_NA 0000000180054708     libucrt:exit.obj
 0003:00001760       module_handles             0000000180054760     libucrt:winapi_thunks.obj
 0003:00001800       encoded_function_pointers  0000000180054800     libucrt:winapi_thunks.obj
 0003:00001900       ?state_cache@?1??__acrt_is_packaged_app@@9@4JA 0000000180054900     libucrt:winapi_thunks.obj
 0003:00001d18       enable_percent_n           0000000180054d18     libucrt:printf_count_output.obj
 0003:00001d40       __acrt_app_type            0000000180054d40     libucrt:report_runtime_error.obj
 0003:00001d44       __acrt_error_mode          0000000180054d44     libucrt:set_error_mode.obj
 0003:00001d48       ctrlc_action               0000000180054d48     libucrt:signal.obj
 0003:00001d50       ctrlbreak_action           0000000180054d50     libucrt:signal.obj
 0003:00001d58       abort_action               0000000180054d58     libucrt:signal.obj
 0003:00001d60       term_action                0000000180054d60     libucrt:signal.obj
 0003:00001d70       __acrt_lock_table          0000000180054d70     libucrt:locks.obj
 0003:00001f78       __acrt_locks_initialized   0000000180054f78     libucrt:locks.obj
 0003:00001f94       fSystemSet                 0000000180054f94     libucrt:mbctype.obj
 0003:00001fa0       ?initialized@?1??__acrt_initialize_multibyte@@9@4_NA 0000000180054fa0     libucrt:mbctype.obj
 0003:00001fd0       user_matherr               0000000180054fd0     libucrt:matherr.obj
 0003:00001fd8       __acrt_global_new_mode     0000000180054fd8     libucrt:new_mode.obj
 0004:00000000       $pdata$?TraceLoggingRegister@__vcrt_trace_logging_provider@@YAJPEBU_TlgProvider_t@1@PEBU_GUID@@P6AX1KE_K2PEAU_EVENT_FILTER_DESCRIPTOR@@PEAX@Z4@Z 0000000180056000     libvcruntime:telemetry.obj
 0004:0000000c       $pdata$?_TlgEnableCallback@__vcrt_trace_logging_provider@@YAXPEBU_GUID@@KE_K1PEAU_EVENT_FILTER_DESCRIPTOR@@PEAX@Z 000000018005600c     libvcruntime:telemetry.obj
 0004:00000018       $pdata$?_TlgWrite@__vcrt_trace_logging_provider@@YAJPEBU_TlgProvider_t@1@PEFBXPEBU_GUID@@2IPEAU_EVENT_DATA_DESCRIPTOR@@@Z 0000000180056018     libvcruntime:telemetry.obj
 0004:00000024       $pdata$?InitAll@@YAXV?$Local@VObject@v8@@@v8@@@Z 0000000180056024     init.obj
 0004:00000030       $pdata$fprintf             0000000180056030     image.obj
 0004:0000003c       $pdata$??_Gexception@stdext@@UEAAPEAXI@Z 000000018005603c     image.obj
 0004:00000048       $pdata$??1ObjectWrap@node@@UEAA@XZ 0000000180056048     image.obj
 0004:00000054       $pdata$?Wrap@ObjectWrap@node@@IEAAXV?$Local@VObject@v8@@@v8@@@Z 0000000180056054     image.obj
 0004:00000060       $pdata$?Ref@ObjectWrap@node@@MEAAXXZ 0000000180056060     image.obj
 0004:0000006c       $pdata$?Unref@ObjectWrap@node@@MEAAXXZ 000000018005606c     image.obj
 0004:00000078       $pdata$?WeakCallback@ObjectWrap@node@@CAXAEBV?$WeakCallbackData@VObject@v8@@VObjectWrap@node@@@v8@@@Z 0000000180056078     image.obj
 0004:00000084       $pdata$??_GObjectWrap@node@@UEAAPEAXI@Z 0000000180056084     image.obj
 0004:00000090       $pdata$?FunctionCallbackWrapper@imp@Nan@@YAXAEBV?$FunctionCallbackInfo@VValue@v8@@@v8@@@Z 0000000180056090     image.obj
 0004:0000009c       $pdata$?New@?$Factory@VFunctionTemplate@v8@@@imp@Nan@@SA?AV?$Local@VFunctionTemplate@v8@@@v8@@P6AXAEBV?$FunctionCallbackInfo@VValue@v8@@@3@@ZV?$Local@VValue@v8@@@5@V?$Local@VSignature@v8@@@5@@Z 000000018005609c     image.obj
 0004:000000a8       $pdata$??0Callback@Nan@@QEAA@AEBV?$Local@VFunction@v8@@@v8@@@Z 00000001800560a8     image.obj
 0004:000000b4       $pdata$??1?$Persistent@VObject@v8@@V?$NonCopyablePersistentTraits@VObject@v8@@@2@@Nan@@QEAA@XZ 00000001800560b4     image.obj
 0004:000000c0       $pdata$?AsyncExecuteComplete@Nan@@YAXPEAUuv_work_s@@@Z 00000001800560c0     image.obj
 0004:000000cc       $pdata$?_snprintf@cimg@cimg_library@@YAHQEAD_KQEBDZZ 00000001800560cc     image.obj
 0004:000000d8       $pdata$?_vsnprintf@cimg@cimg_library@@YAHQEAD_KQEBDPEAD@Z 00000001800560d8     image.obj
 0004:000000e4       $pdata$??0CImgException@cimg_library@@QEAA@AEBU01@@Z 00000001800560e4     image.obj
 0004:000000f0       $pdata$??1CImgException@cimg_library@@UEAA@XZ 00000001800560f0     image.obj
 0004:000000f0       $pdata$??1CImgInstanceException@cimg_library@@UEAA@XZ 00000001800560f0     image.obj
 0004:000000f0       $pdata$??1CImgIOException@cimg_library@@UEAA@XZ 00000001800560f0     image.obj
 0004:000000f0       $pdata$??1CImgArgumentException@cimg_library@@UEAA@XZ 00000001800560f0     image.obj
 0004:000000fc       $pdata$??_GCImgIOException@cimg_library@@UEAAPEAXI@Z 00000001800560fc     image.obj
 0004:000000fc       $pdata$??_GCImgException@cimg_library@@UEAAPEAXI@Z 00000001800560fc     image.obj
 0004:000000fc       $pdata$??_GCImgInstanceException@cimg_library@@UEAAPEAXI@Z 00000001800560fc     image.obj
 0004:000000fc       $pdata$??_GCImgArgumentException@cimg_library@@UEAAPEAXI@Z 00000001800560fc     image.obj
 0004:00000108       $pdata$??0CImgArgumentException@cimg_library@@QEAA@QEBDZZ 0000000180056108     image.obj
 0004:00000114       $pdata$??0CImgInstanceException@cimg_library@@QEAA@QEBDZZ 0000000180056114     image.obj
 0004:00000120       $pdata$??0CImgIOException@cimg_library@@QEAA@QEBDZZ 0000000180056120     image.obj
 0004:0000012c       $pdata$?Mutex_attr@cimg@cimg_library@@YAAEAUMutex_info@12@XZ 000000018005612c     image.obj
 0004:00000138       $pdata$1$?Mutex_attr@cimg@cimg_library@@YAAEAUMutex_info@12@XZ 0000000180056138     image.obj
 0004:00000144       $pdata$2$?Mutex_attr@cimg@cimg_library@@YAAEAUMutex_info@12@XZ 0000000180056144     image.obj
 0004:00000150       $pdata$?output@cimg@cimg_library@@YAPEAU_iobuf@@PEAU3@@Z 0000000180056150     image.obj
 0004:0000015c       $pdata$?warn@cimg@cimg_library@@YAXQEBDZZ 000000018005615c     image.obj
 0004:00000168       $pdata$0$?warn@cimg@cimg_library@@YAXQEBDZZ 0000000180056168     image.obj
 0004:00000174       $pdata$1$?warn@cimg@cimg_library@@YAXQEBDZZ 0000000180056174     image.obj
 0004:00000180       $pdata$?filenamerand@cimg@cimg_library@@YAPEBDXZ 0000000180056180     image.obj
 0004:0000018c       $pdata$?winformat_string@cimg@cimg_library@@YAXQEAD@Z 000000018005618c     image.obj
 0004:00000198       $pdata$0$?winformat_string@cimg@cimg_library@@YAXQEAD@Z 0000000180056198     image.obj
 0004:000001a4       $pdata$1$?winformat_string@cimg@cimg_library@@YAXQEAD@Z 00000001800561a4     image.obj
 0004:000001b0       $pdata$??0CImgIOException@cimg_library@@QEAA@AEBU01@@Z 00000001800561b0     image.obj
 0004:000001b0       $pdata$??0CImgArgumentException@cimg_library@@QEAA@AEBU01@@Z 00000001800561b0     image.obj
